((lp1
ccollections
defaultdict
p2
(c__builtin__
int
p3
tRp4
S'RoofStyleFlat'
p5
F5.8102212533381269e-06
sS'Condition1Artery'
p6
F-9.3594543373967093e-06
sS'Exterior1stCemntBd'
p7
F-1.0119246018158141e-06
sS'NeighborhoodGilbert'
p8
F1.4323005374414387e-05
sS'BsmtCondNA'
p9
F-7.3802925996544204e-06
sS'FunctionalMaj1'
p10
F-4.7514130376356666e-06
sS'OpenPorchSF'
p11
F0.0022140528204670747
sS'NeighborhoodCrawfor'
p12
F-6.6094367245997201e-06
sS'LotShapeReg'
p13
F-6.9626996169932473e-05
sS'OverallQual'
p14
F0.00024506141729902084
sS'ExterCondFa'
p15
F-4.907318780924298e-06
sS'Exterior1stMetalSd'
p16
F2.1116268343996492e-06
sS'HouseAge'
p17
F-0.0042840269930768697
sS'Exterior2ndCmentBd'
p18
F-1.0898092038142986e-05
sS'LandContourHLS'
p19
F1.5161480267785632e-05
sS'RoofStyleGambrel'
p20
F-1.0756936965975126e-06
sS'Exterior2ndCBlock'
p21
F-1.7929884893513599e-07
sS'HeatingWall'
p22
F-2.9906715992132694e-06
sS'Exterior2ndAsbShng'
p23
F-2.3661947158635614e-06
sS'EnclosedPorch'
p24
F-0.0033635073744020475
sS'BldgTypeTwnhs'
p25
F-1.1663378691471845e-06
sS'NeighborhoodBlmngtn'
p26
F2.1593822913833356e-06
sS'Unnamed: 0'
p27
F-0.0053093053041844028
sS'Exterior2ndStone'
p28
F-1.842345367185034e-06
sS'MasVnrTypeStone'
p29
F2.1227893402725096e-05
sS'Condition1Norm'
p30
F1.5454941774217694e-05
sS'MiscFeatureShed'
p31
F-2.5564691471634801e-05
sS'BsmtHalfBath'
p32
F1.3690952553227515e-05
sS'KitchenAbvGr'
p33
F-3.2780216756150062e-06
sS'Exterior1stWd Sdng'
p34
F-2.9772582326639717e-06
sS'BsmtFinType2GLQ'
p35
F-5.4979506030200958e-07
sS'NeighborhoodTimber'
p36
F2.5621246756637895e-07
sS'BsmtQualFa'
p37
F-3.8465339464140954e-06
sS'GarageQualTA'
p38
F8.3373839272488928e-06
sS'RoofMatlCompShg'
p39
F2.9112338715978176e-06
sS'ElectricalSBrkr'
p40
F3.0309232767198563e-05
sS'SaleTypeOth'
p41
F-2.5004393232092411e-07
sS'BsmtExposureAv'
p42
F4.0222182125975307e-05
sS'LandSlopeSev'
p43
F-8.6050907938494995e-06
sS'PoolArea'
p44
F0.0041404827864154423
sS'FullBath'
p45
F6.0677624354467245e-05
sS'BsmtFinType1LwQ'
p46
F-5.4392776192652403e-07
sS'MSZoningRM'
p47
F-1.6943424337626089e-05
sS'MSZoningRL'
p48
F1.826577071727567e-05
sS'NeighborhoodCollgCr'
p49
F7.888561952202688e-07
sS'Exterior1stImStucc'
p50
F-2.6650836523489433e-07
sS'MSZoningRH'
p51
F-6.4046771337660814e-07
sS'MSSubClass'
p52
F-8.4019943412784671e-05
sS'FoundationCBlock'
p53
F-2.4267480674167922e-05
sS'FoundationPConc'
p54
F7.1730556680634972e-05
sS'BsmtFinType1GLQ'
p55
F1.9011538721338275e-05
sS'NeighborhoodNAmes'
p56
F-1.545911290427799e-05
sS'BsmtCondFa'
p57
F-7.9185234024846084e-06
sS'GarageTypeCarPort'
p58
F-9.9237723611491784e-07
sS'BsmtQualGd'
p59
F2.1123513625404917e-05
sS'NeighborhoodNWAmes'
p60
F-1.1806270922156745e-05
sS'HeatingFloor'
p61
F-6.3690913837509385e-08
sS'Exterior2ndWd Sdng'
p62
F-5.841760817985634e-06
sS'RemodAddAge'
p63
F-0.0021259574535166005
sS'PavedDriveN'
p64
F5.15991236418266e-06
sS'MiscFeatureGar2'
p65
F5.451010486828655e-06
sS'AlleyPave'
p66
F-9.7962233240495822e-07
sS'MasVnrTypeBrkCmn'
p67
F-3.8150863788033418e-06
sS'FireplaceQuEx'
p68
F2.3520974294966431e-06
sS'PavedDriveY'
p69
F4.8359796513217784e-06
sS'BldgTypeTwnhsE'
p70
F7.2915149131206571e-06
sS'PavedDriveP'
p71
F-1.1820851415865263e-06
sS'RoofMatlClyTile'
p72
F-1.3191632246792921e-06
sS'FoundationWood'
p73
F-4.3855790999453078e-07
sS'Exterior1stBrkFace'
p74
F-2.5217734956463084e-06
sS'SaleConditionAbnorml'
p75
F-1.9468603260429844e-05
sS'Condition2RRNn'
p76
F1.199673389706975e-08
sS'BsmtCondPo'
p77
F-3.7366985116576289e-07
sS'GarageTypeNA'
p78
F-6.7267766604170902e-06
sS'MiscFeatureOthr'
p79
F-4.7769317936777581e-07
sS'Condition1Feedr'
p80
F3.5384907302372015e-06
sS'GarageCondEx'
p81
F-2.1206928011460914e-07
sS'FoundationBrkTil'
p82
F-2.3485956928441004e-05
sS'GarageCondFa'
p83
F-3.8726688089250275e-06
sS'NeighborhoodVeenker'
p84
F1.1052927809574527e-06
sS'HeatingQCFa'
p85
F-9.0366227567099288e-06
sS'MSZoningFV'
p86
F1.0877630649843827e-05
sS'OverallCond'
p87
F5.4299330753030416e-05
sS'BsmtFinType2LwQ'
p88
F-6.391420812654554e-06
sS'SaleTypeConLw'
p89
F-2.0252641256188321e-07
sS'ExterCondTA'
p90
F1.0524035722051837e-05
sS'FireplaceQuTA'
p91
F1.4110604246280331e-06
sS'NeighborhoodMeadowV'
p92
F-2.345053591855378e-06
sS'MasVnrTypeBrkFace'
p93
F1.3750392933818233e-05
sS'GarageTypeAttchd'
p94
F2.04471851062478e-05
sS'BsmtExposureNA'
p95
F-6.788625908835975e-06
sS'ExterCondGd'
p96
F2.7100116187195438e-06
sS'NeighborhoodClearCr'
p97
F-1.8422554399135808e-07
sS'ElectricalFuseP'
p98
F-2.6373686101770828e-07
sS'BldgType2fmCon'
p99
F-1.0257388127752741e-05
sS'Fireplaces'
p100
F2.2404208744396193e-05
sS'LotFrontage'
p101
F0.00042196168567971856
sS'NeighborhoodNPkVill'
p102
F1.7578897870912247e-07
sS'Exterior2ndPlywood'
p103
F-1.2605115704596993e-05
sS'SaleTypeConLI'
p104
F-2.4826446795148606e-07
sS'FenceMnPrv'
p105
F-1.5205165842897066e-05
sS'Utilities'
p106
F9.4390436360675382e-06
sS'FunctionalMaj2'
p107
F-1.0139546196899276e-06
sS'ElectricalFuseA'
p108
F-1.7207211973053063e-05
sS'BsmtExposureNo'
p109
F-2.419994944280674e-05
sS'Condition2Artery'
p110
F-2.010956787070424e-07
sS'ElectricalFuseF'
p111
F-4.1075750555974243e-06
sS'TotRmsAbvGrd'
p112
F0.00020732268077258047
sS'PoolQCEx'
p113
F4.8411116180182594e-07
sS'Condition1RRNe'
p114
F5.3381254491482232e-07
sS'LotConfigCulDSac'
p115
F1.6935781234839915e-05
sS'SaleTypeConLD'
p116
F1.8726904200005544e-06
sS'Exterior1stVinylSd'
p117
F3.0780927292287051e-05
sS'HouseStyleSFoyer'
p118
F-3.2722133885080343e-06
sS'BsmtExposureGd'
p119
F6.5889882113189888e-06
sS'ExterQualFa'
p120
F-3.3027752531356276e-06
sS'RoofStyleHip'
p121
F2.8757510002607768e-05
sS'BsmtExposureMn'
p122
F-7.0087881117337113e-06
sS'GarageCondTA'
p123
F1.4025653730099581e-05
sS'NeighborhoodSawyerW'
p124
F-9.8984703093117445e-06
sS'YrSold'
p125
F0.0176706293838488
sS'Exterior1stBrkComm'
p126
F-4.9638922159480728e-07
sS'Exterior2ndHdBoard'
p127
F1.9353863064776445e-05
sS'HouseStyle2Story'
p128
F1.1343251994978617e-05
sS'NeighborhoodSawyer'
p129
F6.5965440155779937e-06
sS'NeighborhoodBlueste'
p130
F-1.3870811743591929e-07
sS'GarageTypeBuiltIn'
p131
F3.8964961506989115e-05
sS'GarageFinishNA'
p132
F-6.7267766604170902e-06
sS'MSZoningC (all)'
p133
F-2.745702442198863e-06
sS'BsmtQualTA'
p134
F-3.8832725120676811e-05
sS'FunctionalMin1'
p135
F-3.1532259944106011e-06
sS'Condition1RRNn'
p136
F4.2411956935925911e-07
sS'HeatingQCEx'
p137
F2.5551838979695443e-05
sS'LotShapeIR1'
p138
F6.8980558762944802e-05
sS'LotShapeIR2'
p139
F1.1644838112031599e-05
sS'Condition2Norm'
p140
F3.9771887207811689e-06
sS'HouseStyle1.5Unf'
p141
F-7.9512237300412036e-07
sS'HeatingGasA'
p142
F1.6879925780929292e-05
sS'Exterior2ndStucco'
p143
F-4.3394544628136326e-06
sS'MasVnrTypeNone'
p144
F-2.1663333840679946e-05
sS'GarageFinishRFn'
p145
F1.1154214629395528e-05
sS'Exterior1stWdShing'
p146
F-3.7307316241337343e-06
sS'FunctionalSev'
p147
F-2.4548920909273962e-07
sS'GarageArea'
p148
F0.029908910953079869
sS'LotConfigInside'
p149
F-5.0827933862589268e-05
sS'Exterior1stStone'
p150
F1.3706740529548282e-07
sS'HeatingGasW'
p151
F-3.4313678799783988e-06
sS'FunctionalMod'
p152
F8.7093643484084222e-06
sS'GarageQualEx'
p153
F7.5062420158461322e-07
sS'SaleConditionFamily'
p154
F-9.413731025860181e-06
sS'ElectricalNA'
p155
F8.3097996387512497e-08
sS'RoofStyleGable'
p156
F-3.0925012589089452e-05
sS'NeighborhoodMitchel'
p157
F3.1977240673773192e-07
sS'BldgTypeDuplex'
p158
F-4.285933667493263e-06
sS'BsmtFullBath'
p159
F1.2028752656577489e-06
sS'Condition2Feedr'
p160
F-9.7426738251222643e-07
sS'FireplaceQuFa'
p161
F7.5052816868357011e-06
sS'ExterQualEx'
p162
F1.8007753959090594e-05
sS'GarageTypeBasment'
p163
F-3.7664113390700316e-06
sS'Exterior2ndOther'
p164
F1.8944865209180514e-07
sS'LotArea'
p165
F-0.002645895871707393
sS'NeighborhoodSWISU'
p166
F-6.4642225987414951e-06
sS'BsmtFinType1Rec'
p167
F-1.0265783801050933e-05
sS'RoofMatlMetal'
p168
F5.1295917251228481e-07
sS'RoofMatlWdShngl'
p169
F1.4896717530238302e-06
sS'BsmtFinType2Unf'
p170
F1.968405632574939e-05
sS'GrLivArea'
p171
F0.047317067908438162
sS'PoolQCGd'
p172
F4.9188969724003739e-06
sS'NeighborhoodNridgHt'
p173
F1.9997778411411929e-05
sS'HouseStyle2.5Unf'
p174
F-1.3836277461790397e-06
sS'GarageFinishFin'
p175
F3.1531550544504808e-05
sS'KitchenQualFa'
p176
F-6.0432935548937175e-06
sS'Exterior2ndAsphShn'
p177
F-3.2228789681527228e-07
sS'LandContourLow'
p178
F-1.400898253359832e-05
sS'SaleTypeCOD'
p179
F-2.7992862972632178e-06
sS'MasVnrTypeNA'
p180
F-6.8605924314212784e-07
sS'NeighborhoodSomerst'
p181
F1.7288798140999551e-05
sS'FireplaceQuGd'
p182
F3.733860376484901e-05
sS'BsmtFinType1Unf'
p183
F1.5332437856969793e-05
sS'NeighborhoodNoRidge'
p184
F7.3930067001969313e-06
sS'X3SsnPorch'
p185
F0.00049233137069200979
sS'GarageTypeDetchd'
p186
F-2.7773618903258747e-05
sS'RoofStyleMansard'
p187
F9.1124952300474974e-08
sS'MoSold'
p188
F0.00024868135472996215
sS'Exterior2ndImStucc'
p189
F8.3428144106972692e-07
sS'GarageCondPo'
p190
F-8.0086478122164551e-07
sS'FireplaceQuNA'
p191
F-3.5505932875203673e-05
sS'HouseStyle2.5Fin'
p192
F-6.3052814118587402e-07
sS'SaleTypeNew'
p193
F2.3205342940240074e-05
sS'ExterQualGd'
p194
F4.4572578510959026e-05
sS'FunctionalMin2'
p195
F-9.1419479800259477e-06
sS'BsmtUnfSF'
p196
F0.0098013654884716375
sS'SaleTypeCon'
p197
F5.2301113808729307e-07
sS'LotConfigFR3'
p198
F2.0932606110184702e-07
sS'LotConfigFR2'
p199
F1.2085163357814541e-05
sS'HeatingQCGd'
p200
F-1.9705235827871054e-05
sS'Condition2PosN'
p201
F-5.8837788162543713e-07
sS'BsmtFinType2Rec'
p202
F4.5399070452967957e-06
sS'FenceMnWw'
p203
F-7.8215324839938697e-07
sS'RoofStyleShed'
p204
F6.1556569513585834e-06
sS'RoofMatlRoll'
p205
F-7.9596186390878216e-09
sS'BsmtCondTA'
p206
F1.8084209114269939e-05
sS'X2ndFlrSF'
p207
F0.017678806114072295
sS'PoolQCNA'
p208
F3.6074355739294418e-06
sS'SaleConditionNormal'
p209
F9.362156371562967e-06
sS'GarageFinishUnf'
p210
F-2.7145181639565363e-05
sS'KitchenQualGd'
p211
F2.5310940792860668e-05
sS'X1stFlrSF'
p212
F0.03077697375836199
sS'BsmtFinType1NA'
p213
F-7.3802925996544204e-06
sS'NeighborhoodOldTown'
p214
F-1.5541966396788208e-05
sS'PoolQCFa'
p215
F-1.9663683421369145e-07
sS'FoundationSlab'
p216
F-5.3948152616605076e-06
sS'NeighborhoodIDOTRR'
p217
F-5.4476197297281748e-06
sS'CentralAirN'
p218
F-2.0006157446727339e-05
sS'Condition2RRAe'
p219
F6.2264168008497208e-06
sS'GarageAge'
p220
F-0.0025122372273987609
sS'BsmtCondGd'
p221
F6.402083612952743e-06
sS'Exterior2ndMetalSd'
p222
F-7.8248986206511251e-06
sS'BldgType1Fam'
p223
F1.7231951625190434e-05
sS'GarageQualGd'
p224
F6.8135796339460642e-06
sS'MiscFeatureNA'
p225
F2.9563726818574189e-05
sS'LowQualFinSF'
p226
F-0.0011387119639960786
sS'Exterior1stPlywood'
p227
F-1.1051312056193714e-05
sS'NeighborhoodEdwards'
p228
F-2.3253655893549083e-06
sS'BsmtFinType1BLQ'
p229
F-1.4207779902110284e-05
sS'FireplaceQuPo'
p230
F-4.2873035566877545e-06
sS'HeatingQCPo'
p231
F-1.0035130249283819e-07
sS'Condition1PosN'
p232
F-5.4231533664591633e-07
sS'AlleyNA'
p233
F1.6022706160529713e-05
sS'KitchenQualTA'
p234
F-4.978670930417748e-05
sS'Exterior2ndVinylSd'
p235
F3.2468141043364449e-05
sS'LotConfigCorner'
p236
F3.0411470082750877e-05
sS'HalfBath'
p237
F2.7176601800887838e-05
sS'HouseStyleSLvl'
p238
F3.8538051349515808e-05
sS'LandContourBnk'
p239
F-3.552732511112991e-06
sS'NeighborhoodBrkSide'
p240
F-3.7597137320832316e-06
sS'GarageQualNA'
p241
F-6.7267766604170902e-06
sS'Exterior2ndBrk Cmn'
p242
F-5.2255849334416153e-07
sS'BsmtFinType2BLQ'
p243
F-7.745148745112518e-06
sS'LandSlopeGtl'
p244
F2.3385164989740637e-05
sS'WoodDeckSF'
p245
F0.01756759267289279
sS'HouseStyle1.5Fin'
p246
F-3.4557768770540596e-05
sS'BsmtQualNA'
p247
F-7.3802925996544204e-06
sS'MasVnrArea'
p248
F0.018206027764087369
sS'Exterior1stCBlock'
p249
F-1.7929884893513599e-07
sS'HeatingGrav'
p250
F-1.0561103025409595e-06
sS'Condition2PosA'
p251
F3.6194556123468141e-07
sS'FenceGdWo'
p252
F-3.7520637582645869e-06
sS'Condition1PosA'
p253
F-3.0904984014253826e-07
sS'ExterCondEx'
p254
F4.8707831407086486e-07
sS'NeighborhoodBrDale'
p255
F-1.3611578959976625e-06
sS'HeatingOthW'
p256
F-5.2427821144123508e-07
sS'Exterior1stHdBoard'
p257
F3.8380253953124157e-06
sS'GarageQualFa'
p258
F-4.4821869898713819e-07
sS'BsmtFinType1ALQ'
p259
F6.8676143603519978e-06
sS'HouseStyle1Story'
p260
F-4.2823605115882e-07
sS'FenceGdPrv'
p261
F-5.7999778401835017e-06
sS'SaleTypeWD'
p262
F-1.3394750537011778e-05
sS'FenceNA'
p263
F3.4353167563662206e-05
sS'TotalBsmtSF'
p264
F0.033158613308716903
sS'GarageType2Types'
p265
F-1.1339155600458287e-05
sS'Exterior2ndBrkFace'
p266
F-4.633083050398556e-06
sS'RoofMatlMembran'
p267
F-7.6174486781410281e-09
sS'ExterQualTA'
p268
F-5.0463750342995996e-05
sS'Exterior1stAsbShng'
p269
F-2.3531585209433517e-06
sS'KitchenQualEx'
p270
F3.9332868940128533e-05
sS'GarageCondGd'
p271
F6.4005326744967007e-06
sS'RoofMatlWdShake'
p272
F-1.5283298604027883e-07
sS'SaleTypeCWD'
p273
F1.0763402269932905e-07
sS'SaleConditionPartial'
p274
F2.5886132840991844e-05
sS'HeatingQCTA'
p275
F1.2104177781296303e-05
sS'LandContourLvl'
p276
F1.1214041650843622e-05
sS'SaleConditionAlloca'
p277
F2.9312372926319685e-06
sS'Exterior1stStucco'
p278
F-3.2860858482017015e-06
sS'LandSlopeMod'
p279
F-5.9662673219733326e-06
sS'BsmtFinType2NA'
p280
F-7.2079305878219753e-06
sS'BsmtFinSF1'
p281
F0.022006103373271552
sS'BsmtFinSF2'
p282
F0.0013511444469735947
sS'LotShapeIR3'
p283
F-2.1845938311264595e-06
sS'GarageQualPo'
p284
F8.7214470542635895e-08
sS'RoofMatlTar&Grv'
p285
F5.3875153548208038e-06
sS'ScreenPorch'
p286
F0.0013546105648458177
sS'BedroomAbvGr'
p287
F2.4236749073424491e-05
sS'Exterior2ndWd Shng'
p288
F7.3431626893476231e-06
sS'BsmtFinType2ALQ'
p289
F6.4841387087627901e-06
sS'AlleyGrvl'
p290
F-6.2292769542068961e-06
sS'Id'
p291
F8.8138068739179796e-06
sS'Condition1RRAe'
p292
F-6.7856705624745155e-07
sS'CentralAirY'
p293
F2.8819964320645237e-05
sS'GarageCondNA'
p294
F-6.7267766604170902e-06
sS'FunctionalTyp'
p295
F1.8410473366364442e-05
sS'SaleConditionAdjLand'
p296
F-4.8338534497874571e-07
sS'Exterior1stAsphShn'
p297
F-1.7939923801318713e-07
sS'MiscFeatureTenC'
p298
F-1.5854578048252311e-07
sS'GarageCars'
p299
F0.00011513194923148491
sS'BsmtQualEx'
p300
F3.7749844915258269e-05
sS'Condition1RRAn'
p301
F-2.4817117437842261e-07
sS'NeighborhoodStoneBr'
p302
F1.9750693167065412e-05
sS'MiscVal'
p303
F0.0055107634242486537
sS'FoundationStone'
p304
F-9.3299390324532392e-06
saI1
I5
t.