((lp1
ccollections
defaultdict
p2
(c__builtin__
int
p3
tRp4
S'RoofStyleFlat'
p5
F8.1378420391988994e-06
sS'Condition1Artery'
p6
F-1.0347339664310649e-05
sS'Exterior1stCemntBd'
p7
F4.9325243219646005e-06
sS'NeighborhoodGilbert'
p8
F1.6529019704093179e-05
sS'BsmtCondNA'
p9
F-7.5694728087166718e-06
sS'FenceMnPrv'
p10
F-1.7065867277717141e-05
sS'OpenPorchSF'
p11
F0.0055716089367466564
sS'NeighborhoodCrawfor'
p12
F3.5515224904320006e-06
sS'LotShapeReg'
p13
F-3.7335176600316863e-05
sS'BsmtCondFa'
p14
F-9.7454339469130007e-06
sS'GarageCars'
p15
F0.00011606523077902264
sS'GarageFinishUnf'
p16
F-3.8738421161882436e-05
sS'Exterior1stMetalSd'
p17
F5.5151353569281277e-06
sS'HouseAge'
p18
F-0.0034772408423685624
sS'Exterior2ndCmentBd'
p19
F5.6369110306858356e-06
sS'LandContourHLS'
p20
F4.6649531495995888e-06
sS'RoofStyleGambrel'
p21
F-1.3667934045464754e-06
sS'Exterior2ndAsbShng'
p22
F-2.9455041704707899e-06
sS'EnclosedPorch'
p23
F-0.0049199602112613731
sS'NeighborhoodBlmngtn'
p24
F1.8797831512333713e-06
sS'Unnamed: 0'
p25
F-0.0023234377683923999
sS'Exterior2ndStone'
p26
F-1.8326702865059208e-06
sS'MasVnrTypeStone'
p27
F2.0542775291838708e-05
sS'LotFrontage'
p28
F0.001641744460059802
sS'MiscFeatureShed'
p29
F-2.1938284349474812e-05
sS'BsmtHalfBath'
p30
F1.2467010925411361e-05
sS'KitchenAbvGr'
p31
F-1.2841548035296404e-05
sS'Exterior1stWd Sdng'
p32
F-3.3171549104025006e-06
sS'SaleConditionAdjLand'
p33
F-5.2118765932033833e-07
sS'BsmtFinType2GLQ'
p34
F2.0181686197109803e-07
sS'NeighborhoodTimber'
p35
F1.8019827354128454e-06
sS'FunctionalTyp'
p36
F1.7695442020280698e-05
sS'AlleyNA'
p37
F1.8129042858113944e-05
sS'TotalBsmtSF'
p38
F0.034138844424027537
sS'BsmtQualFa'
p39
F-5.2960740967689679e-06
sS'GarageQualTA'
p40
F1.1202435534971236e-05
sS'RoofMatlCompShg'
p41
F-1.0447125776462448e-06
sS'ElectricalSBrkr'
p42
F3.2382500914035636e-05
sS'HouseStyleSLvl'
p43
F2.8810878621743043e-05
sS'FoundationStone'
p44
F-5.7277795261631717e-07
sS'PoolArea'
p45
F0.0061835145758699292
sS'FullBath'
p46
F4.5186903724259107e-05
sS'BsmtFinType1LwQ'
p47
F-2.7949372272197099e-06
sS'MSZoningRM'
p48
F-2.1249910097754418e-05
sS'MSZoningRL'
p49
F2.4266899397126763e-05
sS'NeighborhoodCollgCr'
p50
F-4.0526781820815286e-06
sS'Exterior1stImStucc'
p51
F-3.3418049060084295e-07
sS'MSZoningRH'
p52
F-1.7697468946885669e-06
sS'MSSubClass'
p53
F-0.00032935394768279997
sS'FoundationCBlock'
p54
F-3.7407092944049913e-05
sS'Exterior2ndBrkFace'
p55
F-6.1103209710463604e-06
sS'HeatingQCTA'
p56
F-8.6971417666975327e-06
sS'FoundationPConc'
p57
F7.1243767842902564e-05
sS'BsmtFinType1GLQ'
p58
F3.1739808942262726e-05
sS'NeighborhoodNAmes'
p59
F-1.2229320590345494e-05
sS'BsmtQualGd'
p60
F-1.9584228864149123e-06
sS'NeighborhoodNWAmes'
p61
F-1.3710331641016418e-05
sS'Condition1PosN'
p62
F6.7263127130089762e-07
sS'Exterior2ndWd Sdng'
p63
F-9.9440037035790592e-06
sS'RemodAddAge'
p64
F-0.0028356668557879242
sS'PavedDriveN'
p65
F-1.2053408073436989e-06
sS'RoofStyleShed'
p66
F-4.5506642591765331e-08
sS'BsmtCondPo'
p67
F-2.9888637307766934e-07
sS'GarageCondEx'
p68
F-1.5320939711505269e-07
sS'NeighborhoodSWISU'
p69
F-6.4429236169876649e-06
sS'Exterior1stVinylSd'
p70
F4.0497928452359288e-05
sS'PavedDriveY'
p71
F1.07744462746567e-05
sS'BldgTypeTwnhsE'
p72
F1.0727373736835475e-05
sS'GarageTypeBuiltIn'
p73
F2.3785424145200648e-05
sS'Exterior1stBrkFace'
p74
F-4.3378314361027031e-06
sS'SaleConditionAbnorml'
p75
F-1.4027488763970214e-05
sS'Condition2RRNn'
p76
F-2.9649463202487142e-08
sS'GarageQualGd'
p77
F8.9891528879934995e-06
sS'Exterior1stStucco'
p78
F-3.516307093208921e-06
sS'AlleyPave'
p79
F-2.5418483670861858e-06
sS'HeatingFloor'
p80
F-9.6929800774855745e-08
sS'HeatingQCFa'
p81
F-1.0189697366364933e-05
sS'GarageTypeCarPort'
p82
F-1.2391386153387176e-06
sS'OverallCond'
p83
F0.00011434886398821266
sS'BsmtFinType2LwQ'
p84
F1.0626034685986453e-06
sS'SaleTypeConLw'
p85
F-6.7481818094576691e-08
sS'ExterCondTA'
p86
F-8.2829487626639353e-06
sS'LotConfigCorner'
p87
F2.273845496618084e-05
sS'RoofStyleHip'
p88
F3.2239098690940492e-05
sS'MasVnrTypeBrkFace'
p89
F1.2911088461504007e-05
sS'GarageTypeAttchd'
p90
F3.8397314536199473e-05
sS'BsmtExposureNA'
p91
F-7.019495834127228e-06
sS'GrLivArea'
p92
F0.050287165785513496
sS'Exterior2ndCBlock'
p93
F-1.8256564373555319e-07
sS'ElectricalFuseP'
p94
F-2.7118960809127753e-07
sS'BldgType2fmCon'
p95
F-1.0366325178903819e-05
sS'Fireplaces'
p96
F5.5125093029572081e-05
sS'GarageFinishRFn'
p97
F2.078372639171431e-05
sS'NeighborhoodNPkVill'
p98
F5.6957814041053519e-07
sS'MiscVal'
p99
F-0.00069416171954355852
sS'SaleTypeConLI'
p100
F-6.1034778412554814e-08
sS'FunctionalMaj1'
p101
F-4.1379873258272095e-06
sS'OverallQual'
p102
F0.0002700936090919023
sS'FunctionalMaj2'
p103
F-7.5193330304146136e-07
sS'ElectricalFuseA'
p104
F-2.0134792913615758e-05
sS'MiscFeatureOthr'
p105
F-3.0778204888272044e-07
sS'Condition2Artery'
p106
F-6.1801643625780757e-07
sS'ElectricalFuseF'
p107
F-4.8271727171619452e-06
sS'TotRmsAbvGrd'
p108
F0.00012869967282851401
sS'ElectricalMix'
p109
F-2.9888637307766934e-07
sS'Condition1RRNe'
p110
F1.6794831314715513e-07
sS'LotConfigCulDSac'
p111
F1.5726560616188856e-05
sS'FireplaceQuEx'
p112
F8.1234426464859427e-06
sS'HouseStyleSFoyer'
p113
F-1.3627995808424751e-06
sS'BsmtExposureGd'
p114
F1.0282596091607717e-05
sS'NeighborhoodMeadowV'
p115
F-2.0092313962003183e-06
sS'NeighborhoodNridgHt'
p116
F2.938031415598195e-05
sS'GarageCondTA'
p117
F1.7354345306609397e-05
sS'NeighborhoodSawyerW'
p118
F-1.3520430217287333e-05
sS'FoundationBrkTil'
p119
F-2.0569635760244179e-05
sS'ExterQualTA'
p120
F-5.3104103008170677e-05
sS'Exterior1stBrkComm'
p121
F-4.6374409484669924e-07
sS'Exterior2ndHdBoard'
p122
F-1.6967217470092659e-06
sS'HouseStyle2Story'
p123
F1.4723272159462801e-05
sS'SaleTypeOth'
p124
F-6.9812715641123341e-07
sS'NeighborhoodBlueste'
p125
F-1.3587561182973339e-08
sS'PoolQCFa'
p126
F-1.4934293899729862e-08
sS'PavedDriveP'
p127
F-2.6430289000491459e-06
sS'Condition2RRAn'
p128
F-4.5695955673502117e-07
sS'GarageFinishNA'
p129
F-1.2945700252342879e-05
sS'MSZoningC (all)'
p130
F-3.2306543872277202e-06
sS'MiscFeatureGar2'
p131
F7.4877815290049225e-07
sS'Condition1RRNn'
p132
F3.7859032246812833e-07
sS'Exterior2ndMetalSd'
p133
F6.1117177372868737e-06
sS'LotShapeIR1'
p134
F4.389445366509196e-05
sS'LotShapeIR2'
p135
F3.1917734278452816e-06
sS'Condition2Norm'
p136
F8.326540763056373e-06
sS'HouseStyle1.5Unf'
p137
F-1.378485712720215e-06
sS'HeatingGasA'
p138
F1.618204752913762e-05
sS'Exterior2ndStucco'
p139
F-4.0845313224168693e-06
sS'Condition1Norm'
p140
F2.0655912272596923e-05
sS'NeighborhoodSawyer'
p141
F-2.2290813836581818e-06
sS'Exterior1stWdShing'
p142
F-3.4632163508412239e-06
sS'Exterior1stPlywood'
p143
F-8.1235161730830646e-06
sS'GarageArea'
p144
F0.027840442441816049
sS'LotConfigInside'
p145
F-3.9291344356534634e-05
sS'Exterior1stStone'
p146
F2.0941331544068591e-07
sS'HeatingGasW'
p147
F-3.89248442417839e-06
sS'FunctionalMod'
p148
F-2.6512532892704273e-06
sS'GarageQualEx'
p149
F7.9593977618207519e-07
sS'Condition2PosN'
p150
F4.2752704589238536e-07
sS'SaleConditionFamily'
p151
F-6.7670412087613714e-07
sS'RoofStyleGable'
p152
F-3.1950821653521748e-05
sS'X3SsnPorch'
p153
F0.00028735497557410493
sS'BldgTypeDuplex'
p154
F-1.2120820633064656e-05
sS'BsmtFullBath'
p155
F7.8421720068046876e-06
sS'ExterQualEx'
p156
F2.3871068500404011e-05
sS'GarageTypeDetchd'
p157
F-3.5894578696061108e-05
sS'Exterior2ndOther'
p158
F2.663312526852187e-07
sS'LotArea'
p159
F-0.0027591678763644657
sS'MasVnrTypeBrkCmn'
p160
F-3.0183681625420986e-06
sS'BsmtFinType1Rec'
p161
F-1.495846124952185e-05
sS'KitchenQualTA'
p162
F-5.9523960633025322e-05
sS'GarageCondNA'
p163
F-1.2945700252342879e-05
sS'ExterCondGd'
p164
F1.99307273749729e-05
sS'PoolQCGd'
p165
F7.4344892176910661e-06
sS'RoofMatlMetal'
p166
F4.6064247074012626e-07
sS'HouseStyle2.5Unf'
p167
F-1.6003089387893788e-06
sS'GarageFinishFin'
p168
F3.7826471589774969e-05
sS'KitchenQualFa'
p169
F-6.0149027475467391e-06
sS'Exterior2ndAsphShn'
p170
F-2.8236746862938416e-07
sS'LandContourLow'
p171
F-1.5300099732569089e-05
sS'SaleTypeCOD'
p172
F-6.4470555706445667e-06
sS'FireplaceQuGd'
p173
F3.5864448287018706e-05
sS'Condition2Feedr'
p174
F-1.0055823207264726e-06
sS'NeighborhoodNoRidge'
p175
F1.1295488342617732e-05
sS'BsmtFinType1NA'
p176
F-7.5694728087166718e-06
sS'MasVnrTypeNA'
p177
F-4.6215189509291452e-07
sS'BsmtFinSF1'
p178
F0.023173130431260368
sS'MoSold'
p179
F0.0002928215218648865
sS'Exterior2ndImStucc'
p180
F1.211668875325687e-06
sS'BldgTypeTwnhs'
p181
F-2.1404847235731269e-06
sS'HouseStyle2.5Fin'
p182
F-1.1531428961765047e-06
sS'FoundationWood'
p183
F-3.00650783355245e-07
sS'BsmtFinType1Unf'
p184
F1.7857353146032699e-05
sS'BsmtUnfSF'
p185
F0.0098321109644640848
sS'Condition1RRAn'
p186
F-8.5719729734835539e-07
sS'LotConfigFR3'
p187
F2.9147864731205872e-07
sS'LotConfigFR2'
p188
F7.4609266941166827e-06
sS'HeatingQCGd'
p189
F-5.6460870663878491e-06
sS'GarageCondFa'
p190
F-4.7515551703665164e-06
sS'BsmtFinType2Rec'
p191
F-2.9704106976123156e-06
sS'FenceMnWw'
p192
F-1.4048811567225764e-06
sS'GarageTypeBasment'
p193
F-3.9303719789713413e-06
sS'RoofMatlRoll'
p194
F-1.0582732541411414e-07
sS'ExterQualFa'
p195
F-3.0509523442721428e-06
sS'X2ndFlrSF'
p196
F0.019723039131674253
sS'RoofMatlTar&Grv'
p197
F7.7242892483554454e-06
sS'PoolQCNA'
p198
F-1.2039454519925793e-06
sS'SaleConditionNormal'
p199
F-1.4231030101510268e-05
sS'ExterCondFa'
p200
F-4.6125864413035986e-06
sS'KitchenQualGd'
p201
F3.3981093419850549e-05
sS'X1stFlrSF'
p202
F0.0320921757931329
sS'FenceGdWo'
p203
F-5.254242800725581e-06
sS'NeighborhoodOldTown'
p204
F-1.0820641886876267e-05
sS'SaleTypeNew'
p205
F2.7966251330163962e-05
sS'ScreenPorch'
p206
F0.0030710701199150202
sS'HeatingGrav'
p207
F-1.0863657633254685e-06
sS'FoundationSlab'
p208
F-5.4675338353730483e-06
sS'RoofMatlWdShngl'
p209
F1.1341742694429265e-06
sS'BedroomAbvGr'
p210
F1.2164416396135922e-05
sS'Exterior2ndWd Shng'
p211
F-3.3654274581688169e-06
sS'BsmtFinType2Unf'
p212
F1.7477733509099433e-05
sS'MSZoningFV'
p213
F8.9094885498078042e-06
sS'BsmtCondGd'
p214
F1.4579835123879098e-05
sS'Utilities'
p215
F7.6990818056011728e-06
sS'BldgType1Fam'
p216
F2.0826333365970008e-05
sS'MiscFeatureNA'
p217
F2.8423550296871441e-05
sS'LowQualFinSF'
p218
F-0.0015280491392935054
sS'LandSlopeSev'
p219
F1.8807660600098338e-06
sS'NeighborhoodEdwards'
p220
F-2.1108622883282121e-07
sS'BsmtFinType1BLQ'
p221
F-5.0977778802444587e-07
sS'FireplaceQuPo'
p222
F-4.9241884356884437e-06
sS'HeatingQCPo'
p223
F-1.0615017030079298e-07
sS'FunctionalSev'
p224
F-3.3846487790470058e-07
sS'Exterior2ndPlywood'
p225
F-1.7249610497983804e-05
sS'NeighborhoodIDOTRR'
p226
F-6.8999116140618992e-06
sS'BsmtExposureAv'
p227
F3.2393721853568869e-05
sS'Condition1Feedr'
p228
F-3.5748538750750631e-06
sS'Exterior2ndVinylSd'
p229
F4.1635082624854309e-05
sS'LandContourLvl'
p230
F2.4500617113040942e-05
sS'ExterQualGd'
p231
F3.9210063419302761e-05
sS'HalfBath'
p232
F2.7888502146119537e-05
sS'PoolQCEx'
p233
F7.1046709546507168e-07
sS'LandContourBnk'
p234
F-6.9393939628075628e-06
sS'NeighborhoodBrkSide'
p235
F-5.8837654808639393e-06
sS'GarageQualNA'
p236
F-1.2945700252342879e-05
sS'Exterior2ndBrk Cmn'
p237
F-2.4191168402834807e-07
sS'Condition1PosA'
p238
F7.9717047692982784e-08
sS'Id'
p239
F6.9260765672638049e-06
sS'ElectricalNA'
p240
F7.561726517483745e-08
sS'WoodDeckSF'
p241
F0.012739470213405981
sS'HouseStyle1.5Fin'
p242
F-2.8539169346415426e-05
sS'BsmtQualNA'
p243
F-7.5694728087166718e-06
sS'FireplaceQuNA'
p244
F-3.8873251311734564e-05
sS'HeatingWall'
p245
F-3.6770249640818988e-06
sS'LandSlopeGtl'
p246
F1.8752834074288138e-05
sS'Condition2PosA'
p247
F2.8221653523682991e-07
sS'BsmtFinSF2'
p248
F0.0011336030283031304
sS'MasVnrTypeNone'
p249
F-2.3047267128443851e-05
sS'SaleTypeCon'
p250
F5.835629305530293e-07
sS'ExterCondEx'
p251
F3.3519493374662558e-07
sS'NeighborhoodBrDale'
p252
F-1.8797861773648704e-06
sS'HeatingOthW'
p253
F-5.0316600951309884e-07
sS'Exterior1stHdBoard'
p254
F-1.7740080379303998e-05
sS'GarageQualFa'
p255
F-8.4835331431662139e-07
sS'BsmtFinType1ALQ'
p256
F-1.6838436447548851e-05
sS'HouseStyle1Story'
p257
F-2.5741677389979619e-06
sS'BsmtExposureMn'
p258
F-2.2786724783098131e-06
sS'SaleTypeWD'
p259
F-1.591721096331416e-05
sS'NeighborhoodMitchel'
p260
F-4.0372480250649989e-06
sS'ExterCondPo'
p261
F-4.4431053748814342e-07
sS'GarageType2Types'
p262
F-1.2468725714222231e-06
sS'BsmtExposureNo'
p263
F-2.6452073065475769e-05
sS'FunctionalMin1'
p264
F-4.628146125176194e-06
sS'MiscFeatureTenC'
p265
F-1.8548415056669745e-10
sS'YrSold'
p266
F0.013866108061963879
sS'FunctionalMin2'
p267
F1.7384194682031967e-06
sS'Exterior1stAsbShng'
p268
F-2.5568120434489613e-06
sS'MasVnrArea'
p269
F0.01968248299375731
sS'KitchenQualEx'
p270
F3.8483846527985307e-05
sS'RoofMatlClyTile'
p271
F-1.1848766450619699e-06
sS'Exterior1stCBlock'
p272
F-1.8256564373555319e-07
sS'SaleTypeCWD'
p273
F4.8590083756790472e-07
sS'SaleConditionPartial'
p274
F3.0542111252819274e-05
sS'FireplaceQuTA'
p275
F9.7156855899820239e-06
sS'BsmtQualTA'
p276
F-2.8860551225658931e-05
sS'GarageCondGd'
p277
F8.6890872691879996e-06
sS'SaleConditionAlloca'
p278
F5.8403759601215611e-06
sS'FenceGdPrv'
p279
F6.8179551666771613e-06
sS'LandSlopeMod'
p280
F-1.3707523567034004e-05
sS'BsmtFinType2NA'
p281
F-7.4010063284951077e-06
sS'RoofStyleMansard'
p282
F-8.774246221551111e-08
sS'HeatingQCEx'
p283
F3.156515293701492e-05
sS'FenceNA'
p284
F2.3833112635751983e-05
sS'LotShapeIR3'
p285
F-2.8249739253565744e-06
sS'GarageQualPo'
p286
F-2.6739806522343098e-07
sS'RoofMatlWdShake'
p287
F-5.7612873152339739e-08
sS'SaleTypeConLD'
p288
F1.0812717558560944e-06
sS'CentralAirN'
p289
F-2.3699760309696727e-05
sS'BsmtCondTA'
p290
F9.9600345720920962e-06
sS'NeighborhoodStoneBr'
p291
F8.8624122326391774e-06
sS'AlleyGrvl'
p292
F-8.6611179237639058e-06
sS'BsmtFinType2BLQ'
p293
F-8.1861764371313245e-06
sS'Condition1RRAe'
p294
F-2.4933182320812253e-07
sS'CentralAirY'
p295
F3.0625836876960525e-05
sS'GarageTypeNA'
p296
F-1.2945700252342879e-05
sS'NeighborhoodClearCr'
p297
F2.1459641585032071e-06
sS'GarageCondPo'
p298
F-1.2668911887090465e-06
sS'GarageAge'
p299
F-0.0015477035526621726
sS'NeighborhoodSomerst'
p300
F1.3082450215965875e-05
sS'BsmtQualEx'
p301
F5.0610597584823447e-05
sS'NeighborhoodVeenker'
p302
F1.7675852417986997e-06
sS'BsmtFinType2ALQ'
p303
F6.7415161908335018e-06
sS'FireplaceQuFa'
p304
F-2.9800602087996983e-06
sS'Exterior1stAsphShn'
p305
F-1.9351626385449104e-07
sag2
(g3
tRp306
S'RoofStyleFlat'
p307
F-1.1900906350245165e-05
sS'MiscFeatureOthr'
p308
F-1.5179238418261769e-07
sS'Condition1Artery'
p309
F-5.2309253213716984e-06
sS'Exterior1stCemntBd'
p310
F7.6833332567353708e-07
sS'NeighborhoodGilbert'
p311
F-7.1495100646512701e-06
sS'BsmtCondNA'
p312
F2.3055619769889882e-06
sS'FunctionalMaj1'
p313
F-9.8764443074888345e-06
sS'OpenPorchSF'
p314
F-0.0018945874126493564
sS'NeighborhoodCrawfor'
p315
F-2.1556452996023961e-06
sS'LotShapeReg'
p316
F9.4599746574419673e-06
sS'OverallQual'
p317
F0.00014832325504823647
sS'ExterCondFa'
p318
F-4.0574508804718687e-06
sS'Exterior1stMetalSd'
p319
F1.049775383802818e-05
sS'HouseAge'
p320
F-0.0035731560638781481
sS'Exterior2ndCmentBd'
p321
F1.6810741574699701e-06
sS'LandContourHLS'
p322
F2.4575954716448726e-06
sS'RoofStyleGambrel'
p323
F-9.5062953448366824e-07
sS'Exterior2ndCBlock'
p324
F-2.6908769163977814e-07
sS'HeatingWall'
p325
F2.4299813035130068e-06
sS'Exterior2ndAsbShng'
p326
F-3.2712089325490115e-06
sS'EnclosedPorch'
p327
F-0.0048693409364921007
sS'NeighborhoodBlmngtn'
p328
F-1.0627015209467561e-06
sS'Unnamed: 0'
p329
F-0.0066992118490682264
sS'Exterior2ndStone'
p330
F-5.6818337691477526e-06
sS'MasVnrTypeStone'
p331
F1.7137260314906762e-05
sS'LotFrontage'
p332
F0.0052489416758141547
sS'MiscFeatureShed'
p333
F3.3744863119447158e-06
sS'BsmtHalfBath'
p334
F1.300286989784461e-05
sS'KitchenAbvGr'
p335
F-2.336664172690666e-05
sS'Exterior1stWd Sdng'
p336
F-4.021461456156479e-05
sS'BsmtFinType2GLQ'
p337
F-2.8922774981714383e-06
sS'NeighborhoodMitchel'
p338
F-2.1206673177486698e-06
sS'ExterCondPo'
p339
F-4.2789188570859612e-07
sS'BsmtQualFa'
p340
F-1.6800148450377565e-06
sS'GarageQualTA'
p341
F3.1508915909351628e-05
sS'RoofMatlCompShg'
p342
F7.4963079463716522e-06
sS'ElectricalSBrkr'
p343
F7.6733521587995402e-06
sS'SaleTypeOth'
p344
F-5.3176906219963184e-07
sS'HouseStyleSLvl'
p345
F-8.2715736972048129e-06
sS'LandSlopeSev'
p346
F-3.5816494916774538e-06
sS'NeighborhoodNWAmes'
p347
F1.1312996129683506e-05
sS'FullBath'
p348
F1.9625707215908366e-05
sS'BsmtFinType1LwQ'
p349
F-4.1630781638144235e-06
sS'MSZoningRM'
p350
F-4.353659505529414e-05
sS'MSZoningRL'
p351
F4.5297173560293026e-05
sS'NeighborhoodCollgCr'
p352
F3.6682497110245334e-05
sS'Exterior1stImStucc'
p353
F4.9356417077206956e-09
sS'MSZoningRH'
p354
F-3.2126132779169256e-06
sS'MSSubClass'
p355
F-0.0058860451859952595
sS'FoundationCBlock'
p356
F1.7321761875364656e-06
sS'FoundationPConc'
p357
F8.2248248674431635e-06
sS'BsmtFinType1GLQ'
p358
F3.4663224184770618e-05
sS'NeighborhoodNAmes'
p359
F-3.3888735480286731e-05
sS'BsmtCondFa'
p360
F-7.8696636727331948e-06
sS'GarageTypeCarPort'
p361
F-3.9344844651230987e-07
sS'BsmtQualGd'
p362
F2.8489697759888664e-06
sS'PoolArea'
p363
F-0.0090668154092260287
sS'HeatingFloor'
p364
F9.6125926684859271e-08
sS'Exterior2ndWd Sdng'
p365
F-1.7845686881680473e-05
sS'RemodAddAge'
p366
F-0.0024411842310265749
sS'PavedDriveN'
p367
F-1.5886694061873624e-05
sS'GarageQualGd'
p368
F-1.0446560342018697e-05
sS'AlleyPave'
p369
F-3.4662359816506741e-06
sS'NeighborhoodSWISU'
p370
F-5.7331668751367194e-06
sS'FireplaceQuEx'
p371
F3.8706812667726436e-06
sS'PavedDriveY'
p372
F1.1839578735241929e-05
sS'Exterior1stAsbShng'
p373
F-2.9423925570542821e-06
sS'GarageTypeBuiltIn'
p374
F2.5366766001813958e-05
sS'RoofMatlClyTile'
p375
F-1.1374372924580986e-06
sS'Exterior1stBrkFace'
p376
F7.9497692186883689e-06
sS'SaleConditionAbnorml'
p377
F-1.9230634112418685e-05
sS'Condition2RRNn'
p378
F1.2292048306347244e-07
sS'BsmtCondPo'
p379
F-1.9998891316426892e-07
sS'Exterior1stStucco'
p380
F-2.0329102384972364e-06
sS'FunctionalMod'
p381
F-3.1954818443482453e-06
sS'FunctionalSev'
p382
F-3.271065918635738e-07
sS'GarageCondEx'
p383
F-1.1566031143173434e-07
sS'FoundationBrkTil'
p384
F-1.4265394314464479e-05
sS'GarageCondFa'
p385
F-1.8801664634926151e-06
sS'HeatingQCFa'
p386
F-1.2387864994673406e-06
sS'MSZoningFV'
p387
F9.2977688757832687e-07
sS'OverallCond'
p388
F1.9675819609141637e-05
sS'GarageCondNA'
p389
F-1.0994616763827334e-05
sS'MasVnrTypeBrkCmn'
p390
F-3.8780443163893736e-06
sS'BsmtFinType2LwQ'
p391
F2.4383552221801451e-06
sS'BldgTypeTwnhsE'
p392
F-7.3193507605721012e-06
sS'ExterCondTA'
p393
F-1.1376247802810922e-05
sS'Condition1Norm'
p394
F1.1657130276307988e-06
sS'NeighborhoodMeadowV'
p395
F-3.9021108904288576e-06
sS'MasVnrTypeBrkFace'
p396
F-8.6969989425183085e-06
sS'GarageTypeAttchd'
p397
F2.573204121724578e-05
sS'BsmtExposureNA'
p398
F3.1136176719555336e-06
sS'ExterCondGd'
p399
F1.2371901344850407e-05
sS'NeighborhoodClearCr'
p400
F-5.9274970426231254e-06
sS'ElectricalFuseP'
p401
F-1.8438160325490001e-07
sS'BldgType2fmCon'
p402
F-1.2409650397110602e-05
sS'Fireplaces'
p403
F-2.1590601307618591e-05
sS'NeighborhoodNPkVill'
p404
F-1.3305667016366251e-06
sS'MiscVal'
p405
F-4.6209322144199036e-05
sS'SaleTypeConLI'
p406
F1.2065987824294528e-07
sS'FenceMnPrv'
p407
F1.943227647758871e-05
sS'Utilities'
p408
F-2.6882174307661611e-06
sS'FunctionalMaj2'
p409
F-5.9031282289423324e-07
sS'ElectricalFuseA'
p410
F-6.4489008713307677e-06
sS'BsmtExposureNo'
p411
F-4.0468852777622897e-05
sS'Condition2Artery'
p412
F-5.9860810767186945e-07
sS'ElectricalFuseF'
p413
F-3.88682318894333e-06
sS'TotRmsAbvGrd'
p414
F-7.3444391602491803e-06
sS'ElectricalMix'
p415
F-1.9998891316426892e-07
sS'Condition1RRNe'
p416
F5.7837484827239494e-08
sS'LotConfigCulDSac'
p417
F-1.2403865762544378e-05
sS'KitchenQualFa'
p418
F-4.0562088120012574e-06
sS'SaleTypeConLD'
p419
F2.939798468977344e-06
sS'Exterior1stVinylSd'
p420
F1.9615577170565506e-05
sS'HouseStyleSFoyer'
p421
F-2.4727962852369425e-06
sS'BsmtExposureGd'
p422
F2.5955036149494003e-05
sS'ExterQualFa'
p423
F-2.1050042818150155e-06
sS'RoofStyleHip'
p424
F-4.3229033630162378e-06
sS'NeighborhoodNridgHt'
p425
F1.5073627768978461e-05
sS'GarageCondTA'
p426
F2.3672742165549604e-05
sS'NeighborhoodSawyerW'
p427
F8.2714928386275108e-06
sS'YrSold'
p428
F-0.0057531924146957637
sS'Exterior1stBrkComm'
p429
F-4.0976940977453833e-07
sS'Exterior2ndHdBoard'
p430
F1.5699861533863561e-05
sS'HouseStyle2Story'
p431
F9.7854565987404712e-06
sS'NeighborhoodSawyer'
p432
F1.5553056125890724e-05
sS'NeighborhoodBlueste'
p433
F-3.7367763157412817e-07
sS'PavedDriveP'
p434
F1.1687707611429858e-06
sS'MiscFeatureGar2'
p435
F-1.2721539542984838e-08
sS'GarageFinishNA'
p436
F-1.0994616763827334e-05
sS'LotConfigCorner'
p437
F-1.2009144729491273e-05
sS'MSZoningC (all)'
p438
F-2.356086680149233e-06
sS'BsmtQualTA'
p439
F-3.7249180748666402e-05
sS'FunctionalMin1'
p440
F-4.2401759220462651e-06
sS'Condition1RRNn'
p441
F4.1478050726059965e-08
sS'HeatingQCEx'
p442
F5.7294669530752309e-05
sS'LotShapeIR1'
p443
F-2.0011870398873465e-05
sS'LotShapeIR2'
p444
F3.133643564364297e-06
sS'Condition2Norm'
p445
F-1.66583883932468e-06
sS'HouseStyle1.5Unf'
p446
F-5.4726513824845223e-07
sS'HeatingGasA'
p447
F-6.0078320892076579e-06
sS'Exterior2ndStucco'
p448
F-2.8928957501689999e-06
sS'MasVnrTypeNone'
p449
F-1.9846231713417896e-06
sS'GarageFinishRFn'
p450
F1.5413109971291899e-05
sS'Exterior1stWdShing'
p451
F-2.2155018231834451e-06
sS'Exterior1stPlywood'
p452
F-1.8885366835699329e-05
sS'GarageArea'
p453
F0.012670027021416792
sS'NeighborhoodNoRidge'
p454
F2.9680106863510086e-06
sS'LotConfigInside'
p455
F1.1834885824281554e-05
sS'Exterior1stStone'
p456
F6.173841559442291e-08
sS'HeatingGasW'
p457
F1.7477833631586217e-06
sS'NeighborhoodVeenker'
p458
F3.6340391112203103e-06
sS'GarageQualEx'
p459
F7.7265051569719058e-07
sS'SaleConditionFamily'
p460
F-2.4041295407079849e-06
sS'ElectricalNA'
p461
F1.6839785240494537e-07
sS'RoofStyleGable'
p462
F1.3970333731404094e-05
sS'BsmtFinType1NA'
p463
F2.3055619769889882e-06
sS'BldgTypeDuplex'
p464
F-8.3814032154278535e-06
sS'BsmtFullBath'
p465
F-4.1075878515254344e-06
sS'Condition2Feedr'
p466
F-9.4047283951581414e-07
sS'FireplaceQuFa'
p467
F-2.4186117497479667e-06
sS'ExterQualEx'
p468
F1.6940056830467602e-05
sS'Exterior2ndOther'
p469
F6.9013055015787369e-08
sS'LotArea'
p470
F-0.00024509062190753556
sS'FoundationWood'
p471
F-3.4536760012972654e-07
sS'BsmtFinType1Rec'
p472
F-1.3584562656659504e-05
sS'RoofMatlWdShngl'
p473
F2.692405393885616e-06
sS'BsmtFinType2Unf'
p474
F-2.2789622531579296e-06
sS'GrLivArea'
p475
F0.0033827874135903711
sS'PoolQCGd'
p476
F-1.2560221941906849e-05
sS'RoofMatlMetal'
p477
F5.117841554433231e-07
sS'HouseStyle2.5Unf'
p478
F-1.6991560568422438e-06
sS'GarageFinishFin'
p479
F1.1873925793702835e-05
sS'Condition1Feedr'
p480
F2.2850596970764936e-06
sS'Exterior2ndAsphShn'
p481
F-7.5927583346093519e-08
sS'LandContourLow'
p482
F9.6571590828248103e-06
sS'SaleTypeCOD'
p483
F-8.5436609451722257e-06
sS'MasVnrTypeNA'
p484
F-5.4559384501459752e-06
sS'NeighborhoodSomerst'
p485
F6.7855845945160011e-06
sS'FireplaceQuGd'
p486
F6.0849819418177966e-06
sS'BsmtFinType1Unf'
p487
F-1.503998146755465e-05
sS'BldgTypeTwnhs'
p488
F-1.2293725105452618e-05
sS'X3SsnPorch'
p489
F0.00043053084734242554
sS'GarageTypeDetchd'
p490
F-3.8103497779021159e-05
sS'RoofStyleMansard'
p491
F4.2882449445251022e-08
sS'MoSold'
p492
F-0.0001640232608195372
sS'Exterior2ndImStucc'
p493
F-2.3794147142775999e-07
sS'NeighborhoodTimber'
p494
F6.8153301405811928e-06
sS'FireplaceQuNA'
p495
F8.8871160292436249e-06
sS'HouseStyle2.5Fin'
p496
F-1.4187293411993307e-06
sS'SaleTypeNew'
p497
F1.7833735478431531e-05
sS'ExterQualGd'
p498
F9.2500002965390532e-06
sS'FunctionalMin2'
p499
F1.0970933514043915e-05
sS'BsmtUnfSF'
p500
F-0.0060102018106485133
sS'SaleTypeCon'
p501
F4.4151311659216038e-07
sS'LotConfigFR3'
p502
F-3.2401112146816902e-07
sS'LotConfigFR2'
p503
F1.0023791223733547e-05
sS'HeatingQCGd'
p504
F-2.578311144511284e-05
sS'Condition2PosN'
p505
F2.7667071593813208e-07
sS'BsmtFinType2Rec'
p506
F-2.0791177917047786e-07
sS'FenceMnWw'
p507
F-1.537006800382181e-06
sS'GarageTypeBasment'
p508
F-3.0362857644196083e-06
sS'PoolQCEx'
p509
F5.2881503560873547e-08
sS'BsmtCondTA'
p510
F-1.7611108253628759e-05
sS'X2ndFlrSF'
p511
F0.00543144135213257
sS'PoolQCNA'
p512
F9.8471526303698576e-06
sS'SaleConditionNormal'
p513
F1.6179413602622155e-05
sS'GarageFinishUnf'
p514
F-1.9170763566656092e-05
sS'KitchenQualGd'
p515
F5.1886974062800986e-06
sS'X1stFlrSF'
p516
F-0.00034052093411554763
sS'FenceGdWo'
p517
F-7.0468603228824543e-06
sS'NeighborhoodOldTown'
p518
F-2.2833985463858621e-05
sS'PoolQCFa'
p519
F-2.1815675751264316e-07
sS'FoundationSlab'
p520
F2.3961252815059065e-06
sS'NeighborhoodIDOTRR'
p521
F-4.8059021511950487e-06
sS'CentralAirN'
p522
F-1.2613474542037807e-05
sS'Exterior2ndWd Shng'
p523
F-2.0446482740877254e-06
sS'Condition2RRAn'
p524
F-3.8373395511325033e-07
sS'GarageAge'
p525
F-0.0021918505442186757
sS'BsmtCondGd'
p526
F2.0496854297048459e-05
sS'Exterior2ndMetalSd'
p527
F1.0871789639190096e-05
sS'BldgType1Fam'
p528
F3.7525784913074204e-05
sS'MiscFeatureNA'
p529
F-5.9054339371311114e-06
sS'LowQualFinSF'
p530
F-0.0017081330044266751
sS'BsmtExposureMn'
p531
F-2.0221450518386148e-06
sS'NeighborhoodEdwards'
p532
F-1.4351313339058625e-05
sS'BsmtFinType1BLQ'
p533
F5.8027705275771243e-06
sS'FireplaceQuPo'
p534
F-1.7757230516400847e-06
sS'HeatingQCPo'
p535
F-5.5964375976348032e-08
sS'Condition1PosN'
p536
F-3.0715386708949556e-06
sS'SaleTypeConLw'
p537
F-3.248635938864582e-06
sS'AlleyNA'
p538
F2.0220042628672667e-06
sS'BsmtExposureAv'
p539
F1.0543999442523112e-05
sS'KitchenQualTA'
p540
F-3.5840557854758904e-05
sS'Exterior2ndVinylSd'
p541
F2.143154578562358e-05
sS'FireplaceQuTA'
p542
F-1.7526789001934779e-05
sS'HalfBath'
p543
F3.1523625886210538e-05
sS'RoofMatlRoll'
p544
F-2.4980608964588204e-07
sS'LandContourBnk'
p545
F7.2696676775910998e-06
sS'NeighborhoodBrkSide'
p546
F-4.705297974377887e-06
sS'GarageQualNA'
p547
F-1.0994616763827334e-05
sS'Exterior2ndBrk Cmn'
p548
F-1.5566226725174039e-06
sS'BsmtFinType2BLQ'
p549
F-7.8809136419070122e-06
sS'LandSlopeGtl'
p550
F-1.7495958435738219e-05
sS'WoodDeckSF'
p551
F-0.001343814685529155
sS'HouseStyle1.5Fin'
p552
F-2.2941056404222214e-05
sS'BsmtQualNA'
p553
F2.3055619769889882e-06
sS'MasVnrArea'
p554
F0.0057343570047393546
sS'Exterior1stCBlock'
p555
F-2.6908769163977814e-07
sS'SaleConditionAlloca'
p556
F-1.8961314741734388e-05
sS'Condition2PosA'
p557
F3.1071797713522329e-07
sS'AlleyGrvl'
p558
F-1.4341128467053993e-06
sS'Condition1PosA'
p559
F1.4501241452225322e-07
sS'ExterCondEx'
p560
F6.1134465865224054e-07
sS'NeighborhoodBrDale'
p561
F-5.3225600878924985e-06
sS'HeatingOthW'
p562
F-6.1687134293082683e-07
sS'Exterior1stHdBoard'
p563
F2.528436552015764e-05
sS'GarageQualFa'
p564
F-1.352305259562421e-05
sS'HouseStyle1Story'
p565
F2.4686775758724857e-05
sS'FenceGdPrv'
p566
F-1.5730825399448934e-05
sS'SaleTypeWD'
p567
F-1.2020750900573027e-05
sS'FunctionalTyp'
p568
F4.3802434091084628e-06
sS'TotalBsmtSF'
p569
F0.0055777782014384616
sS'GarageType2Types'
p570
F-1.4493030307680677e-06
sS'Exterior2ndBrkFace'
p571
F4.2215321313463043e-06
sS'GarageCondPo'
p572
F-9.3741787463951311e-07
sS'ExterQualTA'
p573
F-2.6963397410680359e-05
sS'KitchenQualEx'
p574
F3.1829724694991269e-05
sS'GarageCondGd'
p575
F-1.2623225317647179e-05
sS'RoofMatlWdShake'
p576
F3.6505521179895543e-08
sS'SaleTypeCWD'
p577
F1.3076533907678725e-07
sS'SaleConditionPartial'
p578
F2.1896499773910951e-05
sS'HeatingQCTA'
p579
F-3.3095151775684428e-05
sS'LandContourLvl'
p580
F-2.2262766797549567e-05
sS'HeatingGrav'
p581
F-5.2753172670676008e-07
sS'RoofStyleShed'
p582
F2.8287850140699866e-07
sS'LandSlopeMod'
p583
F1.8199263361926857e-05
sS'BsmtFinType2NA'
p584
F2.2158188086302087e-06
sS'BsmtFinSF1'
p585
F0.006842593182046941
sS'BsmtFinSF2'
p586
F0.0047453868300401381
sS'LotShapeIR3'
p587
F4.5399076115784482e-06
sS'GarageQualPo'
p588
F-1.9568128906739331e-07
sS'RoofMatlTar&Grv'
p589
F-1.2228104200265265e-05
sS'ScreenPorch'
p590
F-0.0013273398967927851
sS'BedroomAbvGr'
p591
F-4.450331630753838e-05
sS'BsmtFinType1ALQ'
p592
F-1.286227896679692e-05
sS'BsmtFinType2ALQ'
p593
F5.7275465761077479e-06
sS'Id'
p594
F-2.8783445654888005e-06
sS'Condition1RRAe'
p595
F5.1486709270229894e-07
sS'CentralAirY'
p596
F9.7351299765490659e-06
sS'GarageTypeNA'
p597
F-1.0994616763827334e-05
sS'FenceNA'
p598
F2.0040714796361455e-06
sS'SaleConditionAdjLand'
p599
F-3.5817954716077378e-07
sS'Exterior1stAsphShn'
p600
F-9.1174578490795796e-08
sS'MiscFeatureTenC'
p601
F-1.8288301657673215e-07
sS'GarageCars'
p602
F5.028732951574044e-05
sS'BsmtQualEx'
p603
F3.0896319275237518e-05
sS'Condition1RRAn'
p604
F1.2141516592927306e-06
sS'NeighborhoodStoneBr'
p605
F5.6883587694351516e-06
sS'Exterior2ndPlywood'
p606
F-2.2977307841433074e-05
sS'FoundationStone'
p607
F-6.207089873800094e-07
saI2
I5
t.