((lp1
ccollections
defaultdict
p2
(c__builtin__
int
p3
tRp4
S'RoofStyleFlat'
p5
F8.1378420391988994e-06
sS'MiscFeatureOthr'
p6
F-3.0778204888272044e-07
sS'Condition1Artery'
p7
F-1.0347339664310649e-05
sS'Exterior1stCemntBd'
p8
F4.9325243219646005e-06
sS'NeighborhoodGilbert'
p9
F1.6529019704093179e-05
sS'BsmtCondNA'
p10
F-7.5694728087166718e-06
sS'FunctionalMaj1'
p11
F-4.1379873258272095e-06
sS'OpenPorchSF'
p12
F0.0055716089367466564
sS'NeighborhoodCrawfor'
p13
F3.5515224904320006e-06
sS'LotShapeReg'
p14
F-3.7335176600316863e-05
sS'OverallQual'
p15
F0.0002700936090919023
sS'ExterCondFa'
p16
F-4.6125864413035986e-06
sS'Exterior1stMetalSd'
p17
F5.5151353569281277e-06
sS'HouseAge'
p18
F-0.0034772408423685624
sS'Exterior2ndCmentBd'
p19
F5.6369110306858356e-06
sS'LandContourHLS'
p20
F4.6649531495995888e-06
sS'RoofStyleGambrel'
p21
F-1.3667934045464754e-06
sS'Exterior2ndCBlock'
p22
F-1.8256564373555319e-07
sS'HeatingWall'
p23
F-3.6770249640818988e-06
sS'Exterior2ndAsbShng'
p24
F-2.9455041704707899e-06
sS'EnclosedPorch'
p25
F-0.0049199602112613731
sS'NeighborhoodBlmngtn'
p26
F1.8797831512333713e-06
sS'Unnamed: 0'
p27
F-0.0023234377683923999
sS'Exterior2ndStone'
p28
F-1.8326702865059208e-06
sS'MasVnrTypeStone'
p29
F2.0542775291838708e-05
sS'LotFrontage'
p30
F0.001641744460059802
sS'MiscFeatureShed'
p31
F-2.1938284349474812e-05
sS'BsmtHalfBath'
p32
F1.2467010925411361e-05
sS'KitchenAbvGr'
p33
F-1.2841548035296404e-05
sS'Exterior1stWd Sdng'
p34
F-3.3171549104025006e-06
sS'BsmtFinType2GLQ'
p35
F2.0181686197109803e-07
sS'NeighborhoodMitchel'
p36
F-4.0372480250649989e-06
sS'ExterCondPo'
p37
F-4.4431053748814342e-07
sS'BsmtQualFa'
p38
F-5.2960740967689679e-06
sS'GarageQualTA'
p39
F1.1202435534971236e-05
sS'RoofMatlCompShg'
p40
F-1.0447125776462448e-06
sS'ElectricalSBrkr'
p41
F3.2382500914035636e-05
sS'SaleTypeOth'
p42
F-6.9812715641123341e-07
sS'HouseStyleSLvl'
p43
F2.8810878621743043e-05
sS'LandSlopeSev'
p44
F1.8807660600098338e-06
sS'NeighborhoodNWAmes'
p45
F-1.3710331641016418e-05
sS'FullBath'
p46
F4.5186903724259107e-05
sS'BsmtFinType1LwQ'
p47
F-2.7949372272197099e-06
sS'MSZoningRM'
p48
F-2.1249910097754418e-05
sS'MSZoningRL'
p49
F2.4266899397126763e-05
sS'NeighborhoodCollgCr'
p50
F-4.0526781820815286e-06
sS'Exterior1stImStucc'
p51
F-3.3418049060084295e-07
sS'MSZoningRH'
p52
F-1.7697468946885669e-06
sS'MSSubClass'
p53
F-0.00032935394768279997
sS'FoundationCBlock'
p54
F-3.7407092944049913e-05
sS'FoundationPConc'
p55
F7.1243767842902564e-05
sS'BsmtFinType1GLQ'
p56
F3.1739808942262726e-05
sS'NeighborhoodNAmes'
p57
F-1.2229320590345494e-05
sS'BsmtCondFa'
p58
F-9.7454339469130007e-06
sS'GarageTypeCarPort'
p59
F-1.2391386153387176e-06
sS'BsmtQualGd'
p60
F-1.9584228864149123e-06
sS'PoolArea'
p61
F0.0061835145758699292
sS'HeatingFloor'
p62
F-9.6929800774855745e-08
sS'Exterior2ndWd Sdng'
p63
F-9.9440037035790592e-06
sS'RemodAddAge'
p64
F-0.0028356668557879242
sS'PavedDriveN'
p65
F-1.2053408073436989e-06
sS'GarageQualGd'
p66
F8.9891528879934995e-06
sS'AlleyPave'
p67
F-2.5418483670861858e-06
sS'NeighborhoodSWISU'
p68
F-6.4429236169876649e-06
sS'FireplaceQuEx'
p69
F8.1234426464859427e-06
sS'PavedDriveY'
p70
F1.07744462746567e-05
sS'Exterior1stAsbShng'
p71
F-2.5568120434489613e-06
sS'GarageTypeBuiltIn'
p72
F2.3785424145200648e-05
sS'RoofMatlClyTile'
p73
F-1.1848766450619699e-06
sS'Exterior1stBrkFace'
p74
F-4.3378314361027031e-06
sS'SaleConditionAbnorml'
p75
F-1.4027488763970214e-05
sS'Condition2RRNn'
p76
F-2.9649463202487142e-08
sS'BsmtCondPo'
p77
F-2.9888637307766934e-07
sS'Exterior1stStucco'
p78
F-3.516307093208921e-06
sS'FunctionalMod'
p79
F-2.6512532892704273e-06
sS'FunctionalSev'
p80
F-3.3846487790470058e-07
sS'GarageCondEx'
p81
F-1.5320939711505269e-07
sS'FoundationBrkTil'
p82
F-2.0569635760244179e-05
sS'GarageCondFa'
p83
F-4.7515551703665164e-06
sS'HeatingQCFa'
p84
F-1.0189697366364933e-05
sS'MSZoningFV'
p85
F8.9094885498078042e-06
sS'OverallCond'
p86
F0.00011434886398821266
sS'GarageCondNA'
p87
F-1.2945700252342879e-05
sS'MasVnrTypeBrkCmn'
p88
F-3.0183681625420986e-06
sS'BsmtFinType2LwQ'
p89
F1.0626034685986453e-06
sS'BldgTypeTwnhsE'
p90
F1.0727373736835475e-05
sS'ExterCondTA'
p91
F-8.2829487626639353e-06
sS'Condition1Norm'
p92
F2.0655912272596923e-05
sS'NeighborhoodMeadowV'
p93
F-2.0092313962003183e-06
sS'MasVnrTypeBrkFace'
p94
F1.2911088461504007e-05
sS'GarageTypeAttchd'
p95
F3.8397314536199473e-05
sS'BsmtExposureNA'
p96
F-7.019495834127228e-06
sS'ExterCondGd'
p97
F1.99307273749729e-05
sS'NeighborhoodClearCr'
p98
F2.1459641585032071e-06
sS'ElectricalFuseP'
p99
F-2.7118960809127753e-07
sS'BldgType2fmCon'
p100
F-1.0366325178903819e-05
sS'Fireplaces'
p101
F5.5125093029572081e-05
sS'NeighborhoodNPkVill'
p102
F5.6957814041053519e-07
sS'MiscVal'
p103
F-0.00069416171954355852
sS'SaleTypeConLI'
p104
F-6.1034778412554814e-08
sS'FenceMnPrv'
p105
F-1.7065867277717141e-05
sS'Utilities'
p106
F7.6990818056011728e-06
sS'FunctionalMaj2'
p107
F-7.5193330304146136e-07
sS'ElectricalFuseA'
p108
F-2.0134792913615758e-05
sS'BsmtExposureNo'
p109
F-2.6452073065475769e-05
sS'Condition2Artery'
p110
F-6.1801643625780757e-07
sS'ElectricalFuseF'
p111
F-4.8271727171619452e-06
sS'TotRmsAbvGrd'
p112
F0.00012869967282851401
sS'ElectricalMix'
p113
F-2.9888637307766934e-07
sS'Condition1RRNe'
p114
F1.6794831314715513e-07
sS'LotConfigCulDSac'
p115
F1.5726560616188856e-05
sS'KitchenQualFa'
p116
F-6.0149027475467391e-06
sS'SaleTypeConLD'
p117
F1.0812717558560944e-06
sS'Exterior1stVinylSd'
p118
F4.0497928452359288e-05
sS'HouseStyleSFoyer'
p119
F-1.3627995808424751e-06
sS'BsmtExposureGd'
p120
F1.0282596091607717e-05
sS'ExterQualFa'
p121
F-3.0509523442721428e-06
sS'RoofStyleHip'
p122
F3.2239098690940492e-05
sS'NeighborhoodNridgHt'
p123
F2.938031415598195e-05
sS'GarageCondTA'
p124
F1.7354345306609397e-05
sS'NeighborhoodSawyerW'
p125
F-1.3520430217287333e-05
sS'YrSold'
p126
F0.013866108061963879
sS'Exterior1stBrkComm'
p127
F-4.6374409484669924e-07
sS'Exterior2ndHdBoard'
p128
F-1.6967217470092659e-06
sS'HouseStyle2Story'
p129
F1.4723272159462801e-05
sS'NeighborhoodSawyer'
p130
F-2.2290813836581818e-06
sS'NeighborhoodBlueste'
p131
F-1.3587561182973339e-08
sS'PavedDriveP'
p132
F-2.6430289000491459e-06
sS'MiscFeatureGar2'
p133
F7.4877815290049225e-07
sS'GarageFinishNA'
p134
F-1.2945700252342879e-05
sS'LotConfigCorner'
p135
F2.273845496618084e-05
sS'MSZoningC (all)'
p136
F-3.2306543872277202e-06
sS'BsmtQualTA'
p137
F-2.8860551225658931e-05
sS'FunctionalMin1'
p138
F-4.628146125176194e-06
sS'Condition1RRNn'
p139
F3.7859032246812833e-07
sS'HeatingQCEx'
p140
F3.156515293701492e-05
sS'LotShapeIR1'
p141
F4.389445366509196e-05
sS'LotShapeIR2'
p142
F3.1917734278452816e-06
sS'Condition2Norm'
p143
F8.326540763056373e-06
sS'HouseStyle1.5Unf'
p144
F-1.378485712720215e-06
sS'HeatingGasA'
p145
F1.618204752913762e-05
sS'Exterior2ndStucco'
p146
F-4.0845313224168693e-06
sS'MasVnrTypeNone'
p147
F-2.3047267128443851e-05
sS'GarageFinishRFn'
p148
F2.078372639171431e-05
sS'Exterior1stWdShing'
p149
F-3.4632163508412239e-06
sS'Exterior1stPlywood'
p150
F-8.1235161730830646e-06
sS'GarageArea'
p151
F0.027840442441816049
sS'NeighborhoodNoRidge'
p152
F1.1295488342617732e-05
sS'LotConfigInside'
p153
F-3.9291344356534634e-05
sS'Exterior1stStone'
p154
F2.0941331544068591e-07
sS'HeatingGasW'
p155
F-3.89248442417839e-06
sS'NeighborhoodVeenker'
p156
F1.7675852417986997e-06
sS'GarageQualEx'
p157
F7.9593977618207519e-07
sS'SaleConditionFamily'
p158
F-6.7670412087613714e-07
sS'ElectricalNA'
p159
F7.561726517483745e-08
sS'RoofStyleGable'
p160
F-3.1950821653521748e-05
sS'BsmtFinType1NA'
p161
F-7.5694728087166718e-06
sS'BldgTypeDuplex'
p162
F-1.2120820633064656e-05
sS'BsmtFullBath'
p163
F7.8421720068046876e-06
sS'Condition2Feedr'
p164
F-1.0055823207264726e-06
sS'FireplaceQuFa'
p165
F-2.9800602087996983e-06
sS'ExterQualEx'
p166
F2.3871068500404011e-05
sS'Exterior2ndOther'
p167
F2.663312526852187e-07
sS'LotArea'
p168
F-0.0027591678763644657
sS'FoundationWood'
p169
F-3.00650783355245e-07
sS'BsmtFinType1Rec'
p170
F-1.495846124952185e-05
sS'RoofMatlWdShngl'
p171
F1.1341742694429265e-06
sS'BsmtFinType2Unf'
p172
F1.7477733509099433e-05
sS'GrLivArea'
p173
F0.050287165785513496
sS'PoolQCGd'
p174
F7.4344892176910661e-06
sS'RoofMatlMetal'
p175
F4.6064247074012626e-07
sS'HouseStyle2.5Unf'
p176
F-1.6003089387893788e-06
sS'GarageFinishFin'
p177
F3.7826471589774969e-05
sS'Condition1Feedr'
p178
F-3.5748538750750631e-06
sS'Exterior2ndAsphShn'
p179
F-2.8236746862938416e-07
sS'LandContourLow'
p180
F-1.5300099732569089e-05
sS'SaleTypeCOD'
p181
F-6.4470555706445667e-06
sS'MasVnrTypeNA'
p182
F-4.6215189509291452e-07
sS'NeighborhoodSomerst'
p183
F1.3082450215965875e-05
sS'FireplaceQuGd'
p184
F3.5864448287018706e-05
sS'BsmtFinType1Unf'
p185
F1.7857353146032699e-05
sS'BldgTypeTwnhs'
p186
F-2.1404847235731269e-06
sS'X3SsnPorch'
p187
F0.00028735497557410493
sS'GarageTypeDetchd'
p188
F-3.5894578696061108e-05
sS'RoofStyleMansard'
p189
F-8.774246221551111e-08
sS'MoSold'
p190
F0.0002928215218648865
sS'Exterior2ndImStucc'
p191
F1.211668875325687e-06
sS'NeighborhoodTimber'
p192
F1.8019827354128454e-06
sS'FireplaceQuNA'
p193
F-3.8873251311734564e-05
sS'HouseStyle2.5Fin'
p194
F-1.1531428961765047e-06
sS'SaleTypeNew'
p195
F2.7966251330163962e-05
sS'ExterQualGd'
p196
F3.9210063419302761e-05
sS'FunctionalMin2'
p197
F1.7384194682031967e-06
sS'BsmtUnfSF'
p198
F0.0098321109644640848
sS'SaleTypeCon'
p199
F5.835629305530293e-07
sS'LotConfigFR3'
p200
F2.9147864731205872e-07
sS'LotConfigFR2'
p201
F7.4609266941166827e-06
sS'HeatingQCGd'
p202
F-5.6460870663878491e-06
sS'Condition2PosN'
p203
F4.2752704589238536e-07
sS'BsmtFinType2Rec'
p204
F-2.9704106976123156e-06
sS'FenceMnWw'
p205
F-1.4048811567225764e-06
sS'GarageTypeBasment'
p206
F-3.9303719789713413e-06
sS'PoolQCEx'
p207
F7.1046709546507168e-07
sS'BsmtCondTA'
p208
F9.9600345720920962e-06
sS'X2ndFlrSF'
p209
F0.019723039131674253
sS'PoolQCNA'
p210
F-1.2039454519925793e-06
sS'SaleConditionNormal'
p211
F-1.4231030101510268e-05
sS'GarageFinishUnf'
p212
F-3.8738421161882436e-05
sS'KitchenQualGd'
p213
F3.3981093419850549e-05
sS'X1stFlrSF'
p214
F0.0320921757931329
sS'FenceGdWo'
p215
F-5.254242800725581e-06
sS'NeighborhoodOldTown'
p216
F-1.0820641886876267e-05
sS'PoolQCFa'
p217
F-1.4934293899729862e-08
sS'FoundationSlab'
p218
F-5.4675338353730483e-06
sS'NeighborhoodIDOTRR'
p219
F-6.8999116140618992e-06
sS'CentralAirN'
p220
F-2.3699760309696727e-05
sS'Exterior2ndWd Shng'
p221
F-3.3654274581688169e-06
sS'Condition2RRAn'
p222
F-4.5695955673502117e-07
sS'GarageAge'
p223
F-0.0015477035526621726
sS'BsmtCondGd'
p224
F1.4579835123879098e-05
sS'Exterior2ndMetalSd'
p225
F6.1117177372868737e-06
sS'BldgType1Fam'
p226
F2.0826333365970008e-05
sS'MiscFeatureNA'
p227
F2.8423550296871441e-05
sS'LowQualFinSF'
p228
F-0.0015280491392935054
sS'BsmtExposureMn'
p229
F-2.2786724783098131e-06
sS'NeighborhoodEdwards'
p230
F-2.1108622883282121e-07
sS'BsmtFinType1BLQ'
p231
F-5.0977778802444587e-07
sS'FireplaceQuPo'
p232
F-4.9241884356884437e-06
sS'HeatingQCPo'
p233
F-1.0615017030079298e-07
sS'Condition1PosN'
p234
F6.7263127130089762e-07
sS'SaleTypeConLw'
p235
F-6.7481818094576691e-08
sS'AlleyNA'
p236
F1.8129042858113944e-05
sS'BsmtExposureAv'
p237
F3.2393721853568869e-05
sS'KitchenQualTA'
p238
F-5.9523960633025322e-05
sS'Exterior2ndVinylSd'
p239
F4.1635082624854309e-05
sS'FireplaceQuTA'
p240
F9.7156855899820239e-06
sS'HalfBath'
p241
F2.7888502146119537e-05
sS'RoofMatlRoll'
p242
F-1.0582732541411414e-07
sS'LandContourBnk'
p243
F-6.9393939628075628e-06
sS'NeighborhoodBrkSide'
p244
F-5.8837654808639393e-06
sS'GarageQualNA'
p245
F-1.2945700252342879e-05
sS'Exterior2ndBrk Cmn'
p246
F-2.4191168402834807e-07
sS'BsmtFinType2BLQ'
p247
F-8.1861764371313245e-06
sS'LandSlopeGtl'
p248
F1.8752834074288138e-05
sS'WoodDeckSF'
p249
F0.012739470213405981
sS'HouseStyle1.5Fin'
p250
F-2.8539169346415426e-05
sS'BsmtQualNA'
p251
F-7.5694728087166718e-06
sS'MasVnrArea'
p252
F0.01968248299375731
sS'Exterior1stCBlock'
p253
F-1.8256564373555319e-07
sS'SaleConditionAlloca'
p254
F5.8403759601215611e-06
sS'Condition2PosA'
p255
F2.8221653523682991e-07
sS'AlleyGrvl'
p256
F-8.6611179237639058e-06
sS'Condition1PosA'
p257
F7.9717047692982784e-08
sS'ExterCondEx'
p258
F3.3519493374662558e-07
sS'NeighborhoodBrDale'
p259
F-1.8797861773648704e-06
sS'HeatingOthW'
p260
F-5.0316600951309884e-07
sS'Exterior1stHdBoard'
p261
F-1.7740080379303998e-05
sS'GarageQualFa'
p262
F-8.4835331431662139e-07
sS'HouseStyle1Story'
p263
F-2.5741677389979619e-06
sS'FenceGdPrv'
p264
F6.8179551666771613e-06
sS'SaleTypeWD'
p265
F-1.591721096331416e-05
sS'FunctionalTyp'
p266
F1.7695442020280698e-05
sS'TotalBsmtSF'
p267
F0.034138844424027537
sS'GarageType2Types'
p268
F-1.2468725714222231e-06
sS'Exterior2ndBrkFace'
p269
F-6.1103209710463604e-06
sS'GarageCondPo'
p270
F-1.2668911887090465e-06
sS'ExterQualTA'
p271
F-5.3104103008170677e-05
sS'KitchenQualEx'
p272
F3.8483846527985307e-05
sS'GarageCondGd'
p273
F8.6890872691879996e-06
sS'RoofMatlWdShake'
p274
F-5.7612873152339739e-08
sS'SaleTypeCWD'
p275
F4.8590083756790472e-07
sS'SaleConditionPartial'
p276
F3.0542111252819274e-05
sS'HeatingQCTA'
p277
F-8.6971417666975327e-06
sS'LandContourLvl'
p278
F2.4500617113040942e-05
sS'HeatingGrav'
p279
F-1.0863657633254685e-06
sS'RoofStyleShed'
p280
F-4.5506642591765331e-08
sS'LandSlopeMod'
p281
F-1.3707523567034004e-05
sS'BsmtFinType2NA'
p282
F-7.4010063284951077e-06
sS'BsmtFinSF1'
p283
F0.023173130431260368
sS'BsmtFinSF2'
p284
F0.0011336030283031304
sS'LotShapeIR3'
p285
F-2.8249739253565744e-06
sS'GarageQualPo'
p286
F-2.6739806522343098e-07
sS'RoofMatlTar&Grv'
p287
F7.7242892483554454e-06
sS'ScreenPorch'
p288
F0.0030710701199150202
sS'BedroomAbvGr'
p289
F1.2164416396135922e-05
sS'BsmtFinType1ALQ'
p290
F-1.6838436447548851e-05
sS'BsmtFinType2ALQ'
p291
F6.7415161908335018e-06
sS'Id'
p292
F6.9260765672638049e-06
sS'Condition1RRAe'
p293
F-2.4933182320812253e-07
sS'CentralAirY'
p294
F3.0625836876960525e-05
sS'GarageTypeNA'
p295
F-1.2945700252342879e-05
sS'FenceNA'
p296
F2.3833112635751983e-05
sS'SaleConditionAdjLand'
p297
F-5.2118765932033833e-07
sS'Exterior1stAsphShn'
p298
F-1.9351626385449104e-07
sS'MiscFeatureTenC'
p299
F-1.8548415056669745e-10
sS'GarageCars'
p300
F0.00011606523077902264
sS'BsmtQualEx'
p301
F5.0610597584823447e-05
sS'Condition1RRAn'
p302
F-8.5719729734835539e-07
sS'NeighborhoodStoneBr'
p303
F8.8624122326391774e-06
sS'Exterior2ndPlywood'
p304
F-1.7249610497983804e-05
sS'FoundationStone'
p305
F-5.7277795261631717e-07
saI1
I5
t.