((lp1
ccollections
defaultdict
p2
(c__builtin__
int
p3
tRp4
S'RoofStyleFlat'
p5
F7.0037164454432638e-10
sS'Condition1Artery'
p6
F7.2892758021319421e-08
sS'Exterior1stCemntBd'
p7
F4.0406596117094094e-07
sS'NeighborhoodGilbert'
p8
F2.7429090436460433e-07
sS'BsmtCondNA'
p9
F1.3703108729708822e-09
sS'FenceMnPrv'
p10
F3.5547562475910898e-07
sS'OpenPorchSF'
p11
F0.00029568671194962683
sS'NeighborhoodCrawfor'
p12
F2.0367091704237114e-07
sS'LotShapeReg'
p13
F2.9570266128421238e-06
sS'BsmtCondFa'
p14
F4.4057683347503464e-08
sS'GarageFinishUnf'
p15
F1.0746441885252318e-06
sS'Exterior1stMetalSd'
p16
F4.8796633041626171e-07
sS'HouseAge'
p17
F8.657558845751258e-05
sS'NeighborhoodNAmes'
p18
F3.5715852057729248e-07
sS'LandContourHLS'
p19
F2.5583729129150391e-07
sS'RoofStyleGambrel'
p20
F2.6007843209569361e-08
sS'Exterior2ndAsbShng'
p21
F7.0956131214531486e-09
sS'EnclosedPorch'
p22
F6.0391045314113849e-05
sS'NeighborhoodBlmngtn'
p23
F1.3269379346010581e-07
sS'Unnamed: 0'
p24
F0.0034670603084017543
sS'Exterior2ndStone'
p25
F9.4516173622674984e-10
sS'MasVnrTypeStone'
p26
F8.8830344664503384e-07
sS'Condition1Norm'
p27
F4.3705002365969223e-06
sS'MiscFeatureShed'
p28
F9.5763602033776926e-09
sS'MiscFeatureOthr'
p29
F-8.375880470112276e-10
sS'KitchenAbvGr'
p30
F4.8041018806185072e-06
sS'Exterior1stWd Sdng'
p31
F2.4131691888621487e-07
sS'BsmtFinType2GLQ'
p32
F5.9624389385536535e-08
sS'NeighborhoodTimber'
p33
F6.1445468814287801e-08
sS'FunctionalTyp'
p34
F4.6245887309537533e-06
sS'TotalBsmtSF'
p35
F0.0057803678713451451
sS'BsmtQualFa'
p36
F3.8865479471396779e-08
sS'GarageQualTA'
p37
F4.5559157237936744e-06
sS'RoofMatlCompShg'
p38
F4.7464714934353538e-06
sS'ElectricalSBrkr'
p39
F4.6575671284458013e-06
sS'BsmtExposureAv'
p40
F9.776710752860267e-07
sS'FoundationStone'
p41
F1.9200956763343323e-08
sS'NeighborhoodNWAmes'
p42
F2.1482971069454736e-07
sS'FullBath'
p43
F8.7690971683645938e-06
sS'BsmtFinType1LwQ'
p44
F1.6221923209021446e-07
sS'MSZoningRM'
p45
F4.8773555099695715e-07
sS'MSZoningRL'
p46
F3.8288467838929342e-06
sS'AlleyGrvl'
p47
F3.8299975005541085e-08
sS'NeighborhoodCollgCr'
p48
F6.4937285297495596e-07
sS'Exterior1stImStucc'
p49
F8.4188114288396589e-09
sS'MSZoningRH'
p50
F3.5408382126097541e-08
sS'MSSubClass'
p51
F0.00029127437078806052
sS'FoundationCBlock'
p52
F8.9177623393059725e-07
sS'BsmtQualTA'
p53
F9.8627909839054865e-07
sS'FoundationPConc'
p54
F3.5906356418018806e-06
sS'BsmtFinType1GLQ'
p55
F2.4396639135951041e-06
sS'Exterior2ndCmentBd'
p56
F4.1135226956951659e-07
sS'BsmtQualGd'
p57
F2.5367811880170092e-06
sS'PoolArea'
p58
F6.6876464921327595e-06
sS'Condition1PosN'
p59
F7.6586913091782794e-08
sS'Exterior2ndWd Sdng'
p60
F3.2065830871226362e-07
sS'RemodAddAge'
p61
F5.0835675278155242e-05
sS'PavedDriveN'
p62
F1.3573794951799913e-08
sS'BsmtCondPo'
p63
F-4.4685976534325813e-09
sS'GarageCondEx'
p64
F4.0160261067925204e-09
sS'FoundationWood'
p65
F9.3459813477763512e-09
sS'Exterior1stVinylSd'
p66
F2.6845096242586839e-06
sS'PavedDriveY'
p67
F4.7182523391290626e-06
sS'BldgTypeTwnhsE'
p68
F6.4177203567465489e-07
sS'HeatingQCEx'
p69
F3.6409111060105316e-06
sS'GarageTypeBuiltIn'
p70
F5.4913197200304794e-07
sS'Exterior1stBrkFace'
p71
F6.7585177301130959e-08
sS'BsmtQualNA'
p72
F1.3703108729708822e-09
sS'Condition2RRNn'
p73
F-8.7711311552904994e-10
sS'GarageQualGd'
p74
F6.7842298327652264e-08
sS'Exterior1stStucco'
p75
F4.0458003704855173e-08
sS'Condition1Feedr'
p76
F8.7490835900376061e-08
sS'AlleyPave'
p77
F1.815897628406873e-07
sS'HeatingFloor'
p78
F9.3037406241465762e-10
sS'NeighborhoodVeenker'
p79
F4.0082153235601354e-08
sS'HeatingQCFa'
p80
F3.8886485920235342e-08
sS'GarageTypeCarPort'
p81
F2.8353372265579767e-09
sS'OverallCond'
p82
F2.6205507118713186e-05
sS'FenceGdPrv'
p83
F1.911890043360816e-07
sS'BsmtFinType2LwQ'
p84
F1.0369343360812843e-07
sS'SaleTypeConLw'
p85
F1.1315560202263134e-08
sS'ExterCondTA'
p86
F4.3359821710075567e-06
sS'ExterQualGd'
p87
F2.7404243952905379e-06
sS'RoofStyleHip'
p88
F1.2947479450836039e-06
sS'MasVnrTypeBrkFace'
p89
F2.0319764798653277e-06
sS'GarageTypeAttchd'
p90
F3.3952476022152381e-06
sS'BsmtExposureNA'
p91
F1.3703108729708822e-09
sS'GrLivArea'
p92
F0.0083957399011323486
sS'BsmtQualEx'
p93
F1.1846241049468425e-06
sS'Exterior2ndCBlock'
p94
F1.7764517418268473e-09
sS'ElectricalFuseP'
p95
F3.1103691223511646e-09
sS'BldgType2fmCon'
p96
F7.8590524522004105e-10
sS'Fireplaces'
p97
F3.5192263127471456e-06
sS'LotFrontage'
p98
F0.00028961885070881812
sS'NeighborhoodNPkVill'
p99
F4.6914817962195307e-08
sS'Exterior2ndPlywood'
p100
F2.0203713568688836e-07
sS'SaleTypeConLI'
p101
F2.0862600413373543e-08
sS'FunctionalMaj1'
p102
F3.4644520367579883e-08
sS'OverallQual'
p103
F3.4321802839831574e-05
sS'FunctionalMaj2'
p104
F-3.3498014239506178e-09
sS'ElectricalFuseA'
p105
F6.9344810828973532e-08
sS'BsmtHalfBath'
p106
F1.4182149040345938e-07
sS'Condition2Artery'
p107
F1.0319681123820394e-09
sS'ElectricalFuseF'
p108
F1.7814302662397801e-08
sS'TotRmsAbvGrd'
p109
F3.3996458713525373e-05
sS'ElectricalMix'
p110
F-2.3541642583699505e-09
sS'LotConfigCulDSac'
p111
F2.1753213666746896e-07
sS'FireplaceQuEx'
p112
F2.4079472965501971e-07
sS'HouseStyleSFoyer'
p113
F8.5945945868853819e-08
sS'BsmtExposureGd'
p114
F4.9399090092908289e-07
sS'NeighborhoodMeadowV'
p115
F4.4814131576816651e-08
sS'NeighborhoodNridgHt'
p116
F7.846941843807366e-07
sS'GarageCondTA'
p117
F4.6497100677784842e-06
sS'NeighborhoodSawyerW'
p118
F2.2794717522985292e-07
sS'FoundationBrkTil'
p119
F2.2894734236153422e-07
sS'ExterQualTA'
p120
F1.429185905352011e-06
sS'Exterior1stBrkComm'
p121
F-5.0029100293157868e-09
sS'Exterior2ndHdBoard'
p122
F4.7132963299008619e-07
sS'HouseStyle2Story'
p123
F2.0775065787788438e-06
sS'SaleTypeOth'
p124
F-9.9047455801126925e-10
sS'NeighborhoodBlueste'
p125
F1.2125318425345304e-08
sS'PavedDriveP'
p126
F1.609404761792025e-08
sS'GarageFinishNA'
p127
F4.8157433432891806e-08
sS'MSZoningC (all)'
p128
F-2.0295470734023944e-08
sS'MiscFeatureGar2'
p129
F8.5997768032855062e-10
sS'FunctionalMin1'
p130
F2.3023454899345831e-08
sS'Condition1RRNn'
p131
F3.059268020344875e-08
sS'Exterior2ndMetalSd'
p132
F4.8271497225461476e-07
sS'LotShapeIR1'
p133
F1.8592873586066306e-06
sS'LotShapeIR2'
p134
F2.9620937751695684e-08
sS'Condition2Norm'
p135
F4.7267711488308776e-06
sS'HouseStyle1.5Unf'
p136
F2.1038471938514369e-08
sS'HeatingGasA'
p137
F4.7952017610491705e-06
sS'Exterior2ndStucco'
p138
F3.2524696712764147e-08
sS'FenceGdWo'
p139
F1.02301385577107e-07
sS'NeighborhoodSawyer'
p140
F8.7860064691779194e-08
sS'Exterior1stWdShing'
p141
F4.0085353452521828e-08
sS'Exterior1stPlywood'
p142
F2.1946564409823758e-07
sS'GarageArea'
p143
F0.0027807475270063063
sS'LotConfigInside'
p144
F3.5136310354131176e-06
sS'Exterior1stStone'
p145
F8.4977836455237625e-09
sS'HeatingGasW'
p146
F-4.3511426318888081e-08
sS'FunctionalMod'
p147
F2.0470043226576404e-08
sS'GarageQualEx'
p148
F2.1788163229713087e-08
sS'Condition2PosN'
p149
F4.4368736788683442e-09
sS'SaleConditionFamily'
p150
F4.1732206400946486e-08
sS'RoofStyleGable'
p151
F3.407478419578804e-06
sS'X3SsnPorch'
p152
F1.9057309375494587e-05
sS'BldgTypeDuplex'
p153
F5.9846391799183812e-08
sS'BsmtFullBath'
p154
F2.2263046650113367e-06
sS'BsmtFinType2NA'
p155
F1.0075139044269168e-08
sS'RoofMatlWdShngl'
p156
F2.1555940740871623e-08
sS'ExterQualEx'
p157
F5.8133226501148893e-07
sS'GarageTypeDetchd'
p158
F7.2362560468906847e-07
sS'Exterior2ndOther'
p159
F1.0170701294988777e-08
sS'LotArea'
p160
F0.0078385561997065811
sS'NeighborhoodSWISU'
p161
F6.2570637593932334e-08
sS'BsmtFinType1Rec'
p162
F1.1266554539195035e-07
sS'HouseStyleSLvl'
p163
F1.6316776123191154e-07
sS'GarageCars'
p164
F1.0491175543620603e-05
sS'GarageCondNA'
p165
F4.8157433432891806e-08
sS'ExterCondGd'
p166
F3.91256443439216e-07
sS'PoolQCGd'
p167
F-3.1025051589004577e-08
sS'RoofMatlMetal'
p168
F-3.5944679404060864e-09
sS'HouseStyle2.5Unf'
p169
F2.7857590167461969e-08
sS'GarageFinishFin'
p170
F1.9468574598617568e-06
sS'KitchenQualFa'
p171
F2.2046592792703107e-08
sS'Exterior2ndAsphShn'
p172
F-9.5132270047492638e-10
sS'LandContourLow'
p173
F-2.1894744803228595e-07
sS'SaleTypeCOD'
p174
F7.0967484160196362e-08
sS'FireplaceQuGd'
p175
F1.7934108370794213e-06
sS'Condition2Feedr'
p176
F8.0481104448345614e-09
sS'NeighborhoodNoRidge'
p177
F3.8501499281609637e-07
sS'BsmtFinType1NA'
p178
F1.3703108729708822e-09
sS'MasVnrTypeNA'
p179
F4.1284310868764968e-08
sS'BsmtFinSF1'
p180
F0.0024368484853154009
sS'MoSold'
p181
F3.0744433045745078e-05
sS'Exterior2ndImStucc'
p182
F8.7609171633157511e-08
sS'BsmtFinSF2'
p183
F0.00011213087774070474
sS'HouseStyle2.5Fin'
p184
F4.0474241764629383e-08
sS'SaleTypeNew'
p185
F9.3227015160256726e-07
sS'BsmtFinType1Unf'
p186
F1.3679137511341189e-06
sS'BsmtUnfSF'
p187
F0.0032313885082891096
sS'Condition2PosA'
p188
F1.1000029215062238e-08
sS'LotConfigFR2'
p189
F1.4821538320617779e-07
sS'HeatingQCGd'
p190
F5.0759175675530137e-07
sS'GarageCondFa'
p191
F1.4470309922392632e-08
sS'BsmtFinType2Rec'
p192
F-1.7724857553452465e-08
sS'FenceMnWw'
p193
F1.6823991826701165e-08
sS'GarageTypeBasment'
p194
F4.732840595713416e-08
sS'PoolQCEx'
p195
F3.2108607198815352e-08
sS'ExterQualFa'
p196
F-3.0223839552709442e-09
sS'X2ndFlrSF'
p197
F0.0022738233471867736
sS'RoofMatlWdShake'
p198
F1.9871055320652125e-08
sS'PoolQCNA'
p199
F4.7427722208591965e-06
sS'SaleConditionNormal'
p200
F3.5656806492120128e-06
sS'ExterCondFa'
p201
F7.442225852140361e-09
sS'KitchenQualGd'
p202
F2.7038622587924643e-06
sS'X1stFlrSF'
p203
F0.0061008804825324935
sS'NeighborhoodOldTown'
p204
F1.693124856452745e-07
sS'PoolQCFa'
p205
F4.0644052297810524e-09
sS'ScreenPorch'
p206
F9.6027834494093572e-05
sS'FoundationSlab'
p207
F8.0140254936291224e-09
sS'NeighborhoodIDOTRR'
p208
F1.1458072442282014e-09
sS'BedroomAbvGr'
p209
F1.371631387345264e-05
sS'Condition2RRAe'
p210
F-2.4908354677074267e-09
sS'Exterior2ndWd Shng'
p211
F9.2930369106470295e-08
sS'BsmtFinType2Unf'
p212
F4.4398292835680786e-06
sS'MSZoningFV'
p213
F4.1622493541677844e-07
sS'BsmtCondGd'
p214
F3.0294701995696288e-07
sS'Utilities'
p215
F4.7499940802828039e-06
sS'BldgType1Fam'
p216
F3.854622269229322e-06
sS'MiscFeatureNA'
p217
F4.7383214318620876e-06
sS'LowQualFinSF'
p218
F2.1036071413058541e-05
sS'LandSlopeSev'
p219
F-2.1820198515859655e-07
sS'NeighborhoodEdwards'
p220
F6.544671741936135e-08
sS'BsmtFinType1BLQ'
p221
F2.042519999258187e-07
sS'FireplaceQuPo'
p222
F2.280249868319124e-08
sS'HeatingQCPo'
p223
F8.9080310880159827e-10
sS'FunctionalSev'
p224
F-2.8598514670075368e-09
sS'AlleyNA'
p225
F4.5280304438525362e-06
sS'KitchenQualTA'
p226
F1.0195307618989584e-06
sS'Exterior2ndVinylSd'
p227
F2.628510617031858e-06
sS'LandContourLvl'
p228
F4.6668279286891956e-06
sS'LotConfigCorner'
p229
F8.516924000781769e-07
sS'HalfBath'
p230
F2.5521124471636066e-06
sS'RoofMatlRoll'
p231
F-8.7315784098325316e-10
sS'LandContourBnk'
p232
F4.4202409750356196e-08
sS'NeighborhoodBrkSide'
p233
F1.2338254184521227e-07
sS'GarageQualNA'
p234
F4.8157433432891806e-08
sS'Exterior2ndBrk Cmn'
p235
F2.5059753587495929e-08
sS'Condition1PosA'
p236
F3.1208990695453485e-08
sS'Id'
p237
F4.7479201816987888e-06
sS'LandSlopeGtl'
p238
F4.8513051486283723e-06
sS'WoodDeckSF'
p239
F0.00059139469915486852
sS'HouseStyle1.5Fin'
p240
F2.0125790663188247e-07
sS'SaleTypeConLD'
p241
F1.231449283299773e-08
sS'FireplaceQuNA'
p242
F1.4491073881464026e-06
sS'HeatingWall'
p243
F-1.7015052200641148e-09
sS'SaleConditionAlloca'
p244
F2.9164753558129578e-08
sS'LotConfigFR3'
p245
F1.6849226333824148e-08
sS'ElectricalNA'
p246
F2.4377348976240105e-09
sS'SaleTypeCon'
p247
F6.3460427528082432e-09
sS'ExterCondEx'
p248
F1.363930758557811e-08
sS'NeighborhoodBrDale'
p249
F5.7387675450840251e-08
sS'Exterior1stHdBoard'
p250
F5.4386831749380395e-07
sS'GarageQualFa'
p251
F5.4241468212165944e-08
sS'BsmtFinType1ALQ'
p252
F4.5983542868860105e-07
sS'HouseStyle1Story'
p253
F2.1306716853166593e-06
sS'BsmtExposureMn'
p254
F4.0940410626162393e-07
sS'SaleTypeWD'
p255
F3.6862629942641099e-06
sS'NeighborhoodMitchel'
p256
F6.9212897376010719e-08
sS'ExterCondPo'
p257
F-3.9996618571531935e-10
sS'GarageType2Types'
p258
F-1.8406173825172289e-08
sS'BsmtExposureNo'
p259
F2.8654837883490601e-06
sS'Exterior2ndBrkFace'
p260
F-2.5843350780378681e-08
sS'RoofMatlMembran'
p261
F-6.325983065401382e-10
sS'YrSold'
p262
F0.0095328738744061697
sS'FunctionalMin2'
p263
F5.1403085142483043e-08
sS'Exterior1stAsbShng'
p264
F6.5053169268094765e-09
sS'MasVnrArea'
p265
F0.00087526551986294476
sS'KitchenQualEx'
p266
F1.0024805682146421e-06
sS'RoofMatlClyTile'
p267
F-3.5388073568129865e-08
sS'Exterior1stCBlock'
p268
F1.7764517418268473e-09
sS'SaleTypeCWD'
p269
F8.5713300284455886e-09
sS'SaleConditionPartial'
p270
F9.2867031281592099e-07
sS'FireplaceQuTA'
p271
F1.1727741915142086e-06
sS'HeatingQCTA'
p272
F5.5964002990387802e-07
sS'GarageCondGd'
p273
F3.1133440614284056e-08
sS'HeatingGrav'
p274
F-2.999021873843032e-09
sS'RoofStyleShed'
p275
F-2.9861073583746935e-09
sS'BsmtFinType2BLQ'
p276
F7.2856499509320101e-08
sS'LandSlopeMod'
p277
F1.1481701822901229e-07
sS'SaleConditionAdjLand'
p278
F1.8130098172939288e-09
sS'RoofStyleMansard'
p279
F2.1971709540608429e-08
sS'BldgTypeTwnhs'
p280
F1.9089357975036624e-07
sS'FenceNA'
p281
F4.0821301751997619e-06
sS'LotShapeIR3'
p282
F-9.8014727501687804e-08
sS'GarageQualPo'
p283
F-2.4905297320541794e-11
sS'RoofMatlTar&Grv'
p284
F5.0998985797104622e-10
sS'GarageFinishRFn'
p285
F1.6782610998788929e-06
sS'CentralAirN'
p286
F2.9415822012231175e-08
sS'BsmtCondTA'
p287
F4.4040137651747585e-06
sS'NeighborhoodStoneBr'
p288
F2.5744473750447423e-07
sS'MasVnrTypeNone'
p289
F1.8539324061298904e-06
sS'SaleConditionAbnorml'
p290
F1.8085924989445297e-07
sS'FireplaceQuFa'
p291
F6.9030536620530595e-08
sS'Condition1RRAe'
p292
F4.8060301322693536e-09
sS'CentralAirY'
p293
F4.7185043596865482e-06
sS'GarageTypeNA'
p294
F4.8157433432891806e-08
sS'NeighborhoodClearCr'
p295
F-1.3034922536293813e-07
sS'GarageCondPo'
p296
F4.3290384394000857e-10
sS'GarageAge'
p297
F6.9913885756088152e-05
sS'NeighborhoodSomerst'
p298
F5.4945090073578721e-07
sS'MasVnrTypeBrkCmn'
p299
F-6.7576461810246558e-08
sS'Condition1RRAn'
p300
F7.3841737057184603e-08
sS'BsmtFinType2ALQ'
p301
F7.95662941368802e-08
sS'MiscVal'
p302
F8.1007982994086986e-05
sS'Exterior1stAsphShn'
p303
F-1.5966027975770307e-09
sag2
(g3
tRp304
S'RoofStyleFlat'
p305
F-9.6124983510695407e-09
sS'Condition1Artery'
p306
F1.6543541528645156e-08
sS'Exterior1stCemntBd'
p307
F3.011975803001658e-07
sS'NeighborhoodGilbert'
p308
F1.9634609003276028e-07
sS'BsmtCondNA'
p309
F-2.5147380125355118e-08
sS'FunctionalMaj1'
p310
F1.3056582849334883e-08
sS'OpenPorchSF'
p311
F0.00021230186579970897
sS'NeighborhoodCrawfor'
p312
F1.477918238605621e-07
sS'LotShapeReg'
p313
F1.7948578811093269e-06
sS'OverallQual'
p314
F2.3632323847154961e-05
sS'ExterCondFa'
p315
F-2.1408184791815969e-08
sS'Exterior1stMetalSd'
p316
F2.4768543427513332e-07
sS'HouseAge'
p317
F2.9850846515035241e-05
sS'NeighborhoodNAmes'
p318
F1.1929087385186161e-07
sS'LandContourHLS'
p319
F1.9245082651598525e-07
sS'RoofStyleGambrel'
p320
F1.3490046775460756e-08
sS'Exterior2ndCBlock'
p321
F1.6464488120971456e-10
sS'HeatingWall'
p322
F-4.4505727044842874e-09
sS'Exterior2ndAsbShng'
p323
F-6.704505014557864e-09
sS'EnclosedPorch'
p324
F2.6109962137031461e-05
sS'NeighborhoodBlmngtn'
p325
F9.6349202410247692e-08
sS'Unnamed: 0'
p326
F0.002184690826723094
sS'Exterior2ndStone'
p327
F-2.1424461199385432e-09
sS'MasVnrTypeStone'
p328
F7.069432653509268e-07
sS'Condition1Norm'
p329
F2.915229875904384e-06
sS'MiscFeatureShed'
p330
F-2.0874316673633207e-08
sS'BsmtHalfBath'
p331
F7.6820609767041903e-08
sS'KitchenAbvGr'
p332
F3.0222884656429779e-06
sS'Exterior1stWd Sdng'
p333
F4.0074573410172594e-08
sS'Exterior1stCBlock'
p334
F1.6464488120971456e-10
sS'BsmtFinType2GLQ'
p335
F3.6929939695460892e-08
sS'NeighborhoodMitchel'
p336
F2.1426018260608816e-08
sS'Exterior2ndPlywood'
p337
F6.9696064290823149e-08
sS'ExterCondPo'
p338
F-1.6173282334963264e-09
sS'SaleConditionAdjLand'
p339
F-2.5485790330974981e-09
sS'GarageQualTA'
p340
F3.0272537737435439e-06
sS'RoofMatlCompShg'
p341
F3.0668676721961773e-06
sS'ElectricalSBrkr'
p342
F3.1018040726156871e-06
sS'SaleTypeOth'
p343
F-2.5029015257872288e-09
sS'BsmtExposureAv'
p344
F7.1721453749048247e-07
sS'LandSlopeSev'
p345
F-1.8852978786778356e-07
sS'NeighborhoodNWAmes'
p346
F1.313128290727128e-07
sS'FullBath'
p347
F6.0066737694222328e-06
sS'BsmtFinType1LwQ'
p348
F7.6348243291931743e-08
sS'MSZoningRM'
p349
F2.0309737695484671e-07
sS'MSZoningRL'
p350
F2.5547404894646451e-06
sS'NeighborhoodCollgCr'
p351
F4.6789594506350419e-07
sS'Exterior1stImStucc'
p352
F6.708651644409885e-09
sS'MSZoningRH'
p353
F1.4599089963940687e-08
sS'MSSubClass'
p354
F0.00018791075294768389
sS'FoundationCBlock'
p355
F2.5898103061706396e-07
sS'Exterior2ndBrkFace'
p356
F-4.5366470215648138e-08
sS'FoundationPConc'
p357
F2.7313481764956289e-06
sS'BsmtFinType1GLQ'
p358
F1.8998484837867418e-06
sS'Exterior2ndCmentBd'
p359
F3.1075653504291539e-07
sS'BsmtCondFa'
p360
F-1.113414632840803e-08
sS'BsmtQualGd'
p361
F1.7915076058037727e-06
sS'PoolArea'
p362
F5.6277152347604352e-06
sS'Exterior2ndWd Sdng'
p363
F1.0298772137782041e-07
sS'RemodAddAge'
p364
F1.492002432047735e-05
sS'PavedDriveN'
p365
F-6.3079980935632567e-08
sS'GarageQualGd'
p366
F5.0853238463829765e-08
sS'AlleyPave'
p367
F1.2363167711273016e-07
sS'NeighborhoodSWISU'
p368
F2.3569299354000946e-08
sS'FireplaceQuEx'
p369
F2.0837808237793932e-07
sS'PavedDriveY'
p370
F3.1333509414511591e-06
sS'BldgTypeTwnhsE'
p371
F4.569220774618722e-07
sS'GarageTypeBuiltIn'
p372
F4.3441307424295861e-07
sS'RoofMatlClyTile'
p373
F-3.2531953902225208e-08
sS'FoundationWood'
p374
F6.2529858694617022e-09
sS'Exterior1stBrkFace'
p375
F1.9740829625379258e-08
sS'BsmtQualNA'
p376
F-2.5147380125355118e-08
sS'Condition2RRNn'
p377
F-1.3449957827110936e-09
sS'BsmtCondPo'
p378
F-6.1278243845833161e-09
sS'Exterior1stStucco'
p379
F1.110499585541553e-08
sS'MiscFeatureOthr'
p380
F-2.9935818604911392e-09
sS'GarageCondEx'
p381
F1.1827345789146454e-09
sS'FoundationBrkTil'
p382
F6.1224286751491454e-08
sS'HeatingFloor'
p383
F-1.0914843639835923e-09
sS'HeatingQCFa'
p384
F-4.3650887009972066e-09
sS'MSZoningFV'
p385
F3.1524676254195463e-07
sS'OverallCond'
p386
F1.6858951760631455e-05
sS'GarageCondNA'
p387
F-3.2683503000640655e-08
sS'BsmtFinType2LwQ'
p388
F5.4003398329914031e-08
sS'SaleTypeConLw'
p389
F6.6243854106059203e-09
sS'ExterCondTA'
p390
F2.8353075571405354e-06
sS'ExterQualGd'
p391
F2.1041248761837599e-06
sS'RoofMatlRoll'
p392
F-1.6821348795184743e-09
sS'NeighborhoodMeadowV'
p393
F2.1056621643390712e-08
sS'MasVnrTypeBrkFace'
p394
F1.450224457162924e-06
sS'GarageTypeAttchd'
p395
F2.3830960034317493e-06
sS'BsmtExposureNA'
p396
F-2.5147380125355118e-08
sS'ExterCondGd'
p397
F2.3529258993315662e-07
sS'NeighborhoodClearCr'
p398
F-1.0400824823752894e-07
sS'ElectricalFuseP'
p399
F-4.0931897315429404e-10
sS'BldgType2fmCon'
p400
F-2.9098449941281371e-08
sS'Fireplaces'
p401
F2.537724990733675e-06
sS'NeighborhoodIDOTRR'
p402
F-3.4602622704645234e-08
sS'MiscVal'
p403
F2.7448938487454225e-05
sS'SaleTypeConLI'
p404
F1.5605825610944961e-08
sS'FenceMnPrv'
p405
F1.8167950937306128e-07
sS'Utilities'
p406
F3.0591338696955237e-06
sS'FunctionalMaj2'
p407
F-8.0282916389239113e-09
sS'ElectricalFuseA'
p408
F-2.6294893690692222e-08
sS'BsmtExposureNo'
p409
F1.7038586669807224e-06
sS'Condition2Artery'
p410
F1.8457536463864026e-10
sS'ElectricalFuseF'
p411
F-1.6786892467900694e-08
sS'TotRmsAbvGrd'
p412
F2.2651624455345225e-05
sS'ElectricalMix'
p413
F-3.281663054396341e-09
sS'LotConfigCulDSac'
p414
F1.5897864773935386e-07
sS'KitchenQualFa'
p415
F-2.7745465880349606e-08
sS'Exterior1stVinylSd'
p416
F2.0080516490712703e-06
sS'HouseStyleSFoyer'
p417
F4.520195079961466e-08
sS'BsmtExposureGd'
p418
F3.8206131715201508e-07
sS'ExterQualFa'
p419
F-1.7746209123998244e-08
sS'RoofStyleHip'
p420
F9.0991276515008619e-07
sS'NeighborhoodNridgHt'
p421
F6.5922545416628801e-07
sS'GarageCondTA'
p422
F3.0917245875964509e-06
sS'NeighborhoodSawyerW'
p423
F1.5917571785895184e-07
sS'YrSold'
p424
F0.006137571215489572
sS'Exterior1stBrkComm'
p425
F-6.5123059609161956e-09
sS'Exterior2ndHdBoard'
p426
F2.6976367663893076e-07
sS'HouseStyle2Story'
p427
F1.5190545357767857e-06
sS'NeighborhoodSawyer'
p428
F1.355469949683349e-08
sS'NeighborhoodBlueste'
p429
F7.9570561336282563e-09
sS'PoolQCFa'
p430
F2.9648563422287264e-09
sS'PavedDriveP'
p431
F-1.3387601435950531e-08
sS'MiscFeatureGar2'
p432
F-6.4159064343601201e-10
sS'GarageFinishNA'
p433
F-3.2683503000640655e-08
sS'LotConfigCorner'
p434
F5.4364214176117001e-07
sS'MSZoningC (all)'
p435
F-3.0800359845809319e-08
sS'HeatingQCTA'
p436
F9.8755543061492287e-08
sS'Condition1RRNn'
p437
F2.2286131858125003e-08
sS'Exterior2ndMetalSd'
p438
F2.4920671909981992e-07
sS'LotShapeIR1'
p439
F1.3370082128548072e-06
sS'LotShapeIR2'
p440
F2.3160167453854805e-08
sS'Condition2Norm'
p441
F3.0556906652966396e-06
sS'HouseStyle1.5Unf'
p442
F7.7894544350382263e-09
sS'HeatingGasA'
p443
F3.1361914779227942e-06
sS'FenceGdWo'
p444
F3.6801872613236495e-08
sS'LotFrontage'
p445
F0.00018951659310667026
sS'GarageFinishRFn'
p446
F1.1804713868592856e-06
sS'Exterior1stWdShing'
p447
F1.595633907599877e-08
sS'FunctionalSev'
p448
F-3.5806567657166778e-09
sS'GarageArea'
p449
F0.0019520420582157293
sS'NeighborhoodNoRidge'
p450
F3.2127756355417684e-07
sS'LotConfigInside'
p451
F2.2438086332934616e-06
sS'Exterior1stStone'
p452
F6.5138189510155625e-09
sS'HeatingGasW'
p453
F-6.440127314903323e-08
sS'FunctionalMod'
p454
F-4.4859933076996767e-09
sS'GarageQualEx'
p455
F1.4047918172923081e-08
sS'SaleConditionFamily'
p456
F1.6996308438535517e-08
sS'ElectricalNA'
p457
F1.8520546500351985e-09
sS'RoofStyleGable'
p458
F2.1329081400641956e-06
sS'BsmtFinType1NA'
p459
F-2.5147380125355118e-08
sS'BldgTypeDuplex'
p460
F-8.1007712014516216e-09
sS'BsmtFullBath'
p461
F1.5310728731924321e-06
sS'Condition2Feedr'
p462
F6.0902149441547742e-11
sS'FireplaceQuFa'
p463
F4.1286154784067118e-08
sS'ExterQualEx'
p464
F4.9085375068852691e-07
sS'Exterior2ndOther'
p465
F8.7236580827692234e-09
sS'LotArea'
p466
F-0.0020077420591820641
sS'MasVnrTypeBrkCmn'
p467
F-6.276617955492123e-08
sS'BsmtFinType1Rec'
p468
F-5.6040639689860903e-09
sS'BsmtFinType2Unf'
p469
F2.9518243013151083e-06
sS'GrLivArea'
p470
F0.0057427526280660638
sS'PoolQCGd'
p471
F-2.8467022536554244e-08
sS'RoofMatlMetal'
p472
F-2.2299086899958827e-09
sS'HouseStyle2.5Unf'
p473
F1.3031778317578247e-08
sS'GarageFinishFin'
p474
F1.5124166909432149e-06
sS'KitchenQualTA'
p475
F2.5263173707180405e-07
sS'Exterior2ndAsphShn'
p476
F-1.7294422296753461e-09
sS'LandContourLow'
p477
F-1.9358514593374479e-07
sS'SaleTypeCOD'
p478
F1.6895108588999333e-08
sS'MasVnrTypeNA'
p479
F3.1587419174600127e-08
sS'NeighborhoodSomerst'
p480
F4.2220189197244516e-07
sS'FireplaceQuGd'
p481
F1.3171773739105852e-06
sS'BsmtFinType1Unf'
p482
F8.2346933018022241e-07
sS'BldgTypeTwnhs'
p483
F1.2026328637135478e-07
sS'X3SsnPorch'
p484
F1.3705613562211492e-05
sS'GarageTypeDetchd'
p485
F2.7851343226302801e-07
sS'RoofStyleMansard'
p486
F1.2739516249116176e-08
sS'MoSold'
p487
F1.9998546981412072e-05
sS'Exterior2ndImStucc'
p488
F6.607184532512979e-08
sS'NeighborhoodTimber'
p489
F3.3380120947782802e-08
sS'BsmtFinSF2'
p490
F3.7146730345733137e-05
sS'HouseStyle2.5Fin'
p491
F2.405683757912212e-08
sS'SaleTypeNew'
p492
F7.6202625701070176e-07
sS'FunctionalMin2'
p493
F9.9794228364778448e-09
sS'FireplaceQuNA'
p494
F6.6139209347065401e-07
sS'BsmtUnfSF'
p495
F0.0021621241050248504
sS'Condition2PosA'
p496
F7.7818127498784033e-09
sS'LotConfigFR2'
p497
F9.7567600436735755e-08
sS'HeatingQCGd'
p498
F2.6029844047904396e-07
sS'GarageCondFa'
p499
F-1.8143002659469161e-08
sS'BsmtFinType2Rec'
p500
F-6.2030154080505912e-08
sS'FenceMnWw'
p501
F6.6605733485892936e-09
sS'GarageTypeBasment'
p502
F2.1669066539139457e-08
sS'PoolQCEx'
p503
F2.940884117152999e-08
sS'BsmtCondTA'
p504
F2.8710215658583179e-06
sS'X2ndFlrSF'
p505
F0.0016442916191315498
sS'RoofMatlTar&Grv'
p506
F-6.2149572645883403e-09
sS'PoolQCNA'
p507
F3.0529766841023804e-06
sS'SaleConditionNormal'
p508
F2.2010353312687514e-06
sS'GarageFinishUnf'
p509
F3.9667878427773349e-07
sS'KitchenQualGd'
p510
F1.9987226959353131e-06
sS'X1stFlrSF'
p511
F0.00408983558171003
sS'GarageTypeCarPort'
p512
F-8.9332070210670803e-09
sS'NeighborhoodOldTown'
p513
F3.6855896271945998e-08
sS'BsmtQualFa'
p514
F-3.2446504248205565e-09
sS'FoundationSlab'
p515
F-1.1694155828432827e-08
sS'RoofMatlWdShngl'
p516
F2.4342501265637547e-08
sS'CentralAirN'
p517
F-7.7348508224385356e-08
sS'Condition2RRAe'
p518
F-2.8764810502423713e-09
sS'Exterior2ndWd Shng'
p519
F4.7262456590059155e-08
sS'GarageAge'
p520
F2.7897977023195347e-05
sS'BsmtCondGd'
p521
F2.2827114405960509e-07
sS'BldgType1Fam'
p522
F2.5168972163890952e-06
sS'MiscFeatureNA'
p523
F3.0813928482571454e-06
sS'LowQualFinSF'
p524
F8.625427224528979e-06
sS'Exterior1stPlywood'
p525
F1.0646712748705994e-07
sS'NeighborhoodEdwards'
p526
F-4.0744702172721032e-08
sS'BsmtFinType1BLQ'
p527
F6.9376170117878405e-08
sS'FireplaceQuPo'
p528
F3.3204408729327036e-09
sS'HeatingQCPo'
p529
F-1.9335045297393345e-10
sS'Condition1PosN'
p530
F4.5746393132505488e-08
sS'AlleyNA'
p531
F2.9455676765275938e-06
sS'RoofStyleShed'
p532
F-2.5546108082101166e-09
sS'Condition1Feedr'
p533
F-8.2642549073414769e-10
sS'Exterior2ndVinylSd'
p534
F1.9716700662816293e-06
sS'FireplaceQuTA'
p535
F8.2532921366341627e-07
sS'HalfBath'
p536
F1.8573457749859574e-06
sS'HouseStyleSLvl'
p537
F9.8464590937165442e-08
sS'LandContourBnk'
p538
F-2.6961225626289916e-08
sS'NeighborhoodBrkSide'
p539
F5.0579728432862244e-08
sS'GarageQualNA'
p540
F-3.2683503000640655e-08
sS'Exterior2ndBrk Cmn'
p541
F1.3745149372165948e-08
sS'Condition1PosA'
p542
F1.6803723355210553e-08
sS'LandSlopeGtl'
p543
F3.1825085600954976e-06
sS'WoodDeckSF'
p544
F0.00043145887577702286
sS'HouseStyle1.5Fin'
p545
F4.5043638526912614e-08
sS'SaleTypeConLD'
p546
F3.2951494647244551e-09
sS'MasVnrArea'
p547
F0.00067611384459007843
sS'Exterior2ndStucco'
p548
F2.7776856761396961e-09
sS'SaleConditionAlloca'
p549
F1.2894992853936871e-08
sS'LotConfigFR3'
p550
F1.2886335848866634e-08
sS'MasVnrTypeNone'
p551
F9.308943969460664e-07
sS'SaleTypeCon'
p552
F5.1946472032865767e-09
sS'ExterCondEx'
p553
F9.3087250311939065e-09
sS'NeighborhoodBrDale'
p554
F3.0093105564089963e-08
sS'Exterior1stHdBoard'
p555
F3.1042314547530647e-07
sS'GarageQualFa'
p556
F7.2373629778256947e-10
sS'HouseStyle1Story'
p557
F1.3042405727073732e-06
sS'BsmtExposureMn'
p558
F2.7889621758172516e-07
sS'SaleTypeWD'
p559
F2.2447510404476569e-06
sS'FunctionalTyp'
p560
F3.0557130529943088e-06
sS'TotalBsmtSF'
p561
F0.003930239893493637
sS'GarageType2Types'
p562
F-1.9191507375584956e-08
sS'Condition2PosN'
p563
F-2.6131196480628804e-09
sS'FunctionalMin1'
p564
F-5.7707578881969191e-09
sS'RoofMatlMembran'
p565
F-5.4760027031763915e-09
sS'ExterQualTA'
p566
F4.7965094133129625e-07
sS'Exterior1stAsbShng'
p567
F-8.4945404329808822e-09
sS'KitchenQualEx'
p568
F8.3327439195282354e-07
sS'GarageCondGd'
p569
F2.1918974524703523e-08
sS'RoofMatlWdShake'
p570
F1.3808143057267722e-08
sS'SaleTypeCWD'
p571
F4.993846868457972e-09
sS'SaleConditionPartial'
p572
F7.5845654131051574e-07
sS'BsmtQualTA'
p573
F2.936660391213149e-07
sS'LandContourLvl'
p574
F3.0849789041236327e-06
sS'HeatingGrav'
p575
F-9.3647886257153614e-09
sS'FenceGdPrv'
p576
F1.2127222044208413e-07
sS'LandSlopeMod'
p577
F6.2904586851863735e-08
sS'BsmtFinType2NA'
p578
F-1.8431464663863459e-08
sS'BsmtFinSF1'
p579
F0.0017309690581230363
sS'HeatingQCEx'
p580
F2.7023878146930155e-06
sS'LotShapeIR3'
p581
F-9.8142902338393894e-08
sS'GarageQualPo'
p582
F-3.3118045978626247e-09
sS'Condition1RRAn'
p583
F4.4369406370399781e-08
sS'ScreenPorch'
p584
F6.7889929699879961e-05
sS'BedroomAbvGr'
p585
F8.8315447556363834e-06
sS'BsmtFinType1ALQ'
p586
F2.185925757971651e-07
sS'BsmtFinType2ALQ'
p587
F6.3551198759620406e-08
sS'AlleyGrvl'
p588
F-1.2315994560744874e-08
sS'SaleConditionAbnorml'
p589
F7.0048764240948513e-08
sS'BsmtFinType2BLQ'
p590
F3.1036139723849365e-08
sS'Condition1RRAe'
p591
F-3.2692875789502685e-09
sS'CentralAirY'
p592
F3.1342318673039629e-06
sS'GarageTypeNA'
p593
F-3.2683503000640655e-08
sS'FenceNA'
p594
F2.7104691833026138e-06
sS'GarageCondPo'
p595
F-7.116431960379561e-09
sS'Exterior1stAsphShn'
p596
F-2.1985845790492496e-09
sS'NeighborhoodNPkVill'
p597
F3.0506741340130378e-08
sS'GarageCars'
p598
F7.3806039986786204e-06
sS'BsmtQualEx'
p599
F1.0001017447046793e-06
sS'NeighborhoodVeenker'
p600
F3.1085998546076917e-08
sS'NeighborhoodStoneBr'
p601
F2.1530625435962656e-07
sS'Id'
p602
F3.0568833590795828e-06
sS'FoundationStone'
p603
F1.0771035174354386e-08
saI2
I10
t.