((lp1
ccollections
defaultdict
p2
(c__builtin__
int
p3
tRp4
S'RoofStyleFlat'
p5
F5.0862881570899482e-06
sS'Condition1Artery'
p6
F-9.2254732646655761e-06
sS'Exterior1stCemntBd'
p7
F-8.3649154985139189e-06
sS'NeighborhoodGilbert'
p8
F1.1061316139369408e-05
sS'BsmtCondNA'
p9
F-4.1663829375988361e-06
sS'FenceMnPrv'
p10
F6.5351119564864714e-06
sS'OpenPorchSF'
p11
F-2.5068365144595693e-05
sS'NeighborhoodCrawfor'
p12
F-4.7434688738695501e-06
sS'LotShapeReg'
p13
F-6.7187707052139919e-05
sS'BsmtCondFa'
p14
F-1.012812082713058e-05
sS'GarageCars'
p15
F0.00011648049267954963
sS'GarageFinishUnf'
p16
F-1.591516737617898e-05
sS'Exterior1stMetalSd'
p17
F5.8250709778900923e-06
sS'HouseAge'
p18
F-0.0044933878517715601
sS'Exterior2ndCmentBd'
p19
F-1.5828953607809506e-05
sS'LandContourHLS'
p20
F9.7160522947653908e-06
sS'RoofStyleGambrel'
p21
F-1.0211705656561756e-06
sS'Exterior2ndAsbShng'
p22
F-4.3300525950219732e-06
sS'EnclosedPorch'
p23
F-0.0033142216817889508
sS'NeighborhoodBlmngtn'
p24
F-2.6205225926566017e-06
sS'Unnamed: 0'
p25
F-0.012332949921875501
sS'Exterior2ndStone'
p26
F1.7069724432186754e-07
sS'MasVnrTypeStone'
p27
F1.897009317781489e-05
sS'Condition1Norm'
p28
F3.5954586796433417e-06
sS'Exterior1stStucco'
p29
F-1.1796304168823179e-06
sS'MiscFeatureShed'
p30
F-1.9364275615237772e-05
sS'MiscFeatureOthr'
p31
F-7.2909389447524702e-07
sS'KitchenAbvGr'
p32
F-1.0643768728901835e-05
sS'Exterior1stWd Sdng'
p33
F-1.0165801495431834e-05
sS'BsmtFinType2GLQ'
p34
F-6.6686237243150072e-07
sS'NeighborhoodTimber'
p35
F-1.4378170894391987e-06
sS'FunctionalTyp'
p36
F8.9048765050718681e-06
sS'AlleyNA'
p37
F1.7756924948611813e-05
sS'TotalBsmtSF'
p38
F0.032801759522764762
sS'BsmtQualFa'
p39
F-6.6710069812885638e-06
sS'GarageQualTA'
p40
F1.7609030549279849e-05
sS'RoofMatlCompShg'
p41
F-3.5506098465236865e-06
sS'ElectricalSBrkr'
p42
F2.5969237306498902e-05
sS'BsmtExposureAv'
p43
F6.1530328153831571e-05
sS'FoundationStone'
p44
F-8.8662576859514999e-06
sS'PoolArea'
p45
F0.0040873097658176965
sS'FullBath'
p46
F5.4718385292790782e-05
sS'BsmtFinType1LwQ'
p47
F-3.9675971748654068e-06
sS'MSZoningRM'
p48
F-4.7699043836592307e-05
sS'MSZoningRL'
p49
F5.8177114908657109e-05
sS'NeighborhoodCollgCr'
p50
F3.3505952335861977e-05
sS'Exterior1stImStucc'
p51
F2.8324273063455827e-07
sS'MSZoningRH'
p52
F-2.5138897872217072e-06
sS'MSSubClass'
p53
F-0.0063984450066882793
sS'FoundationCBlock'
p54
F4.8590666474139886e-06
sS'Exterior2ndBrkFace'
p55
F-4.8134247615092962e-06
sS'HeatingQCTA'
p56
F3.355376054948859e-05
sS'FoundationPConc'
p57
F4.621843506930736e-05
sS'BsmtFinType1GLQ'
p58
F3.0502945234785162e-05
sS'NeighborhoodNAmes'
p59
F-3.308397897911588e-05
sS'BsmtQualGd'
p60
F7.8173336863551263e-06
sS'NeighborhoodNWAmes'
p61
F4.0214393646129177e-07
sS'Condition1PosN'
p62
F-2.3999413106103802e-06
sS'Exterior2ndWd Sdng'
p63
F-1.0916984216645912e-05
sS'RemodAddAge'
p64
F-0.0023492038195446169
sS'PavedDriveN'
p65
F-3.1220960994310878e-06
sS'BsmtCondPo'
p66
F-5.8251113323059061e-07
sS'GarageCondEx'
p67
F-1.3290228520226801e-07
sS'FoundationWood'
p68
F-5.028619181254259e-07
sS'Exterior1stVinylSd'
p69
F7.0652197369237887e-06
sS'PavedDriveY'
p70
F7.8327209416991622e-06
sS'BldgTypeTwnhsE'
p71
F-1.7237354493396474e-05
sS'PavedDriveP'
p72
F8.2921500082897879e-07
sS'NeighborhoodSWISU'
p73
F-1.1024784521753882e-05
sS'Exterior1stBrkFace'
p74
F5.3667259292687076e-07
sS'SaleConditionAbnorml'
p75
F-3.3746283217559951e-05
sS'Condition2RRNn'
p76
F4.546952523264775e-08
sS'GarageQualGd'
p77
F4.6250255270422684e-06
sS'GarageTypeNA'
p78
F-1.477695499141961e-05
sS'SaleConditionAlloca'
p79
F3.4013209047873637e-06
sS'AlleyPave'
p80
F-6.6909289883581665e-06
sS'HeatingFloor'
p81
F-5.681146910125081e-08
sS'HeatingQCFa'
p82
F-7.6769342092761548e-06
sS'GarageTypeCarPort'
p83
F-5.2598173577680613e-07
sS'OverallCond'
p84
F6.1490779528469711e-05
sS'BsmtFinType2LwQ'
p85
F-2.2125898728613812e-06
sS'SaleTypeConLw'
p86
F-1.7430543158495718e-06
sS'ExterCondTA'
p87
F-1.3732512426651392e-05
sS'FireplaceQuTA'
p88
F7.5199319894542277e-07
sS'RoofStyleHip'
p89
F1.4071511244932864e-05
sS'MasVnrTypeBrkFace'
p90
F-1.0676466930640298e-06
sS'GarageTypeAttchd'
p91
F4.1731851015410055e-05
sS'BsmtExposureNA'
p92
F-3.0344530958050274e-06
sS'GrLivArea'
p93
F0.049735559919145522
sS'Exterior2ndCBlock'
p94
F-1.6884093319541833e-07
sS'ElectricalFuseP'
p95
F-3.7490025800406908e-07
sS'BldgType2fmCon'
p96
F-1.9505488738231059e-05
sS'Fireplaces'
p97
F-1.493591294238012e-06
sS'NeighborhoodNPkVill'
p98
F-2.2292448687201126e-06
sS'Exterior2ndPlywood'
p99
F-1.4911702125944272e-05
sS'SaleTypeConLI'
p100
F-9.1855715512206459e-08
sS'FunctionalMaj1'
p101
F-5.4956821466679363e-06
sS'OverallQual'
p102
F0.00020407882277432223
sS'FunctionalMaj2'
p103
F-1.2145470828693134e-06
sS'ElectricalFuseA'
p104
F-1.551433325367793e-05
sS'BsmtHalfBath'
p105
F1.8782106155387836e-05
sS'Condition2Artery'
p106
F-6.4492791099295585e-07
sS'ElectricalFuseF'
p107
F-4.4164331978522259e-06
sS'TotRmsAbvGrd'
p108
F0.00017174752834665796
sS'ElectricalMix'
p109
F-2.0472726007655698e-07
sS'Condition1RRNe'
p110
F3.6925427498516962e-07
sS'LotConfigCulDSac'
p111
F1.6568482662623669e-05
sS'FireplaceQuEx'
p112
F8.3762849320933588e-07
sS'HouseStyleSFoyer'
p113
F-6.5961111152159655e-06
sS'BsmtExposureGd'
p114
F1.469930895240964e-05
sS'NeighborhoodMeadowV'
p115
F-6.4996029131614465e-06
sS'BsmtExposureMn'
p116
F-6.2405983343467923e-06
sS'GarageCondTA'
p117
F2.2634654680640761e-05
sS'NeighborhoodSawyerW'
p118
F2.3556127047177451e-07
sS'FoundationBrkTil'
p119
F-3.3517910682422537e-05
sS'ExterQualTA'
p120
F-3.9267331346895968e-05
sS'Exterior1stBrkComm'
p121
F-4.9729620617018595e-07
sS'Exterior2ndHdBoard'
p122
F5.2634661278806769e-05
sS'HouseStyle2Story'
p123
F3.8356466454374475e-06
sS'SaleTypeOth'
p124
F-8.7588456360131903e-07
sS'NeighborhoodBlueste'
p125
F-2.2262065112095477e-07
sS'MiscFeatureTenC'
p126
F-2.8988775398231566e-07
sS'GarageTypeBuiltIn'
p127
F4.777050900657611e-05
sS'GarageFinishNA'
p128
F-1.477695499141961e-05
sS'LotConfigCorner'
p129
F4.435889805370559e-05
sS'MSZoningC (all)'
p130
F-2.5722030227176223e-06
sS'MiscFeatureGar2'
p131
F5.6283899313017972e-06
sS'Condition1RRNn'
p132
F-7.0407921630334889e-08
sS'Exterior2ndMetalSd'
p133
F-2.6710085814302657e-06
sS'LotShapeIR1'
p134
F5.7463996110321799e-05
sS'LotShapeIR2'
p135
F1.3932141083812845e-05
sS'Condition2Norm'
p136
F2.158111141958894e-06
sS'HouseStyle1.5Unf'
p137
F-1.2973659907393153e-06
sS'HeatingGasA'
p138
F1.2599728754477898e-05
sS'Exterior2ndStucco'
p139
F-2.4647316086008976e-06
sS'LotFrontage'
p140
F0.0036291673164878606
sS'NeighborhoodSawyer'
p141
F2.5058679501967788e-05
sS'Exterior1stWdShing'
p142
F-5.1173585536747975e-06
sS'Exterior1stPlywood'
p143
F-1.4546559496515388e-05
sS'GarageArea'
p144
F0.02793992636132954
sS'LotConfigInside'
p145
F-7.4954352584684879e-05
sS'Exterior1stStone'
p146
F1.4859100925151197e-07
sS'HeatingGasW'
p147
F-4.7219010213590944e-06
sS'FunctionalMod'
p148
F3.616426284443691e-06
sS'GarageQualEx'
p149
F9.1045994495519892e-07
sS'Condition2PosN'
p150
F-7.0326647159527457e-07
sS'SaleConditionFamily'
p151
F-1.0962901320803853e-05
sS'RoofStyleGable'
p152
F-1.8577640921991646e-05
sS'BsmtFinType1NA'
p153
F-4.1663829375988361e-06
sS'BldgTypeDuplex'
p154
F-6.0630514540849166e-06
sS'BsmtFullBath'
p155
F-9.1887756885570528e-06
sS'BsmtFinType2NA'
p156
F-4.0543125607644541e-06
sS'ExterQualEx'
p157
F1.6272069720720817e-05
sS'GarageTypeDetchd'
p158
F-5.5781108247625307e-05
sS'Exterior2ndOther'
p159
F1.0677865942785686e-07
sS'LotArea'
p160
F-0.0015238242161613117
sS'MasVnrTypeBrkCmn'
p161
F-7.3429694755975141e-06
sS'BsmtFinType1Rec'
p162
F-1.0451125538162479e-05
sS'HouseStyleSLvl'
p163
F4.8902797772917219e-05
sS'KitchenQualTA'
p164
F-2.6058950711939705e-05
sS'MiscVal'
p165
F0.014949168144648471
sS'BsmtFinType2Unf'
p166
F1.303167661864226e-05
sS'ExterCondGd'
p167
F2.5644070409624776e-05
sS'PoolQCGd'
p168
F6.0180268098443419e-06
sS'RoofMatlMetal'
p169
F5.6669426773826901e-07
sS'HouseStyle2.5Unf'
p170
F-2.7217473861687043e-06
sS'GarageFinishFin'
p171
F2.3504369477735984e-05
sS'KitchenQualFa'
p172
F-8.5638134490793331e-06
sS'Exterior2ndAsphShn'
p173
F-2.2708999667461231e-07
sS'LandContourLow'
p174
F-2.839826567255304e-06
sS'SaleTypeCOD'
p175
F-8.5810825602885089e-06
sS'MasVnrTypeNA'
p176
F3.4827788888428864e-07
sS'FireplaceQuGd'
p177
F2.2838070627812881e-05
sS'Condition2Feedr'
p178
F-9.6126942687899263e-07
sS'NeighborhoodNoRidge'
p179
F5.1604624808546675e-06
sS'X3SsnPorch'
p180
F0.00037660336051310102
sS'NeighborhoodMitchel'
p181
F1.4526198506688764e-06
sS'BsmtFinSF1'
p182
F0.025777773270405351
sS'MoSold'
p183
F6.7695954744480139e-05
sS'Exterior2ndImStucc'
p184
F-7.4370952982205693e-07
sS'HeatingQCEx'
p185
F1.5908520410816919e-05
sS'HouseStyle2.5Fin'
p186
F-1.3289378570049516e-06
sS'SaleTypeNew'
p187
F1.4026601902998521e-05
sS'BsmtFinType1Unf'
p188
F8.9295139563990923e-06
sS'BsmtUnfSF'
p189
F0.0013913806530003964
sS'Condition1RRAn'
p190
F2.1971623748371129e-06
sS'LotConfigFR3'
p191
F-2.900389802752283e-07
sS'LotConfigFR2'
p192
F1.9856850691727972e-05
sS'HeatingQCGd'
p193
F-3.6137003928007885e-05
sS'GarageCondFa'
p194
F-4.1498057348120805e-06
sS'BsmtFinType2Rec'
p195
F7.9083697114043169e-07
sS'FenceMnWw'
p196
F-3.205712299528825e-06
sS'GarageTypeBasment'
p197
F-3.6352768144689798e-06
sS'RoofMatlRoll'
p198
F4.4425356462292256e-08
sS'ExterQualFa'
p199
F-3.0396003205452618e-06
sS'X2ndFlrSF'
p200
F0.018625869410348803
sS'RoofMatlTar&Grv'
p201
F5.0229814097313238e-06
sS'PoolQCNA'
p202
F-2.0283054214120378e-07
sS'SaleConditionNormal'
p203
F2.7023108216657574e-05
sS'ExterCondFa'
p204
F-5.8466135704999544e-06
sS'KitchenQualGd'
p205
F-2.7853355866352315e-06
sS'X1stFlrSF'
p206
F0.033365993174217692
sS'FenceGdWo'
p207
F-8.0854437696115912e-06
sS'NeighborhoodOldTown'
p208
F-2.4165248966100929e-05
sS'PoolQCFa'
p209
F-3.5852083089211871e-07
sS'ScreenPorch'
p210
F0.0017554530709489918
sS'FoundationSlab'
p211
F-2.6506315871249022e-06
sS'RoofMatlWdShngl'
p212
F2.9315028892805229e-06
sS'BedroomAbvGr'
p213
F2.6755624383327133e-05
sS'Condition2RRAe'
p214
F5.6283899313017972e-06
sS'Exterior2ndWd Shng'
p215
F2.2672716337448996e-06
sS'Condition2RRAn'
p216
F-3.8764830778413176e-07
sS'MSZoningFV'
p217
F1.4786158097170449e-07
sS'NeighborhoodNridgHt'
p218
F1.1527928864473789e-05
sS'BsmtCondGd'
p219
F1.8440287333751867e-05
sS'Utilities'
p220
F5.5105798565965543e-06
sS'BldgType1Fam'
p221
F6.5470646297066234e-05
sS'MiscFeatureNA'
p222
F2.0294707175490359e-05
sS'LowQualFinSF'
p223
F-0.0022563026654204101
sS'LandSlopeSev'
p224
F-1.5115795937569009e-05
sS'NeighborhoodEdwards'
p225
F1.1191678530021163e-06
sS'BsmtFinType1BLQ'
p226
F-4.2457704982602843e-06
sS'FireplaceQuPo'
p227
F-4.7286863865256963e-06
sS'HeatingQCPo'
p228
F-1.0850297992426237e-07
sS'FunctionalSev'
p229
F-2.0226242776970236e-07
sS'NeighborhoodIDOTRR'
p230
F-7.2380154856848093e-06
sS'Condition1Feedr'
p231
F9.994916692119373e-06
sS'Exterior2ndVinylSd'
p232
F1.0127994613775333e-05
sS'LandContourLvl'
p233
F-1.1271530669703424e-05
sS'ExterQualGd'
p234
F3.1574701789817373e-05
sS'HalfBath'
p235
F3.1556031597728632e-05
sS'PoolQCEx'
p236
F8.3164406286000496e-08
sS'LandContourBnk'
p237
F9.9351447852903334e-06
sS'NeighborhoodBrkSide'
p238
F-9.0536000943401859e-06
sS'GarageQualNA'
p239
F-1.477695499141961e-05
sS'Exterior2ndBrk Cmn'
p240
F-2.6910656303253864e-06
sS'Condition1PosA'
p241
F-1.2954811799675247e-07
sS'Id'
p242
F5.5398398430970248e-06
sS'ElectricalNA'
p243
F8.0996506208719918e-08
sS'WoodDeckSF'
p244
F0.017884584167350281
sS'HouseStyle1.5Fin'
p245
F-4.3763579622532731e-05
sS'BsmtQualNA'
p246
F-4.1663829375988361e-06
sS'FireplaceQuNA'
p247
F-2.0547457907627789e-05
sS'HeatingWall'
p248
F-1.9520138584885777e-07
sS'LandSlopeGtl'
p249
F3.8517439708919655e-06
sS'Condition2PosA'
p250
F4.0498136185504681e-07
sS'BsmtFinSF2'
p251
F0.0056326055993591029
sS'MasVnrTypeNone'
p252
F-5.367915054940551e-06
sS'SaleTypeCon'
p253
F4.0881535779896888e-07
sS'ExterCondEx'
p254
F9.9085434777967869e-08
sS'NeighborhoodBrDale'
p255
F-8.0382353084017191e-06
sS'HeatingOthW'
p256
F-7.3889763983169079e-07
sS'Exterior1stHdBoard'
p257
F3.6301212412161492e-05
sS'GarageQualFa'
p258
F-2.5916475810285738e-06
sS'BsmtFinType1ALQ'
p259
F-1.1061743199200201e-05
sS'HouseStyle1Story'
p260
F8.5091373964041661e-06
sS'FenceGdPrv'
p261
F-7.0985134401107643e-06
sS'SaleTypeWD'
p262
F-1.328554088252903e-06
sS'GarageFinishRFn'
p263
F1.2727592732959664e-05
sS'ExterCondPo'
p264
F-6.2419000415442411e-07
sS'GarageType2Types'
p265
F-9.2431983895984261e-06
sS'BsmtExposureNo'
p266
F-6.1414745832992173e-05
sS'FunctionalMin1'
p267
F-5.9446123294963435e-06
sS'RoofMatlMembran'
p268
F3.7685835002282391e-08
sS'YrSold'
p269
F0.011122992733116495
sS'FunctionalMin2'
p270
F5.875641040384724e-06
sS'Exterior1stAsbShng'
p271
F-4.3885013667496348e-06
sS'MasVnrArea'
p272
F0.011065913603364197
sS'KitchenQualEx'
p273
F4.2947939590751443e-05
sS'RoofMatlClyTile'
p274
F7.8968395483399019e-07
sS'Exterior1stCBlock'
p275
F-1.6884093319541833e-07
sS'SaleTypeCWD'
p276
F-9.9896397594828596e-07
sS'SaleConditionPartial'
p277
F2.0264169619867547e-05
sS'BsmtQualTA'
p278
F-2.7945983118056826e-05
sS'GarageCondGd'
p279
F3.1301227987313005e-06
sS'HeatingGrav'
p280
F-1.3470773952401091e-06
sS'RoofStyleShed'
p281
F5.5429049154237537e-06
sS'LandSlopeMod'
p282
F1.6803891809774017e-05
sS'SaleConditionAdjLand'
p283
F-4.3957435985172132e-07
sS'RoofStyleMansard'
p284
F4.3794701329822049e-07
sS'BldgTypeTwnhs'
p285
F-1.7124911768256541e-05
sS'FenceNA'
p286
F1.7394397395861735e-05
sS'LotShapeIR3'
p287
F1.3314097011027455e-06
sS'GarageQualPo'
p288
F-2.3607360573207848e-07
sS'RoofMatlWdShake'
p289
F-3.0252402342795447e-07
sS'SaleTypeConLD'
p290
F4.723817801752317e-06
sS'CentralAirN'
p291
F-2.3635634229975511e-05
sS'BsmtCondTA'
p292
F1.976567407305235e-06
sS'NeighborhoodStoneBr'
p293
F1.3892482193760052e-05
sS'AlleyGrvl'
p294
F-5.5261561171568337e-06
sS'BsmtFinType2BLQ'
p295
F-1.2703369697191265e-05
sS'Condition1RRAe'
p296
F1.2084184364150664e-06
sS'CentralAirY'
p297
F2.9175474073072348e-05
sS'GarageCondNA'
p298
F-1.477695499141961e-05
sS'NeighborhoodClearCr'
p299
F-1.362346870629412e-06
sS'GarageCondPo'
p300
F-1.1652746248411799e-06
sS'GarageAge'
p301
F-0.0019473583724252245
sS'NeighborhoodSomerst'
p302
F9.2797617994533266e-06
sS'BsmtQualEx'
p303
F3.6505879193686235e-05
sS'NeighborhoodVeenker'
p304
F4.5632508317465791e-06
sS'BsmtFinType2ALQ'
p305
F1.1354460756562837e-05
sS'FireplaceQuFa'
p306
F6.3882918172829553e-06
sS'Exterior1stAsphShn'
p307
F-1.9126564955768489e-07
sag2
(g3
tRp308
S'RoofStyleFlat'
p309
F-7.4023658314909664e-06
sS'Condition1Artery'
p310
F-7.9742847009798884e-06
sS'Exterior1stCemntBd'
p311
F4.0116494219417281e-06
sS'NeighborhoodGilbert'
p312
F-2.2171640536867464e-06
sS'BsmtCondNA'
p313
F-9.5045666763708523e-07
sS'FunctionalMaj1'
p314
F-2.5942875690890456e-06
sS'OpenPorchSF'
p315
F0.00062513022631559354
sS'NeighborhoodCrawfor'
p316
F7.0141811377017628e-06
sS'LotShapeReg'
p317
F9.0243325633666583e-06
sS'OverallQual'
p318
F0.00016029074468922985
sS'ExterCondFa'
p319
F-3.8505085313181519e-06
sS'Exterior1stMetalSd'
p320
F8.1679362791656629e-06
sS'HouseAge'
p321
F-0.0033954883901892272
sS'Exterior2ndCmentBd'
p322
F9.5616405141031181e-06
sS'LandContourHLS'
p323
F1.2609310300529455e-06
sS'RoofStyleGambrel'
p324
F-5.6920711414714515e-07
sS'Exterior2ndCBlock'
p325
F-2.1501976853352536e-07
sS'HeatingWall'
p326
F1.6004217014553877e-07
sS'Exterior2ndAsbShng'
p327
F-1.7651847481891886e-06
sS'EnclosedPorch'
p328
F-0.0045890831965359957
sS'BldgTypeTwnhs'
p329
F-2.8703037287653619e-06
sS'NeighborhoodBlmngtn'
p330
F1.8068537039338683e-06
sS'Unnamed: 0'
p331
F0.0035286443897438961
sS'Exterior2ndStone'
p332
F1.0742656655147303e-07
sS'MasVnrTypeStone'
p333
F1.6911449305468107e-05
sS'Condition1Norm'
p334
F1.3568226569744653e-05
sS'MiscFeatureShed'
p335
F-3.9138914267593607e-06
sS'BsmtHalfBath'
p336
F9.0513317695155623e-06
sS'KitchenAbvGr'
p337
F-1.685611556951895e-05
sS'Exterior1stWd Sdng'
p338
F-2.8519094348849669e-05
sS'SaleConditionAdjLand'
p339
F-1.9054669427359066e-07
sS'BsmtFinType2GLQ'
p340
F1.0939609604481118e-06
sS'NeighborhoodTimber'
p341
F6.376925594602388e-06
sS'ExterCondPo'
p342
F-3.7286293862208512e-07
sS'BsmtQualFa'
p343
F-1.7593529713518649e-06
sS'GarageQualTA'
p344
F2.1348585828396847e-05
sS'RoofMatlCompShg'
p345
F7.6110753942148704e-06
sS'ElectricalSBrkr'
p346
F1.1676674017954551e-05
sS'SaleTypeOth'
p347
F-3.7170706787774047e-07
sS'BsmtExposureAv'
p348
F7.3188301018166947e-06
sS'LandSlopeSev'
p349
F3.6539002311945774e-06
sS'PoolArea'
p350
F-0.0060915840553037075
sS'FullBath'
p351
F2.446742820448805e-05
sS'BsmtFinType1LwQ'
p352
F-3.8645770388905511e-06
sS'MSZoningRM'
p353
F-2.4151713236800776e-05
sS'MSZoningRL'
p354
F1.8679441785426338e-05
sS'NeighborhoodCollgCr'
p355
F1.6222934058963413e-05
sS'Exterior1stImStucc'
p356
F-2.6249636488156078e-07
sS'MSZoningRH'
p357
F-3.0713092218755661e-06
sS'MSSubClass'
p358
F-0.0022862251684472065
sS'FoundationCBlock'
p359
F-2.905985637859981e-05
sS'FoundationPConc'
p360
F3.6222831376247569e-05
sS'BsmtFinType1GLQ'
p361
F2.8121724489421723e-05
sS'NeighborhoodNAmes'
p362
F-2.5179225684352619e-05
sS'BsmtCondFa'
p363
F-7.3960104774432885e-06
sS'GarageTypeCarPort'
p364
F-1.0754642654698987e-06
sS'BsmtQualGd'
p365
F-7.3210704952509235e-07
sS'NeighborhoodNWAmes'
p366
F1.1658811916506109e-06
sS'HeatingFloor'
p367
F9.1462539953546465e-08
sS'Exterior2ndWd Sdng'
p368
F-1.7533352348494985e-05
sS'RemodAddAge'
p369
F-0.0025771535647086722
sS'PavedDriveN'
p370
F-1.0354498811563527e-05
sS'MiscFeatureGar2'
p371
F-1.3113074639230843e-06
sS'AlleyPave'
p372
F-1.5309061235532808e-06
sS'MasVnrTypeBrkCmn'
p373
F-8.5692020705273292e-07
sS'FireplaceQuEx'
p374
F7.6253924672216319e-06
sS'PavedDriveY'
p375
F6.5586215949304762e-06
sS'BldgTypeTwnhsE'
p376
F7.82694556549631e-06
sS'PavedDriveP'
p377
F3.5639264335174301e-07
sS'RoofMatlClyTile'
p378
F-2.3524318212198172e-06
sS'FoundationWood'
p379
F-3.1434610447955666e-07
sS'Exterior1stBrkFace'
p380
F3.1318743011169603e-06
sS'SaleConditionAbnorml'
p381
F-1.1058045080607119e-05
sS'Condition2RRNn'
p382
F1.9845733917830576e-07
sS'BsmtCondPo'
p383
F-4.5659285063520573e-07
sS'GarageTypeNA'
p384
F-8.3935661444660371e-06
sS'MiscFeatureOthr'
p385
F-2.125938173060036e-07
sS'Condition1Feedr'
p386
F-5.2755944294255646e-06
sS'GarageCondEx'
p387
F-8.4739435406722846e-08
sS'FoundationBrkTil'
p388
F-1.1611875470871605e-05
sS'GarageCondFa'
p389
F-1.1666026716211903e-06
sS'NeighborhoodVeenker'
p390
F-1.0637402067975023e-06
sS'HeatingQCFa'
p391
F-4.3902160723161616e-06
sS'MSZoningFV'
p392
F7.4328729869892689e-06
sS'OverallCond'
p393
F5.8298659921806943e-06
sS'BsmtFinType2LwQ'
p394
F6.7112666591386181e-07
sS'SaleTypeConLw'
p395
F5.9149651072802833e-07
sS'ExterCondTA'
p396
F-6.5385131357571834e-07
sS'FireplaceQuTA'
p397
F-1.2274897031481483e-06
sS'NeighborhoodMeadowV'
p398
F-1.4255399842442722e-06
sS'MasVnrTypeBrkFace'
p399
F-1.1327781732247194e-06
sS'GarageTypeAttchd'
p400
F2.8178477250072107e-05
sS'BsmtExposureNA'
p401
F-5.0370757091198796e-07
sS'ExterCondGd'
p402
F1.3290738353422419e-06
sS'NeighborhoodClearCr'
p403
F-2.2817732884097615e-06
sS'ElectricalFuseP'
p404
F-2.2071637585581203e-07
sS'BldgType2fmCon'
p405
F-7.2882361561678178e-06
sS'Fireplaces'
p406
F1.7131121347707269e-05
sS'LotFrontage'
p407
F0.0025706185743428972
sS'NeighborhoodNPkVill'
p408
F1.2762158143548165e-07
sS'Exterior2ndPlywood'
p409
F-2.2665723484695663e-05
sS'SaleTypeConLI'
p410
F-1.2391805565024806e-07
sS'FenceMnPrv'
p411
F1.2285151568996325e-06
sS'Utilities'
p412
F-2.8820271693378792e-06
sS'FunctionalMaj2'
p413
F-8.7478122375842043e-07
sS'ElectricalFuseA'
p414
F-1.2646147344979663e-05
sS'BsmtExposureNo'
p415
F-2.1434736620007851e-05
sS'Condition2Artery'
p416
F-5.67466572038669e-07
sS'ElectricalFuseF'
p417
F-2.1794288393717157e-06
sS'TotRmsAbvGrd'
p418
F-3.3795118185953087e-05
sS'PoolQCEx'
p419
F2.6760236905333883e-07
sS'Condition1RRNe'
p420
F-1.1556159318437416e-07
sS'LotConfigCulDSac'
p421
F-6.9861468489233278e-07
sS'SaleTypeConLD'
p422
F9.5296508812328936e-07
sS'Exterior1stVinylSd'
p423
F3.5871639263977083e-05
sS'HouseStyleSFoyer'
p424
F-4.9044867320409349e-07
sS'BsmtExposureGd'
p425
F1.2829826127707945e-05
sS'ExterQualFa'
p426
F-1.9429982813710346e-06
sS'RoofStyleHip'
p427
F4.1901675105750856e-06
sS'BsmtExposureMn'
p428
F-1.6496966118860678e-06
sS'GarageCondTA'
p429
F1.3788298299363493e-05
sS'NeighborhoodSawyerW'
p430
F-1.279714670962389e-06
sS'YrSold'
p431
F-0.0069287531514462862
sS'Exterior1stBrkComm'
p432
F-3.4976953656099442e-07
sS'Exterior2ndHdBoard'
p433
F-6.0226783927559942e-06
sS'HouseStyle2Story'
p434
F1.5171078604749541e-05
sS'NeighborhoodSawyer'
p435
F4.1457416990488411e-08
sS'NeighborhoodBlueste'
p436
F-1.4804812539723583e-07
sS'GarageTypeBuiltIn'
p437
F1.2534039611747089e-05
sS'GarageFinishNA'
p438
F-8.3935661444660371e-06
sS'MSZoningC (all)'
p439
F-2.328776887020495e-06
sS'BsmtQualTA'
p440
F-3.7436058732282362e-05
sS'FunctionalMin1'
p441
F-4.902519642356971e-06
sS'Condition1RRNn'
p442
F3.2422874534105865e-07
sS'HeatingQCEx'
p443
F5.9595632901886452e-05
sS'LotShapeIR1'
p444
F-1.4681447738902534e-05
sS'LotShapeIR2'
p445
F1.5719799411394207e-06
sS'Condition2Norm'
p446
F4.0182213839936212e-07
sS'HouseStyle1.5Unf'
p447
F-8.9155119811973951e-08
sS'HeatingGasA'
p448
F-2.8038589411450925e-06
sS'Exterior2ndStucco'
p449
F-4.6950071545304936e-06
sS'MasVnrTypeNone'
p450
F-1.9299811040894772e-05
sS'GarageFinishRFn'
p451
F2.4938058358831538e-05
sS'Exterior1stWdShing'
p452
F-4.5357333249245956e-06
sS'FunctionalSev'
p453
F-4.3076374466948145e-07
sS'GarageArea'
p454
F0.010990706264744696
sS'ElectricalMix'
p455
F-2.5355179066104217e-07
sS'LotConfigInside'
p456
F1.0595117153241148e-05
sS'Exterior1stStone'
p457
F1.3016945495913815e-08
sS'HeatingGasW'
p458
F-2.1881272471265789e-07
sS'FunctionalMod'
p459
F-7.0746492685313459e-06
sS'GarageQualEx'
p460
F7.4137387696873306e-07
sS'SaleConditionFamily'
p461
F-7.2393389244586044e-07
sS'ElectricalNA'
p462
F1.8368575963238701e-07
sS'RoofStyleGable'
p463
F1.6373699739051765e-06
sS'NeighborhoodMitchel'
p464
F-2.7710914114134727e-06
sS'BldgTypeDuplex'
p465
F-8.9592671217139645e-06
sS'BsmtFullBath'
p466
F3.5470201566732124e-06
sS'Condition2Feedr'
p467
F-9.617809546331946e-07
sS'FireplaceQuFa'
p468
F-6.8138135713227137e-06
sS'ExterQualEx'
p469
F1.5469083171104092e-05
sS'GarageTypeBasment'
p470
F-3.5177438121870938e-06
sS'Exterior2ndOther'
p471
F1.2953916339074023e-07
sS'LotArea'
p472
F0.00029782843076728462
sS'NeighborhoodSWISU'
p473
F-5.4612743149116348e-06
sS'BsmtFinType1Rec'
p474
F-1.3167858286773013e-05
sS'RoofMatlMetal'
p475
F3.834127758158349e-07
sS'RoofMatlWdShngl'
p476
F-1.2898205222220264e-06
sS'BsmtFinType2Unf'
p477
F-3.415845859459789e-06
sS'GrLivArea'
p478
F-0.00073082282782222885
sS'PoolQCGd'
p479
F-9.1113982512936742e-06
sS'NeighborhoodNridgHt'
p480
F2.3253118518618563e-05
sS'HouseStyle2.5Unf'
p481
F-2.736154426440772e-06
sS'GarageFinishFin'
p482
F1.8187876121975906e-05
sS'KitchenQualFa'
p483
F-3.2976815892331168e-06
sS'Exterior2ndAsphShn'
p484
F-1.5438380832572062e-07
sS'LandContourLow'
p485
F-5.0900475703753956e-07
sS'SaleTypeCOD'
p486
F-7.828414863185372e-06
sS'MasVnrTypeNA'
p487
F9.3857554242284976e-07
sS'NeighborhoodSomerst'
p488
F1.1764889255729802e-05
sS'FireplaceQuGd'
p489
F8.9187443463591415e-06
sS'BsmtFinType1Unf'
p490
F-5.6031386191812576e-06
sS'NeighborhoodNoRidge'
p491
F7.9898820158147746e-06
sS'X3SsnPorch'
p492
F0.00048155797441438525
sS'GarageTypeDetchd'
p493
F-3.0870006736608241e-05
sS'RoofStyleMansard'
p494
F-1.7595133537255035e-07
sS'MoSold'
p495
F-5.4620748102762147e-05
sS'Exterior2ndImStucc'
p496
F8.333262432182222e-07
sS'FireplaceQuNA'
p497
F-1.1757914658822046e-05
sS'HouseStyle2.5Fin'
p498
F-1.3977412100800782e-06
sS'SaleTypeNew'
p499
F2.3787729731499847e-05
sS'ExterQualGd'
p500
F2.7624972703234604e-05
sS'FunctionalMin2'
p501
F3.4060685092696007e-06
sS'BsmtUnfSF'
p502
F0.0053256624866693863
sS'SaleTypeCon'
p503
F5.2382703263411553e-07
sS'LotConfigFR3'
p504
F-2.9328900278324568e-07
sS'LotConfigFR2'
p505
F5.4803346585988413e-06
sS'HeatingQCGd'
p506
F-1.435921083439239e-05
sS'Condition2PosN'
p507
F-1.1045599160569353e-06
sS'BsmtFinType2Rec'
p508
F5.9523319854873322e-07
sS'FenceMnWw'
p509
F-1.521090256238675e-06
sS'RoofStyleShed'
p510
F-1.1194977767509057e-06
sS'RoofMatlRoll'
p511
F4.3513812024637662e-08
sS'BsmtCondTA'
p512
F-8.4352083097430644e-06
sS'X2ndFlrSF'
p513
F0.0038600241311011808
sS'PoolQCNA'
p514
F5.6436640417400156e-06
sS'SaleConditionNormal'
p515
F-9.5469021924572465e-06
sS'GarageFinishUnf'
p516
F-3.8171852909622639e-05
sS'KitchenQualGd'
p517
F2.7035669906397818e-05
sS'X1stFlrSF'
p518
F-0.0032739002856600787
sS'BsmtFinType1NA'
p519
F-9.5045666763708523e-07
sS'NeighborhoodOldTown'
p520
F-1.4525228502408861e-05
sS'PoolQCFa'
p521
F-2.3935273278100037e-07
sS'FoundationSlab'
p522
F-2.6353108669209167e-07
sS'NeighborhoodIDOTRR'
p523
F-4.7655177100562172e-06
sS'CentralAirN'
p524
F-1.5908717339343901e-05
sS'Condition2RRAe'
p525
F-1.3113074639230843e-06
sS'Condition2RRAn'
p526
F-3.8658435032260479e-07
sS'GarageAge'
p527
F-0.0023981286752700775
sS'BsmtCondGd'
p528
F1.3798783732177329e-05
sS'Exterior2ndMetalSd'
p529
F1.1483559593358161e-05
sS'BldgType1Fam'
p530
F7.8513768678694666e-06
sS'GarageQualGd'
p531
F-5.4689084323310852e-06
sS'MiscFeatureNA'
p532
F2.2110407089017517e-06
sS'LowQualFinSF'
p533
F-0.0013169466732632967
sS'Exterior1stPlywood'
p534
F-1.6973208993399052e-05
sS'NeighborhoodEdwards'
p535
F-1.4236437143820507e-05
sS'BsmtFinType1BLQ'
p536
F4.831740268761684e-06
sS'FireplaceQuPo'
p537
F-1.8440345356917587e-07
sS'HeatingQCPo'
p538
F-4.1740030988340262e-08
sS'Condition1PosN'
p539
F-2.7276232980609037e-06
sS'AlleyNA'
p540
F1.7744894998201886e-06
sS'KitchenQualTA'
p541
F-5.228501830229183e-05
sS'Exterior2ndVinylSd'
p542
F3.7374469366147604e-05
sS'LotConfigCorner'
p543
F-1.8523032697445681e-05
sS'HalfBath'
p544
F2.7246430942610908e-05
sS'HouseStyleSLvl'
p545
F-1.1195686804563136e-05
sS'LandContourBnk'
p546
F-5.3265691730372252e-06
sS'NeighborhoodBrkSide'
p547
F-4.2994604027357347e-06
sS'GarageQualNA'
p548
F-8.3935661444660371e-06
sS'Exterior2ndBrk Cmn'
p549
F-2.6516494098108195e-07
sS'BsmtFinType2BLQ'
p550
F-6.204506464412961e-06
sS'LandSlopeGtl'
p551
F-6.5293257591554037e-06
sS'WoodDeckSF'
p552
F-0.0041298101158286195
sS'HouseStyle1.5Fin'
p553
F-1.8432713523902779e-05
sS'BsmtQualNA'
p554
F-9.5045666763708523e-07
sS'MasVnrArea'
p555
F0.0099298173026605135
sS'Exterior1stCBlock'
p556
F-2.1501976853352536e-07
sS'HeatingGrav'
p557
F-2.9085910296066832e-07
sS'Condition2PosA'
p558
F2.919352061155168e-07
sS'FenceGdWo'
p559
F-4.4930555132334441e-06
sS'Condition1PosA'
p560
F-4.4050657723724158e-07
sS'ExterCondEx'
p561
F1.0866437489241763e-07
sS'NeighborhoodBrDale'
p562
F-1.2431451312398026e-06
sS'HeatingOthW'
p563
F-3.7745851456201589e-07
sS'Exterior1stHdBoard'
p564
F1.928434898376619e-06
sS'GarageQualFa'
p565
F-1.1617029922243849e-05
sS'BsmtFinType1ALQ'
p566
F-1.2806918718982816e-05
sS'HouseStyle1Story'
p567
F1.5731336579972002e-05
sS'FenceGdPrv'
p568
F-6.1292985641594059e-06
sS'SaleTypeWD'
p569
F-2.0932373321551317e-05
sS'FenceNA'
p570
F7.4754446034505527e-06
sS'TotalBsmtSF'
p571
F0.0049526051997781659
sS'GarageType2Types'
p572
F-2.9522047636916337e-07
sS'Exterior2ndBrkFace'
p573
F1.8103999992777029e-06
sS'RoofMatlMembran'
p574
F7.1586703229677551e-07
sS'ExterQualTA'
p575
F-4.459054216624894e-05
sS'Exterior1stAsbShng'
p576
F-1.9319402264416981e-06
sS'KitchenQualEx'
p577
F2.5107545411845918e-05
sS'GarageCondGd'
p578
F-6.8638432689556726e-06
sS'RoofMatlWdShake'
p579
F-8.4366973510385921e-08
sS'SaleTypeCWD'
p580
F-3.908962800188825e-08
sS'SaleConditionPartial'
p581
F2.5548849236873759e-05
sS'HeatingQCTA'
p582
F-4.4243950537470942e-05
sS'LandContourLvl'
p583
F1.1351583267405084e-06
sS'SaleConditionAlloca'
p584
F-7.4689059503713049e-06
sS'Exterior1stStucco'
p585
F-3.6844211696817716e-06
sS'LandSlopeMod'
p586
F-5.6405904532055381e-07
sS'BsmtFinType2NA'
p587
F-9.6366623927758033e-07
sS'BsmtFinSF1'
p588
F-0.0036430971999912476
sS'BsmtFinSF2'
p589
F0.0032700399131000519
sS'LotShapeIR3'
p590
F6.4565066111522886e-07
sS'GarageQualPo'
p591
F-4.9939779605798667e-08
sS'RoofMatlTar&Grv'
p592
F-8.4667342706811888e-06
sS'ScreenPorch'
p593
F-0.0015744548720777413
sS'BedroomAbvGr'
p594
F-4.1967610900823722e-05
sS'Exterior2ndWd Shng'
p595
F-1.142333137282167e-05
sS'BsmtFinType2ALQ'
p596
F4.7842131649582134e-06
sS'AlleyGrvl'
p597
F-3.6830679495482281e-06
sS'Id'
p598
F-3.4394845732813281e-06
sS'Condition1RRAe'
p599
F-5.1576446423742191e-07
sS'CentralAirY'
p600
F1.2469232766062627e-05
sS'GarageCondNA'
p601
F-8.3935661444660371e-06
sS'FunctionalTyp'
p602
F9.0314483658543289e-06
sS'GarageCondPo'
p603
F-7.1903135219512286e-07
sS'Exterior1stAsphShn'
p604
F-9.2351950082360331e-08
sS'MiscFeatureTenC'
p605
F-2.127325741945957e-07
sS'GarageCars'
p606
F5.1448742208305082e-05
sS'BsmtQualEx'
p607
F3.7438490847514973e-05
sS'Condition1RRAn'
p608
F-2.8260482524158998e-07
sS'NeighborhoodStoneBr'
p609
F1.6941315817143451e-06
sS'MiscVal'
p610
F-0.010981264945283358
sS'FoundationStone'
p611
F1.5872930911141551e-06
saI2
I5
t.