((lp1
ccollections
defaultdict
p2
(c__builtin__
int
p3
tRp4
S'RoofStyleFlat'
p5
F7.5622627952327547e-06
sS'Condition1Artery'
p6
F-9.0530489934511125e-06
sS'Exterior1stCemntBd'
p7
F4.9028919933571804e-06
sS'NeighborhoodGilbert'
p8
F1.6314199457613718e-05
sS'BsmtCondNA'
p9
F-7.8728520597748567e-06
sS'FunctionalMaj1'
p10
F-9.4992196165262485e-07
sS'OpenPorchSF'
p11
F0.0021927888453191807
sS'NeighborhoodCrawfor'
p12
F-5.8103758219634032e-06
sS'LotShapeReg'
p13
F-8.5643892635276032e-05
sS'OverallQual'
p14
F0.0002367945922924407
sS'ExterCondFa'
p15
F-5.1693817360498841e-06
sS'Exterior1stMetalSd'
p16
F-9.6240755621867462e-06
sS'HouseAge'
p17
F-0.0047829406695130434
sS'Exterior2ndCmentBd'
p18
F-1.150071656616062e-05
sS'LandContourHLS'
p19
F2.1480535620058283e-05
sS'RoofStyleGambrel'
p20
F-7.3499347919814685e-07
sS'Exterior2ndCBlock'
p21
F-1.4796389564943017e-07
sS'HeatingWall'
p22
F-3.4369814248716607e-06
sS'Exterior2ndAsbShng'
p23
F-1.9594677553333215e-06
sS'EnclosedPorch'
p24
F-0.0018650494083332465
sS'BldgTypeTwnhs'
p25
F3.8846461933936461e-06
sS'NeighborhoodBlmngtn'
p26
F3.5338884547822133e-06
sS'Unnamed: 0'
p27
F-0.0051499890931317417
sS'Exterior2ndStone'
p28
F3.1018351084277678e-07
sS'MasVnrTypeStone'
p29
F2.0778787294873964e-05
sS'Condition1Norm'
p30
F2.1129687458875505e-05
sS'MiscFeatureShed'
p31
F-2.7576126543702822e-05
sS'BsmtHalfBath'
p32
F2.5606028677092101e-06
sS'KitchenAbvGr'
p33
F-2.2772724178584272e-06
sS'Exterior1stWd Sdng'
p34
F1.941758359560566e-06
sS'BsmtFinType2GLQ'
p35
F1.1478471303152825e-06
sS'NeighborhoodTimber'
p36
F-2.349524119070718e-06
sS'ExterCondPo'
p37
F-3.4203960355558691e-07
sS'BsmtQualFa'
p38
F-2.8350738211434903e-06
sS'GarageQualTA'
p39
F-1.4935383875297467e-06
sS'RoofMatlCompShg'
p40
F8.5059026140249766e-07
sS'ElectricalSBrkr'
p41
F2.5574782075612444e-05
sS'SaleTypeOth'
p42
F-4.5755666769234902e-07
sS'BsmtExposureAv'
p43
F3.9428413021663158e-05
sS'LandSlopeSev'
p44
F-1.0557486587307409e-05
sS'PoolArea'
p45
F0.0055789773153066876
sS'FullBath'
p46
F6.7942036958632113e-05
sS'BsmtFinType1LwQ'
p47
F-6.3054257441319381e-06
sS'MSZoningRM'
p48
F-8.2836010943422984e-06
sS'MSZoningRL'
p49
F5.8557100420243877e-07
sS'NeighborhoodCollgCr'
p50
F-1.0441819452430271e-05
sS'Exterior1stImStucc'
p51
F-2.4968861552405411e-07
sS'MSZoningRH'
p52
F1.3257594659210423e-06
sS'MSSubClass'
p53
F0.0023648597503987379
sS'FoundationCBlock'
p54
F-4.5342331011592208e-05
sS'FoundationPConc'
p55
F9.0413402010963557e-05
sS'BsmtFinType1GLQ'
p56
F2.2141138216006982e-05
sS'NeighborhoodNAmes'
p57
F-5.4445851311101548e-06
sS'BsmtCondFa'
p58
F-8.1200610910381071e-06
sS'GarageTypeCarPort'
p59
F-2.0945811901873234e-06
sS'BsmtQualGd'
p60
F3.8000754019763418e-05
sS'NeighborhoodNWAmes'
p61
F-1.6789632119917724e-05
sS'HeatingFloor'
p62
F-5.9238158418686448e-08
sS'Exterior2ndWd Sdng'
p63
F-4.709136675564149e-06
sS'RemodAddAge'
p64
F-0.0021177965078403678
sS'PavedDriveN'
p65
F5.8380980681601725e-06
sS'MiscFeatureGar2'
p66
F5.6447014658435551e-06
sS'AlleyPave'
p67
F2.833025593813351e-07
sS'MasVnrTypeBrkCmn'
p68
F-4.4934894682810732e-06
sS'FireplaceQuEx'
p69
F-6.4952825944936115e-07
sS'PavedDriveY'
p70
F5.2275381388038059e-07
sS'BldgTypeTwnhsE'
p71
F1.3049526279334937e-05
sS'PavedDriveP'
p72
F-1.4579553530844737e-06
sS'RoofMatlClyTile'
p73
F-2.7621210540983288e-06
sS'FoundationWood'
p74
F-4.5726783661879833e-07
sS'Exterior1stBrkFace'
p75
F-4.491565498904784e-06
sS'SaleConditionAbnorml'
p76
F-1.8828011260521087e-05
sS'Condition2RRNn'
p77
F6.5108502012759265e-08
sS'BsmtCondPo'
p78
F-6.4998139475094127e-07
sS'GarageTypeNA'
p79
F-4.8438484515659144e-06
sS'MiscFeatureOthr'
p80
F-4.7474643257090027e-07
sS'Condition1Feedr'
p81
F-5.6987512566948632e-06
sS'GarageCondEx'
p82
F-1.6627432731086087e-07
sS'FoundationBrkTil'
p83
F-2.2968411263389928e-05
sS'GarageCondFa'
p84
F-3.2564677940159745e-06
sS'NeighborhoodVeenker'
p85
F1.5197293021924767e-07
sS'HeatingQCFa'
p86
F-8.6300785921956113e-06
sS'MSZoningFV'
p87
F1.3668805225550944e-05
sS'OverallCond'
p88
F-4.1696515853771441e-06
sS'BsmtFinType2LwQ'
p89
F-1.1302329450622825e-05
sS'SaleTypeConLw'
p90
F6.6563462628072902e-07
sS'ExterCondTA'
p91
F1.7462193239495643e-05
sS'FireplaceQuTA'
p92
F6.2148439253912532e-06
sS'NeighborhoodMeadowV'
p93
F-1.229411197135465e-06
sS'MasVnrTypeBrkFace'
p94
F2.2021805283079885e-05
sS'GarageTypeAttchd'
p95
F9.9261760421865362e-06
sS'BsmtExposureNA'
p96
F-7.8728520597748567e-06
sS'ExterCondGd'
p97
F-7.5344398921410798e-06
sS'NeighborhoodClearCr'
p98
F-1.3021555277869884e-06
sS'ElectricalFuseP'
p99
F-3.058542725636623e-07
sS'BldgType2fmCon'
p100
F-4.4244695335901135e-06
sS'Fireplaces'
p101
F3.238051105231021e-05
sS'LotFrontage'
p102
F-0.0024011979058676499
sS'NeighborhoodNPkVill'
p103
F9.4338142385042849e-07
sS'Exterior2ndPlywood'
p104
F-9.810514877966479e-06
sS'SaleTypeConLI'
p105
F-3.1972780439121984e-07
sS'FenceMnPrv'
p106
F-2.7370989170677213e-05
sS'Utilities'
p107
F5.509723685096019e-06
sS'FunctionalMaj2'
p108
F-1.0785422844894506e-06
sS'ElectricalFuseA'
p109
F-1.6428904345398493e-05
sS'BsmtExposureNo'
p110
F-2.6361762115575899e-05
sS'Condition2Artery'
p111
F-6.3752542567006145e-07
sS'ElectricalFuseF'
p112
F-3.7386804096134622e-06
sS'TotRmsAbvGrd'
p113
F0.00022578181000759123
sS'PoolQCEx'
p114
F6.8776193675587526e-07
sS'Condition1RRNe'
p115
F6.0913244638547515e-07
sS'LotConfigCulDSac'
p116
F2.5026670787188938e-05
sS'SaleTypeConLD'
p117
F-1.4784519634176406e-06
sS'Exterior1stVinylSd'
p118
F3.5909566995467556e-05
sS'HouseStyleSFoyer'
p119
F-2.5404668152094662e-06
sS'BsmtExposureGd'
p120
F2.4824734920829037e-06
sS'ExterQualFa'
p121
F-3.1689165678644483e-06
sS'RoofStyleHip'
p122
F3.9598759760948141e-05
sS'BsmtExposureMn'
p123
F-2.7733758094392728e-06
sS'GarageCondTA'
p124
F4.6689128826995792e-06
sS'NeighborhoodSawyerW'
p125
F-9.1389408191995743e-06
sS'YrSold'
p126
F0.0098151227650558875
sS'Exterior1stBrkComm'
p127
F-4.8190898542849563e-07
sS'Exterior2ndHdBoard'
p128
F1.2059523000540454e-05
sS'HouseStyle2Story'
p129
F1.5275708101354741e-05
sS'NeighborhoodSawyer'
p130
F-4.2590643476743974e-06
sS'NeighborhoodBlueste'
p131
F5.7802488340087501e-08
sS'GarageTypeBuiltIn'
p132
F3.839088660759629e-05
sS'GarageFinishNA'
p133
F-4.8438484515659144e-06
sS'MSZoningC (all)'
p134
F-2.3936380723760287e-06
sS'BsmtQualTA'
p135
F-5.4860482149322556e-05
sS'FunctionalMin1'
p136
F-5.8844520210934265e-06
sS'Condition1RRNn'
p137
F7.7815913819895684e-07
sS'HeatingQCEx'
p138
F2.6916782863220337e-05
sS'LotShapeIR1'
p139
F7.9318355357139333e-05
sS'LotShapeIR2'
p140
F1.7325559735863119e-05
sS'Condition2Norm'
p141
F1.9783378632649651e-07
sS'HouseStyle1.5Unf'
p142
F-5.2202841895001733e-07
sS'HeatingGasA'
p143
F1.4781306213303211e-05
sS'Exterior2ndStucco'
p144
F-5.3295225586457155e-06
sS'MasVnrTypeNone'
p145
F-3.5116962560293706e-05
sS'GarageFinishRFn'
p146
F3.0324710008102345e-06
sS'Exterior1stWdShing'
p147
F-3.1289477212079847e-06
sS'FunctionalSev'
p148
F-4.5684134355786459e-07
sS'GarageArea'
p149
F0.030391719596141467
sS'ElectricalMix'
p150
F-2.7970894284751701e-07
sS'LotConfigInside'
p151
F-6.0244882225272885e-05
sS'Exterior1stStone'
p152
F1.6045004373162424e-07
sS'HeatingGasW'
p153
F-4.7119456453593029e-06
sS'FunctionalMod'
p154
F1.3195681910693922e-05
sS'GarageQualEx'
p155
F7.6760607675715363e-07
sS'SaleConditionFamily'
p156
F-9.9466727898645634e-06
sS'ElectricalNA'
p157
F8.1262423766654248e-08
sS'RoofStyleGable'
p158
F-4.7609178157260284e-05
sS'NeighborhoodMitchel'
p159
F1.3468786164360035e-07
sS'BldgTypeDuplex'
p160
F-4.0245310969786808e-06
sS'BsmtFullBath'
p161
F1.2792785773754029e-05
sS'Condition2Feedr'
p162
F-4.6374596170358397e-07
sS'FireplaceQuFa'
p163
F1.0010951240860199e-05
sS'ExterQualEx'
p164
F1.6257480200083036e-05
sS'GarageTypeBasment'
p165
F-2.5239257910802959e-06
sS'LotArea'
p166
F-0.00036301757984039411
sS'NeighborhoodSWISU'
p167
F-4.1826770423407751e-06
sS'BsmtFinType1Rec'
p168
F-1.0187941076890356e-05
sS'RoofMatlMetal'
p169
F2.7013784738641625e-07
sS'RoofMatlWdShngl'
p170
F-4.6785244078579094e-07
sS'BsmtFinType2Unf'
p171
F2.212106109659764e-05
sS'GrLivArea'
p172
F0.046029257306621829
sS'PoolQCGd'
p173
F6.0656647145295581e-06
sS'NeighborhoodNridgHt'
p174
F2.114276694514719e-05
sS'HouseStyle2.5Unf'
p175
F-4.9530320571408173e-07
sS'GarageFinishFin'
p176
F4.5554461284425904e-05
sS'KitchenQualFa'
p177
F-5.3512023536164927e-06
sS'Exterior2ndAsphShn'
p178
F-1.6192230454220175e-07
sS'LandContourLow'
p179
F-1.717952169162864e-05
sS'SaleTypeCOD'
p180
F1.0213691203075548e-06
sS'MasVnrTypeNA'
p181
F1.71275597957689e-06
sS'NeighborhoodSomerst'
p182
F1.6775193079196888e-05
sS'FireplaceQuGd'
p183
F4.7457515050675174e-05
sS'BsmtFinType1Unf'
p184
F1.3977770139201084e-05
sS'NeighborhoodNoRidge'
p185
F9.781243841061446e-06
sS'X3SsnPorch'
p186
F0.0002520516691121609
sS'GarageTypeDetchd'
p187
F-2.0778988599001808e-05
sS'RoofStyleMansard'
p188
F-1.8256139343500948e-07
sS'MoSold'
p189
F0.00025070402635049837
sS'Exterior2ndImStucc'
p190
F1.6767764326789253e-06
sS'GarageCondPo'
p191
F-2.7230076750602569e-07
sS'FireplaceQuNA'
p192
F-5.3881837605063435e-05
sS'HouseStyle2.5Fin'
p193
F-1.0751293063740772e-06
sS'SaleTypeNew'
p194
F2.0868196547330522e-05
sS'ExterQualGd'
p195
F6.105229545543869e-05
sS'FunctionalMin2'
p196
F-1.8608500345166658e-05
sS'BsmtUnfSF'
p197
F0.0055926384422640765
sS'SaleTypeCon'
p198
F5.2552879164929578e-07
sS'LotConfigFR3'
p199
F3.9597999953241195e-07
sS'LotConfigFR2'
p200
F8.3459780658339105e-06
sS'HeatingQCGd'
p201
F-1.4746149199382274e-05
sS'Condition2PosN'
p202
F-6.9172358131747417e-07
sS'BsmtFinType2Rec'
p203
F1.9966311844227191e-06
sS'FenceMnWw'
p204
F-1.2397028200774606e-06
sS'RoofStyleShed'
p205
F6.2686070026684176e-06
sS'RoofMatlRoll'
p206
F4.6546928785609326e-09
sS'BsmtCondTA'
p207
F2.7556297563499589e-05
sS'X2ndFlrSF'
p208
F0.022856642202943835
sS'PoolQCNA'
p209
F-1.8203270508662115e-06
sS'SaleConditionNormal'
p210
F5.1853245158446962e-06
sS'GarageFinishUnf'
p211
F-3.8840187304714295e-05
sS'KitchenQualGd'
p212
F3.5115844244263906e-05
sS'X1stFlrSF'
p213
F0.024236433260441486
sS'BsmtFinType1NA'
p214
F-7.8728520597748567e-06
sS'NeighborhoodOldTown'
p215
F-1.2038009018410968e-05
sS'PoolQCFa'
p216
F-3.0203071463131776e-08
sS'FoundationSlab'
p217
F-6.3802697554126238e-06
sS'NeighborhoodIDOTRR'
p218
F-5.8438365390344763e-06
sS'CentralAirN'
p219
F-1.9453803634151689e-05
sS'Condition2RRAe'
p220
F6.4111221970551167e-06
sS'Condition2RRAn'
p221
F-3.2577306716684695e-07
sS'GarageAge'
p222
F-0.0030469890107114668
sS'BsmtCondGd'
p223
F-6.0105064889797555e-06
sS'Exterior2ndMetalSd'
p224
F-2.1998321081808986e-05
sS'BldgType1Fam'
p225
F-3.5822753132036866e-06
sS'GarageQualGd'
p226
F9.3896118363549864e-06
sS'MiscFeatureNA'
p227
F2.7309068039386021e-05
sS'LowQualFinSF'
p228
F-0.0010638181567635134
sS'Exterior1stPlywood'
p229
F-6.7817776072257231e-06
sS'NeighborhoodEdwards'
p230
F-6.375963878673736e-06
sS'BsmtFinType1BLQ'
p231
F-2.2654988272257002e-05
sS'FireplaceQuPo'
p232
F-4.2490478234578737e-06
sS'Condition1PosN'
p233
F-2.1248524681651425e-07
sS'AlleyNA'
p234
F1.2708128965179833e-05
sS'KitchenQualTA'
p235
F-6.3213493969073984e-05
sS'Exterior2ndVinylSd'
p236
F3.714155032705956e-05
sS'LotConfigCorner'
p237
F3.1379149901673525e-05
sS'HalfBath'
p238
F2.5740804649873869e-05
sS'HouseStyleSLvl'
p239
F3.7992619360324507e-05
sS'LandContourBnk'
p240
F-1.2918618661358341e-05
sS'NeighborhoodBrkSide'
p241
F-2.6706931646842767e-06
sS'GarageQualNA'
p242
F-4.8438484515659144e-06
sS'Exterior2ndBrk Cmn'
p243
F1.6434057907356718e-07
sS'BsmtFinType2BLQ'
p244
F-4.4475195784528813e-06
sS'LandSlopeGtl'
p245
F2.5542327872326467e-05
sS'WoodDeckSF'
p246
F0.02087280625432995
sS'HouseStyle1.5Fin'
p247
F-2.9688231665238839e-05
sS'BsmtQualNA'
p248
F-7.8728520597748567e-06
sS'MasVnrArea'
p249
F0.021963805799010777
sS'Exterior1stCBlock'
p250
F-1.4796389564943017e-07
sS'HeatingGrav'
p251
F-1.1121642363636636e-06
sS'Condition2PosA'
p252
F3.4760007941966749e-07
sS'FenceGdWo'
p253
F-4.485740083202683e-06
sS'Condition1PosA'
p254
F-6.0934355446623314e-07
sS'ExterCondEx'
p255
F4.865645212068343e-07
sS'NeighborhoodBrDale'
p256
F-5.321231700316688e-07
sS'HeatingOthW'
p257
F-5.5808021933381646e-07
sS'Exterior1stHdBoard'
p258
F-6.5096543744783098e-06
sS'GarageQualFa'
p259
F1.3553662224456755e-06
sS'BsmtFinType1ALQ'
p260
F1.5805195326802067e-05
sS'HouseStyle1Story'
p261
F-1.4044271521236755e-05
sS'FenceGdPrv'
p262
F-3.3887273098274141e-06
sS'SaleTypeWD'
p263
F-1.5831819209691746e-05
sS'FenceNA'
p264
F4.1388055912740737e-05
sS'TotalBsmtSF'
p265
F0.027162841928971459
sS'GarageType2Types'
p266
F-1.3172822088991354e-05
sS'Exterior2ndBrkFace'
p267
F-4.2261881960465761e-06
sS'RoofMatlMembran'
p268
F-3.0227154281433054e-07
sS'ExterQualTA'
p269
F-6.9237962558701434e-05
sS'Exterior1stAsbShng'
p270
F-1.7842266758559379e-06
sS'KitchenQualEx'
p271
F3.8351748607382402e-05
sS'GarageCondGd'
p272
F8.772874986655274e-06
sS'RoofMatlWdShake'
p273
F-1.3702713626723701e-07
sS'SaleTypeCWD'
p274
F-9.0276911419076873e-08
sS'SaleConditionPartial'
p275
F2.0617742248205023e-05
sS'HeatingQCTA'
p276
F1.3623414573136197e-06
sS'LandContourLvl'
p277
F1.3520501261884742e-05
sS'SaleConditionAlloca'
p278
F8.3975830714789429e-06
sS'Exterior1stStucco'
p279
F-4.811961926699484e-06
sS'LandSlopeMod'
p280
F-1.0081944756063109e-05
sS'BsmtFinType2NA'
p281
F-7.6736505594513049e-06
sS'BsmtFinSF1'
p282
F0.024218357698029234
sS'BsmtFinSF2'
p283
F-0.0026481542113217676
sS'LotShapeIR3'
p284
F-6.0971259287702948e-06
sS'GarageQualPo'
p285
F-2.7230076750602569e-07
sS'RoofMatlTar&Grv'
p286
F7.4467859012543005e-06
sS'ScreenPorch'
p287
F0.0023267091598907323
sS'BedroomAbvGr'
p288
F9.8070890155781806e-06
sS'Exterior2ndWd Shng'
p289
F1.3394276590478122e-05
sS'BsmtFinType2ALQ'
p290
F3.0608567061472864e-06
sS'AlleyGrvl'
p291
F-8.0885349956050354e-06
sS'Id'
p292
F4.9028965289561242e-06
sS'Condition1RRAe'
p293
F-1.5150965967539786e-06
sS'CentralAirY'
p294
F2.4356700163107649e-05
sS'GarageCondNA'
p295
F-4.8438484515659144e-06
sS'FunctionalTyp'
p296
F1.8685472574222093e-05
sS'SaleConditionAdjLand'
p297
F-5.2306925618688023e-07
sS'GarageCars'
p298
F0.00011877912902615994
sS'BsmtQualEx'
p299
F3.2470550539433363e-05
sS'Condition1RRAn'
p300
F-5.2535686632127737e-07
sS'NeighborhoodStoneBr'
p301
F2.447657139656586e-05
sS'MiscVal'
p302
F0.0046391834071538487
sS'FoundationStone'
p303
F-1.0362225614993879e-05
saI1
I5
t.