((lp1
ccollections
defaultdict
p2
(c__builtin__
int
p3
tRp4
S'RoofStyleFlat'
p5
F6.9014413755635678e-06
sS'Condition1Artery'
p6
F-9.7332070489247139e-06
sS'Exterior1stCemntBd'
p7
F8.2596314189004944e-07
sS'NeighborhoodGilbert'
p8
F1.5333026813611068e-05
sS'BsmtCondNA'
p9
F-6.9239985196601414e-06
sS'FunctionalMaj1'
p10
F-2.8073080711048965e-06
sS'OpenPorchSF'
p11
F0.0020937717351560479
sS'NeighborhoodCrawfor'
p12
F-5.6901352912534714e-06
sS'LotShapeReg'
p13
F-8.0202097886470524e-05
sS'OverallQual'
p14
F0.00025580244884699816
sS'ExterCondFa'
p15
F-4.1678670396504721e-06
sS'Exterior1stMetalSd'
p16
F-6.9839169835051752e-06
sS'HouseAge'
p17
F-0.0047418340130815778
sS'Exterior2ndCmentBd'
p18
F-1.2468333464634664e-05
sS'LandContourHLS'
p19
F2.0004691877647473e-05
sS'RoofStyleGambrel'
p20
F-8.6691055767414842e-07
sS'Exterior2ndCBlock'
p21
F-1.6140765482333956e-07
sS'HeatingWall'
p22
F-3.1900059593361625e-06
sS'Exterior2ndAsbShng'
p23
F-2.6856872374617856e-06
sS'EnclosedPorch'
p24
F-0.0026836570770074008
sS'BldgTypeTwnhs'
p25
F1.3314455756242187e-06
sS'NeighborhoodBlmngtn'
p26
F2.8150757119649844e-06
sS'Unnamed: 0'
p27
F-0.0056105079743964609
sS'Exterior2ndStone'
p28
F-7.7057195695406191e-07
sS'MasVnrTypeStone'
p29
F2.3619312350588437e-05
sS'Condition1Norm'
p30
F1.7478179597608992e-05
sS'MiscFeatureShed'
p31
F-2.7432128535358607e-05
sS'BsmtHalfBath'
p32
F9.6129916736883454e-06
sS'KitchenAbvGr'
p33
F-2.9634208532592548e-06
sS'Exterior1stWd Sdng'
p34
F8.5334629743014668e-09
sS'BsmtFinType2GLQ'
p35
F1.7081314974784234e-07
sS'NeighborhoodTimber'
p36
F-1.1330166875049168e-06
sS'ExterCondPo'
p37
F-4.0422462157682079e-07
sS'BsmtQualFa'
p38
F-4.1061478957727026e-06
sS'GarageQualTA'
p39
F4.6432804454488091e-06
sS'RoofMatlCompShg'
p40
F1.8443703146611712e-06
sS'ElectricalSBrkr'
p41
F2.8987193923205024e-05
sS'SaleTypeOth'
p42
F-5.3608439442155895e-07
sS'BsmtExposureAv'
p43
F4.0662265303556513e-05
sS'LandSlopeSev'
p44
F-1.0177887393619686e-05
sS'PoolArea'
p45
F0.004860514983593486
sS'FullBath'
p46
F6.9181741462037276e-05
sS'BsmtFinType1LwQ'
p47
F-4.8176694600661095e-06
sS'MSZoningRM'
p48
F-1.3721867744432615e-05
sS'MSZoningRL'
p49
F1.2149817310521528e-05
sS'NeighborhoodCollgCr'
p50
F-6.8240484784923914e-06
sS'MSZoningRH'
p51
F4.4273464685672434e-07
sS'MSSubClass'
p52
F0.0010048093399909301
sS'FoundationCBlock'
p53
F-3.794961004911461e-05
sS'FoundationPConc'
p54
F8.5010235275310235e-05
sS'BsmtFinType1GLQ'
p55
F2.5122956833394524e-05
sS'NeighborhoodNAmes'
p56
F-1.0430761275030663e-05
sS'BsmtCondFa'
p57
F-8.5113594574865799e-06
sS'GarageTypeCarPort'
p58
F-1.7735314626975177e-06
sS'BsmtQualGd'
p59
F3.2535147981647978e-05
sS'NeighborhoodNWAmes'
p60
F-1.4153145211837627e-05
sS'HeatingFloor'
p61
F-5.4987103608922163e-08
sS'Exterior2ndWd Sdng'
p62
F-4.3859683006127985e-06
sS'RemodAddAge'
p63
F-0.0022234701416279645
sS'PavedDriveN'
p64
F4.483968710404144e-06
sS'MiscFeatureGar2'
p65
F5.6197438313041069e-06
sS'AlleyPave'
p66
F-1.8490514282823059e-06
sS'MasVnrTypeBrkCmn'
p67
F-4.6622733926438537e-06
sS'FireplaceQuEx'
p68
F1.0576962929555819e-06
sS'PavedDriveY'
p69
F4.5196372924763875e-06
sS'BldgTypeTwnhsE'
p70
F1.162447648513587e-05
sS'PavedDriveP'
p71
F-1.6521455980552346e-06
sS'RoofMatlClyTile'
p72
F-2.1572794950970259e-06
sS'FoundationWood'
p73
F-4.5002370976511518e-07
sS'Exterior1stBrkFace'
p74
F-3.4588779446111267e-06
sS'SaleConditionAbnorml'
p75
F-1.9763295189946319e-05
sS'Condition2RRNn'
p76
F5.5436395063515961e-08
sS'BsmtCondPo'
p77
F-6.437206168533658e-07
sS'GarageTypeNA'
p78
F-5.8208934929832606e-06
sS'MiscFeatureOthr'
p79
F-5.2829600111014218e-08
sS'Condition1Feedr'
p80
F-1.3235791523845148e-07
sS'GarageCondEx'
p81
F-1.7694897535068569e-07
sS'FoundationBrkTil'
p82
F-2.4087582270042747e-05
sS'GarageCondFa'
p83
F-3.4369921921628907e-06
sS'NeighborhoodVeenker'
p84
F8.2273033963204997e-07
sS'HeatingQCFa'
p85
F-8.4003243413830875e-06
sS'MSZoningFV'
p86
F1.1536195271604944e-05
sS'OverallCond'
p87
F2.7518170633412398e-05
sS'BsmtFinType2LwQ'
p88
F-8.9037579360537164e-06
sS'SaleTypeConLw'
p89
F1.7613670133250774e-07
sS'ExterCondTA'
p90
F1.4221557787271935e-05
sS'FireplaceQuTA'
p91
F3.3353830159331832e-06
sS'NeighborhoodMeadowV'
p92
F-1.7939846534214942e-06
sS'MasVnrTypeBrkFace'
p93
F1.7859121358312474e-05
sS'GarageTypeAttchd'
p94
F1.6346786823336932e-05
sS'BsmtExposureNA'
p95
F-6.5337864138553675e-06
sS'ExterCondGd'
p96
F-2.7875493553613739e-06
sS'NeighborhoodClearCr'
p97
F1.0519513173287993e-06
sS'ElectricalFuseP'
p98
F-1.018091779089286e-07
sS'BldgType2fmCon'
p99
F-8.4287032246797695e-06
sS'Fireplaces'
p100
F3.3837476873871183e-05
sS'LotFrontage'
p101
F-0.0011031375439151639
sS'NeighborhoodNPkVill'
p102
F6.3204332324397225e-07
sS'Exterior2ndPlywood'
p103
F-1.0018401789506296e-05
sS'SaleTypeConLI'
p104
F-1.0894105914814763e-06
sS'FenceMnPrv'
p105
F-2.3603892164219621e-05
sS'Utilities'
p106
F7.3514604048252945e-06
sS'FunctionalMaj2'
p107
F-1.1646025783113774e-06
sS'ElectricalFuseA'
p108
F-1.7178379303687174e-05
sS'BsmtExposureNo'
p109
F-2.821527974500832e-05
sS'Condition2Artery'
p110
F-6.2121363880685013e-07
sS'ElectricalFuseF'
p111
F-4.164889592695708e-06
sS'TotRmsAbvGrd'
p112
F0.00022497509888038818
sS'PoolQCEx'
p113
F4.8790873338703502e-07
sS'Condition1RRNe'
p114
F5.7205784148681816e-07
sS'LotConfigCulDSac'
p115
F2.2428281123337455e-05
sS'SaleTypeConLD'
p116
F2.0698215791559945e-07
sS'Exterior1stVinylSd'
p117
F3.2103014978320187e-05
sS'HouseStyleSFoyer'
p118
F-2.787400269111214e-06
sS'BsmtExposureGd'
p119
F5.5084658267415098e-06
sS'ExterQualFa'
p120
F-2.794681328610486e-06
sS'RoofStyleHip'
p121
F3.5281843275872487e-05
sS'BsmtExposureMn'
p122
F-4.0702045666090771e-06
sS'GarageCondTA'
p123
F1.07247829531136e-05
sS'NeighborhoodSawyerW'
p124
F-8.7908413603725521e-06
sS'YrSold'
p125
F0.014730045318282073
sS'Exterior1stBrkComm'
p126
F-9.3784428963397757e-08
sS'Exterior2ndHdBoard'
p127
F2.0030737589234552e-05
sS'HouseStyle2Story'
p128
F1.1730987560137407e-05
sS'NeighborhoodSawyer'
p129
F1.5034490397989314e-06
sS'NeighborhoodBlueste'
p130
F-2.5366744828903397e-08
sS'GarageTypeBuiltIn'
p131
F3.8044998720218753e-05
sS'GarageFinishNA'
p132
F-5.8208934929832606e-06
sS'MSZoningC (all)'
p133
F-3.0554190797252553e-06
sS'BsmtQualTA'
p134
F-5.0932183809067887e-05
sS'FunctionalMin1'
p135
F-5.4967206544490062e-06
sS'Condition1RRNn'
p136
F6.058621421691728e-07
sS'HeatingQCEx'
p137
F2.7367516465982507e-05
sS'LotShapeIR1'
p138
F7.59023785204527e-05
sS'LotShapeIR2'
p139
F1.5518862731342776e-05
sS'Condition2Norm'
p140
F2.9713326302805464e-06
sS'HouseStyle1.5Unf'
p141
F-5.7468885940351369e-07
sS'HeatingGasA'
p142
F1.640018755823207e-05
sS'Exterior2ndStucco'
p143
F-5.1986020409441913e-06
sS'MasVnrTypeNone'
p144
F-2.9982140614229958e-05
sS'GarageFinishRFn'
p145
F3.3409737640706396e-06
sS'Exterior1stWdShing'
p146
F-2.6922855828250483e-06
sS'FunctionalSev'
p147
F-3.8283403394579653e-07
sS'GarageArea'
p148
F0.030002665691182585
sS'ElectricalMix'
p149
F-2.78202185785137e-07
sS'LotConfigInside'
p150
F-5.6497374783735464e-05
sS'Exterior1stStone'
p151
F1.5568561206348189e-07
sS'HeatingGasW'
p152
F-4.2282531894466881e-06
sS'FunctionalMod'
p153
F1.2175762626346149e-05
sS'GarageQualEx'
p154
F7.3173802447705699e-07
sS'SaleConditionFamily'
p155
F-1.0291931916314053e-05
sS'ElectricalNA'
p156
F8.7546741697125079e-08
sS'RoofStyleGable'
p157
F-4.016334726578848e-05
sS'NeighborhoodMitchel'
p158
F-2.1650231296103295e-07
sS'BldgTypeDuplex'
p159
F-4.247435117436507e-06
sS'BsmtFullBath'
p160
F6.5882839291719881e-06
sS'Condition2Feedr'
p161
F-7.8207110149180277e-07
sS'FireplaceQuFa'
p162
F1.0355619579751455e-05
sS'ExterQualEx'
p163
F1.8392372494635275e-05
sS'GarageTypeBasment'
p164
F-1.8381000392720393e-06
sS'Exterior2ndOther'
p165
F2.0194494476698998e-07
sS'LotArea'
p166
F-0.0023204626273432591
sS'NeighborhoodSWISU'
p167
F-5.3344562029103424e-06
sS'BsmtFinType1Rec'
p168
F-1.2192935239002441e-05
sS'RoofMatlMetal'
p169
F3.7107042598180654e-07
sS'RoofMatlWdShngl'
p170
F1.0230259095339014e-06
sS'BsmtFinType2Unf'
p171
F2.1176843324973062e-05
sS'GrLivArea'
p172
F0.04920439317822297
sS'PoolQCGd'
p173
F5.6019907988004866e-06
sS'NeighborhoodNridgHt'
p174
F2.1050439502339335e-05
sS'HouseStyle2.5Unf'
p175
F-1.4440808347702217e-06
sS'GarageFinishFin'
p176
F4.3039313905273098e-05
sS'KitchenQualFa'
p177
F-5.1803079106597416e-06
sS'Exterior2ndAsphShn'
p178
F-3.5992228599779029e-07
sS'LandContourLow'
p179
F-1.5631194737686703e-05
sS'SaleTypeCOD'
p180
F3.3564735846423601e-07
sS'MasVnrTypeNA'
p181
F5.174407027981356e-07
sS'NeighborhoodSomerst'
p182
F1.7111153391745495e-05
sS'FireplaceQuGd'
p183
F4.5455498065587164e-05
sS'BsmtFinType1Unf'
p184
F1.3861640333213263e-05
sS'NeighborhoodNoRidge'
p185
F9.869545033190238e-06
sS'X3SsnPorch'
p186
F0.00038363127063017571
sS'GarageTypeDetchd'
p187
F-2.428422317065868e-05
sS'RoofStyleMansard'
p188
F-1.061777277478717e-07
sS'MoSold'
p189
F0.00025745662800077257
sS'Exterior2ndImStucc'
p190
F1.2221758146957483e-06
sS'GarageCondPo'
p191
F-1.0594476971762528e-06
sS'FireplaceQuNA'
p192
F-4.8381803757668315e-05
sS'HouseStyle2.5Fin'
p193
F-1.1945943172129631e-06
sS'SaleTypeNew'
p194
F2.2624900821423917e-05
sS'ExterQualGd'
p195
F5.433038817086921e-05
sS'FunctionalMin2'
p196
F-1.4468798351008677e-05
sS'BsmtUnfSF'
p197
F0.0092190776472293717
sS'SaleTypeCon'
p198
F1.2766190198352069e-07
sS'LotConfigFR3'
p199
F3.0321270168213721e-07
sS'LotConfigFR2'
p200
F1.1126113686912282e-05
sS'HeatingQCGd'
p201
F-1.6013602847188514e-05
sS'Condition2PosN'
p202
F-6.6146139833965638e-07
sS'BsmtFinType2Rec'
p203
F3.4853218343411037e-06
sS'FenceMnWw'
p204
F-1.3023966315620389e-06
sS'RoofStyleShed'
p205
F6.3046113046000789e-06
sS'RoofMatlRoll'
p206
F-2.4483213088589551e-09
sS'BsmtCondTA'
p207
F2.6071128794402042e-05
sS'X2ndFlrSF'
p208
F0.021315259648006114
sS'PoolQCNA'
p209
F1.4745529375632455e-06
sS'SaleConditionNormal'
p210
F7.6449668469308213e-06
sS'GarageFinishUnf'
p211
F-3.3207933771535154e-05
sS'KitchenQualGd'
p212
F3.2901635535626928e-05
sS'X1stFlrSF'
p213
F0.029271487110018861
sS'BsmtFinType1NA'
p214
F-6.9239985196601414e-06
sS'NeighborhoodOldTown'
p215
F-1.5308309925382934e-05
sS'PoolQCFa'
p216
F-2.1299206492546947e-07
sS'FoundationSlab'
p217
F-5.1251530893200159e-06
sS'NeighborhoodIDOTRR'
p218
F-6.0165500956912238e-06
sS'CentralAirN'
p219
F-2.1728244156016435e-05
sS'Condition2RRAe'
p220
F6.4076823249104693e-06
sS'Condition2RRAn'
p221
F-3.6428891085309056e-07
sS'GarageAge'
p222
F-0.002882224422641389
sS'BsmtCondGd'
p223
F-2.6405897955766631e-06
sS'Exterior2ndMetalSd'
p224
F-1.8290434503030909e-05
sS'BldgType1Fam'
p225
F7.0716766861814708e-06
sS'GarageQualGd'
p226
F7.4508512093553316e-06
sS'MiscFeatureNA'
p227
F2.9403000862845693e-05
sS'LowQualFinSF'
p228
F-0.0013823535798019098
sS'Exterior1stPlywood'
p229
F-7.9910623805162428e-06
sS'NeighborhoodEdwards'
p230
F-5.1120796184939525e-06
sS'BsmtFinType1BLQ'
p231
F-2.0681381203480895e-05
sS'FireplaceQuPo'
p232
F-4.4709327917335601e-06
sS'HeatingQCPo'
p233
F-8.2433540669973674e-08
sS'Condition1PosN'
p234
F-6.1807892581561856e-07
sS'AlleyNA'
p235
F1.6397815132916995e-05
sS'KitchenQualTA'
p236
F-5.9785484063160572e-05
sS'Exterior2ndVinylSd'
p237
F3.3079238302577791e-05
sS'LotConfigCorner'
p238
F2.9991227676629297e-05
sS'HalfBath'
p239
F2.410426995857355e-05
sS'HouseStyleSLvl'
p240
F3.8183360676456817e-05
sS'LandContourBnk'
p241
F-8.4559968666232531e-06
sS'NeighborhoodBrkSide'
p242
F-3.4592298158806421e-06
sS'GarageQualNA'
p243
F-5.8208934929832606e-06
sS'Exterior2ndBrk Cmn'
p244
F2.1520223261897072e-07
sS'BsmtFinType2BLQ'
p245
F-6.1024305251139809e-06
sS'LandSlopeGtl'
p246
F2.5384741752266112e-05
sS'WoodDeckSF'
p247
F0.019125543338613077
sS'HouseStyle1.5Fin'
p248
F-3.1193144140490618e-05
sS'BsmtQualNA'
p249
F-6.9239985196601414e-06
sS'MasVnrArea'
p250
F0.021976761475585693
sS'Exterior1stCBlock'
p251
F-1.6140765482333956e-07
sS'HeatingGrav'
p252
F-1.032221898630027e-06
sS'Condition2PosA'
p253
F3.4604410406215804e-07
sS'FenceGdWo'
p254
F-5.9676228519035904e-06
sS'Condition1PosA'
p255
F-3.178925912473625e-07
sS'ExterCondEx'
p256
F4.8954363414207339e-07
sS'NeighborhoodBrDale'
p257
F-1.2998587418345646e-06
sS'HeatingOthW'
p258
F-5.4325900238500187e-07
sS'Exterior1stHdBoard'
p259
F2.5380780151509712e-06
sS'GarageQualFa'
p260
F5.7514215427976559e-07
sS'BsmtFinType1ALQ'
p261
F1.2982847660427033e-05
sS'HouseStyle1Story'
p262
F-5.3689794107804149e-06
sS'FenceGdPrv'
p263
F-4.9573915156493651e-06
sS'SaleTypeWD'
p264
F-1.4944515931146194e-05
sS'FenceNA'
p265
F4.3182763568160036e-05
sS'TotalBsmtSF'
p266
F0.03212635394286139
sS'GarageType2Types'
p267
F-1.3323576973118873e-05
sS'Exterior2ndBrkFace'
p268
F-4.6750074730208824e-06
sS'RoofMatlMembran'
p269
F-1.6221535909778956e-07
sS'ExterQualTA'
p270
F-6.2576618932068471e-05
sS'Exterior1stAsbShng'
p271
F-2.8051457099989747e-06
sS'KitchenQualEx'
p272
F3.9415616843018783e-05
sS'GarageCondGd'
p273
F7.120959809384837e-06
sS'RoofMatlWdShake'
p274
F-1.697828315064284e-07
sS'SaleTypeCWD'
p275
F4.5014238075473853e-07
sS'SaleConditionPartial'
p276
F2.4349958890518254e-05
sS'HeatingQCTA'
p277
F4.4803046680843557e-06
sS'LandContourLvl'
p278
F1.1433960131487786e-05
sS'SaleConditionAlloca'
p279
F5.9436839552607302e-06
sS'Exterior1stStucco'
p280
F-3.9207884699198585e-06
sS'LandSlopeMod'
p281
F-7.8553939538210949e-06
sS'BsmtFinType2NA'
p282
F-6.7460866463693789e-06
sS'BsmtFinSF1'
p283
F0.023466233083943671
sS'BsmtFinSF2'
p284
F-0.00055895678831179864
sS'LotShapeIR3'
p285
F-3.8676829604998099e-06
sS'GarageQualPo'
p286
F-2.2865793575238793e-07
sS'RoofMatlTar&Grv'
p287
F6.6047197616585169e-06
sS'ScreenPorch'
p288
F0.002186772722973952
sS'BedroomAbvGr'
p289
F2.0224260628709063e-05
sS'Exterior2ndWd Shng'
p290
F1.1616498227917978e-05
sS'BsmtFinType2ALQ'
p291
F4.2707572033002847e-06
sS'AlleyGrvl'
p292
F-7.1973032998094669e-06
sS'Id'
p293
F7.3514604048252945e-06
sS'Condition1RRAe'
p294
F-9.8061772655655794e-07
sS'CentralAirY'
p295
F2.9079704560841653e-05
sS'GarageCondNA'
p296
F-5.8208934929832606e-06
sS'FunctionalTyp'
p297
F1.949596146729892e-05
sS'SaleConditionAdjLand'
p298
F-5.3192218162414484e-07
sS'Exterior1stAsphShn'
p299
F-1.7254565041047332e-07
sS'MiscFeatureTenC'
p300
F-1.8632615385479587e-07
sS'GarageCars'
p301
F0.000118926601058152
sS'BsmtQualEx'
p302
F3.6778642647678229e-05
sS'Condition1RRAn'
p303
F4.7751503134301836e-07
sS'NeighborhoodStoneBr'
p304
F2.275033234786716e-05
sS'MiscVal'
p305
F0.0057132019747513406
sS'FoundationStone'
p306
F-1.004640575224275e-05
saI1
I5
t.