((lp1
ccollections
defaultdict
p2
(c__builtin__
int
p3
tRp4
S'RoofStyleFlat'
p5
F5.0862881570899482e-06
sS'Condition1Artery'
p6
F-9.2254732646655761e-06
sS'Exterior1stCemntBd'
p7
F-8.3649154985139189e-06
sS'NeighborhoodGilbert'
p8
F1.1061316139369408e-05
sS'BsmtCondNA'
p9
F-4.1663829375988361e-06
sS'FunctionalMaj1'
p10
F-5.4956821466679363e-06
sS'OpenPorchSF'
p11
F-2.5068365144595693e-05
sS'NeighborhoodCrawfor'
p12
F-4.7434688738695501e-06
sS'LotShapeReg'
p13
F-6.7187707052139919e-05
sS'OverallQual'
p14
F0.00020407882277432223
sS'ExterCondFa'
p15
F-5.8466135704999544e-06
sS'Exterior1stMetalSd'
p16
F5.8250709778900923e-06
sS'HouseAge'
p17
F-0.0044933878517715601
sS'Exterior2ndCmentBd'
p18
F-1.5828953607809506e-05
sS'LandContourHLS'
p19
F9.7160522947653908e-06
sS'RoofStyleGambrel'
p20
F-1.0211705656561756e-06
sS'Exterior2ndCBlock'
p21
F-1.6884093319541833e-07
sS'HeatingWall'
p22
F-1.9520138584885777e-07
sS'Exterior2ndAsbShng'
p23
F-4.3300525950219732e-06
sS'EnclosedPorch'
p24
F-0.0033142216817889508
sS'BldgTypeTwnhs'
p25
F-1.7124911768256541e-05
sS'NeighborhoodBlmngtn'
p26
F-2.6205225926566017e-06
sS'Unnamed: 0'
p27
F-0.012332949921875501
sS'Exterior2ndStone'
p28
F1.7069724432186754e-07
sS'MasVnrTypeStone'
p29
F1.897009317781489e-05
sS'Condition1Norm'
p30
F3.5954586796433417e-06
sS'MiscFeatureShed'
p31
F-1.9364275615237772e-05
sS'BsmtHalfBath'
p32
F1.8782106155387836e-05
sS'KitchenAbvGr'
p33
F-1.0643768728901835e-05
sS'Exterior1stWd Sdng'
p34
F-1.0165801495431834e-05
sS'SaleConditionAdjLand'
p35
F-4.3957435985172132e-07
sS'BsmtFinType2GLQ'
p36
F-6.6686237243150072e-07
sS'NeighborhoodTimber'
p37
F-1.4378170894391987e-06
sS'ExterCondPo'
p38
F-6.2419000415442411e-07
sS'BsmtQualFa'
p39
F-6.6710069812885638e-06
sS'GarageQualTA'
p40
F1.7609030549279849e-05
sS'RoofMatlCompShg'
p41
F-3.5506098465236865e-06
sS'ElectricalSBrkr'
p42
F2.5969237306498902e-05
sS'SaleTypeOth'
p43
F-8.7588456360131903e-07
sS'BsmtExposureAv'
p44
F6.1530328153831571e-05
sS'LandSlopeSev'
p45
F-1.5115795937569009e-05
sS'PoolArea'
p46
F0.0040873097658176965
sS'FullBath'
p47
F5.4718385292790782e-05
sS'BsmtFinType1LwQ'
p48
F-3.9675971748654068e-06
sS'MSZoningRM'
p49
F-4.7699043836592307e-05
sS'MSZoningRL'
p50
F5.8177114908657109e-05
sS'NeighborhoodCollgCr'
p51
F3.3505952335861977e-05
sS'Exterior1stImStucc'
p52
F2.8324273063455827e-07
sS'MSZoningRH'
p53
F-2.5138897872217072e-06
sS'MSSubClass'
p54
F-0.0063984450066882793
sS'FoundationCBlock'
p55
F4.8590666474139886e-06
sS'FoundationPConc'
p56
F4.621843506930736e-05
sS'BsmtFinType1GLQ'
p57
F3.0502945234785162e-05
sS'NeighborhoodNAmes'
p58
F-3.308397897911588e-05
sS'BsmtCondFa'
p59
F-1.012812082713058e-05
sS'GarageTypeCarPort'
p60
F-5.2598173577680613e-07
sS'BsmtQualGd'
p61
F7.8173336863551263e-06
sS'NeighborhoodNWAmes'
p62
F4.0214393646129177e-07
sS'HeatingFloor'
p63
F-5.681146910125081e-08
sS'Exterior2ndWd Sdng'
p64
F-1.0916984216645912e-05
sS'RemodAddAge'
p65
F-0.0023492038195446169
sS'PavedDriveN'
p66
F-3.1220960994310878e-06
sS'MiscFeatureGar2'
p67
F5.6283899313017972e-06
sS'AlleyPave'
p68
F-6.6909289883581665e-06
sS'MasVnrTypeBrkCmn'
p69
F-7.3429694755975141e-06
sS'FireplaceQuEx'
p70
F8.3762849320933588e-07
sS'PavedDriveY'
p71
F7.8327209416991622e-06
sS'BldgTypeTwnhsE'
p72
F-1.7237354493396474e-05
sS'PavedDriveP'
p73
F8.2921500082897879e-07
sS'RoofMatlClyTile'
p74
F7.8968395483399019e-07
sS'FoundationWood'
p75
F-5.028619181254259e-07
sS'Exterior1stBrkFace'
p76
F5.3667259292687076e-07
sS'SaleConditionAbnorml'
p77
F-3.3746283217559951e-05
sS'Condition2RRNn'
p78
F4.546952523264775e-08
sS'BsmtCondPo'
p79
F-5.8251113323059061e-07
sS'GarageTypeNA'
p80
F-1.477695499141961e-05
sS'MiscFeatureOthr'
p81
F-7.2909389447524702e-07
sS'Condition1Feedr'
p82
F9.994916692119373e-06
sS'GarageCondEx'
p83
F-1.3290228520226801e-07
sS'FoundationBrkTil'
p84
F-3.3517910682422537e-05
sS'GarageCondFa'
p85
F-4.1498057348120805e-06
sS'NeighborhoodVeenker'
p86
F4.5632508317465791e-06
sS'HeatingQCFa'
p87
F-7.6769342092761548e-06
sS'MSZoningFV'
p88
F1.4786158097170449e-07
sS'OverallCond'
p89
F6.1490779528469711e-05
sS'BsmtFinType2LwQ'
p90
F-2.2125898728613812e-06
sS'SaleTypeConLw'
p91
F-1.7430543158495718e-06
sS'ExterCondTA'
p92
F-1.3732512426651392e-05
sS'FireplaceQuTA'
p93
F7.5199319894542277e-07
sS'NeighborhoodMeadowV'
p94
F-6.4996029131614465e-06
sS'MasVnrTypeBrkFace'
p95
F-1.0676466930640298e-06
sS'GarageTypeAttchd'
p96
F4.1731851015410055e-05
sS'BsmtExposureNA'
p97
F-3.0344530958050274e-06
sS'ExterCondGd'
p98
F2.5644070409624776e-05
sS'NeighborhoodClearCr'
p99
F-1.362346870629412e-06
sS'ElectricalFuseP'
p100
F-3.7490025800406908e-07
sS'BldgType2fmCon'
p101
F-1.9505488738231059e-05
sS'Fireplaces'
p102
F-1.493591294238012e-06
sS'LotFrontage'
p103
F0.0036291673164878606
sS'NeighborhoodNPkVill'
p104
F-2.2292448687201126e-06
sS'Exterior2ndPlywood'
p105
F-1.4911702125944272e-05
sS'SaleTypeConLI'
p106
F-9.1855715512206459e-08
sS'FenceMnPrv'
p107
F6.5351119564864714e-06
sS'Utilities'
p108
F5.5105798565965543e-06
sS'FunctionalMaj2'
p109
F-1.2145470828693134e-06
sS'ElectricalFuseA'
p110
F-1.551433325367793e-05
sS'BsmtExposureNo'
p111
F-6.1414745832992173e-05
sS'Condition2Artery'
p112
F-6.4492791099295585e-07
sS'ElectricalFuseF'
p113
F-4.4164331978522259e-06
sS'TotRmsAbvGrd'
p114
F0.00017174752834665796
sS'PoolQCEx'
p115
F8.3164406286000496e-08
sS'Condition1RRNe'
p116
F3.6925427498516962e-07
sS'LotConfigCulDSac'
p117
F1.6568482662623669e-05
sS'SaleTypeConLD'
p118
F4.723817801752317e-06
sS'Exterior1stVinylSd'
p119
F7.0652197369237887e-06
sS'HouseStyleSFoyer'
p120
F-6.5961111152159655e-06
sS'BsmtExposureGd'
p121
F1.469930895240964e-05
sS'ExterQualFa'
p122
F-3.0396003205452618e-06
sS'RoofStyleHip'
p123
F1.4071511244932864e-05
sS'BsmtExposureMn'
p124
F-6.2405983343467923e-06
sS'GarageCondTA'
p125
F2.2634654680640761e-05
sS'NeighborhoodSawyerW'
p126
F2.3556127047177451e-07
sS'YrSold'
p127
F0.011122992733116495
sS'Exterior1stBrkComm'
p128
F-4.9729620617018595e-07
sS'Exterior2ndHdBoard'
p129
F5.2634661278806769e-05
sS'HouseStyle2Story'
p130
F3.8356466454374475e-06
sS'NeighborhoodSawyer'
p131
F2.5058679501967788e-05
sS'NeighborhoodBlueste'
p132
F-2.2262065112095477e-07
sS'GarageTypeBuiltIn'
p133
F4.777050900657611e-05
sS'GarageFinishNA'
p134
F-1.477695499141961e-05
sS'MSZoningC (all)'
p135
F-2.5722030227176223e-06
sS'BsmtQualTA'
p136
F-2.7945983118056826e-05
sS'FunctionalMin1'
p137
F-5.9446123294963435e-06
sS'Condition1RRNn'
p138
F-7.0407921630334889e-08
sS'HeatingQCEx'
p139
F1.5908520410816919e-05
sS'LotShapeIR1'
p140
F5.7463996110321799e-05
sS'LotShapeIR2'
p141
F1.3932141083812845e-05
sS'Condition2Norm'
p142
F2.158111141958894e-06
sS'HouseStyle1.5Unf'
p143
F-1.2973659907393153e-06
sS'HeatingGasA'
p144
F1.2599728754477898e-05
sS'Exterior2ndStucco'
p145
F-2.4647316086008976e-06
sS'MasVnrTypeNone'
p146
F-5.367915054940551e-06
sS'GarageFinishRFn'
p147
F1.2727592732959664e-05
sS'Exterior1stWdShing'
p148
F-5.1173585536747975e-06
sS'FunctionalSev'
p149
F-2.0226242776970236e-07
sS'GarageArea'
p150
F0.02793992636132954
sS'ElectricalMix'
p151
F-2.0472726007655698e-07
sS'LotConfigInside'
p152
F-7.4954352584684879e-05
sS'Exterior1stStone'
p153
F1.4859100925151197e-07
sS'HeatingGasW'
p154
F-4.7219010213590944e-06
sS'FunctionalMod'
p155
F3.616426284443691e-06
sS'GarageQualEx'
p156
F9.1045994495519892e-07
sS'SaleConditionFamily'
p157
F-1.0962901320803853e-05
sS'ElectricalNA'
p158
F8.0996506208719918e-08
sS'RoofStyleGable'
p159
F-1.8577640921991646e-05
sS'NeighborhoodMitchel'
p160
F1.4526198506688764e-06
sS'BldgTypeDuplex'
p161
F-6.0630514540849166e-06
sS'BsmtFullBath'
p162
F-9.1887756885570528e-06
sS'Condition2Feedr'
p163
F-9.6126942687899263e-07
sS'FireplaceQuFa'
p164
F6.3882918172829553e-06
sS'ExterQualEx'
p165
F1.6272069720720817e-05
sS'GarageTypeBasment'
p166
F-3.6352768144689798e-06
sS'Exterior2ndOther'
p167
F1.0677865942785686e-07
sS'LotArea'
p168
F-0.0015238242161613117
sS'NeighborhoodSWISU'
p169
F-1.1024784521753882e-05
sS'BsmtFinType1Rec'
p170
F-1.0451125538162479e-05
sS'RoofMatlMetal'
p171
F5.6669426773826901e-07
sS'RoofMatlWdShngl'
p172
F2.9315028892805229e-06
sS'BsmtFinType2Unf'
p173
F1.303167661864226e-05
sS'GrLivArea'
p174
F0.049735559919145522
sS'PoolQCGd'
p175
F6.0180268098443419e-06
sS'NeighborhoodNridgHt'
p176
F1.1527928864473789e-05
sS'HouseStyle2.5Unf'
p177
F-2.7217473861687043e-06
sS'GarageFinishFin'
p178
F2.3504369477735984e-05
sS'KitchenQualFa'
p179
F-8.5638134490793331e-06
sS'Exterior2ndAsphShn'
p180
F-2.2708999667461231e-07
sS'LandContourLow'
p181
F-2.839826567255304e-06
sS'SaleTypeCOD'
p182
F-8.5810825602885089e-06
sS'MasVnrTypeNA'
p183
F3.4827788888428864e-07
sS'NeighborhoodSomerst'
p184
F9.2797617994533266e-06
sS'FireplaceQuGd'
p185
F2.2838070627812881e-05
sS'BsmtFinType1Unf'
p186
F8.9295139563990923e-06
sS'NeighborhoodNoRidge'
p187
F5.1604624808546675e-06
sS'X3SsnPorch'
p188
F0.00037660336051310102
sS'GarageTypeDetchd'
p189
F-5.5781108247625307e-05
sS'RoofStyleMansard'
p190
F4.3794701329822049e-07
sS'MoSold'
p191
F6.7695954744480139e-05
sS'Exterior2ndImStucc'
p192
F-7.4370952982205693e-07
sS'FireplaceQuNA'
p193
F-2.0547457907627789e-05
sS'HouseStyle2.5Fin'
p194
F-1.3289378570049516e-06
sS'SaleTypeNew'
p195
F1.4026601902998521e-05
sS'ExterQualGd'
p196
F3.1574701789817373e-05
sS'FunctionalMin2'
p197
F5.875641040384724e-06
sS'BsmtUnfSF'
p198
F0.0013913806530003964
sS'SaleTypeCon'
p199
F4.0881535779896888e-07
sS'LotConfigFR3'
p200
F-2.900389802752283e-07
sS'LotConfigFR2'
p201
F1.9856850691727972e-05
sS'HeatingQCGd'
p202
F-3.6137003928007885e-05
sS'Condition2PosN'
p203
F-7.0326647159527457e-07
sS'BsmtFinType2Rec'
p204
F7.9083697114043169e-07
sS'FenceMnWw'
p205
F-3.205712299528825e-06
sS'RoofStyleShed'
p206
F5.5429049154237537e-06
sS'RoofMatlRoll'
p207
F4.4425356462292256e-08
sS'BsmtCondTA'
p208
F1.976567407305235e-06
sS'X2ndFlrSF'
p209
F0.018625869410348803
sS'PoolQCNA'
p210
F-2.0283054214120378e-07
sS'SaleConditionNormal'
p211
F2.7023108216657574e-05
sS'GarageFinishUnf'
p212
F-1.591516737617898e-05
sS'KitchenQualGd'
p213
F-2.7853355866352315e-06
sS'X1stFlrSF'
p214
F0.033365993174217692
sS'BsmtFinType1NA'
p215
F-4.1663829375988361e-06
sS'NeighborhoodOldTown'
p216
F-2.4165248966100929e-05
sS'PoolQCFa'
p217
F-3.5852083089211871e-07
sS'FoundationSlab'
p218
F-2.6506315871249022e-06
sS'NeighborhoodIDOTRR'
p219
F-7.2380154856848093e-06
sS'CentralAirN'
p220
F-2.3635634229975511e-05
sS'Condition2RRAe'
p221
F5.6283899313017972e-06
sS'Condition2RRAn'
p222
F-3.8764830778413176e-07
sS'GarageAge'
p223
F-0.0019473583724252245
sS'BsmtCondGd'
p224
F1.8440287333751867e-05
sS'Exterior2ndMetalSd'
p225
F-2.6710085814302657e-06
sS'BldgType1Fam'
p226
F6.5470646297066234e-05
sS'GarageQualGd'
p227
F4.6250255270422684e-06
sS'MiscFeatureNA'
p228
F2.0294707175490359e-05
sS'LowQualFinSF'
p229
F-0.0022563026654204101
sS'Exterior1stPlywood'
p230
F-1.4546559496515388e-05
sS'NeighborhoodEdwards'
p231
F1.1191678530021163e-06
sS'BsmtFinType1BLQ'
p232
F-4.2457704982602843e-06
sS'FireplaceQuPo'
p233
F-4.7286863865256963e-06
sS'HeatingQCPo'
p234
F-1.0850297992426237e-07
sS'Condition1PosN'
p235
F-2.3999413106103802e-06
sS'AlleyNA'
p236
F1.7756924948611813e-05
sS'KitchenQualTA'
p237
F-2.6058950711939705e-05
sS'Exterior2ndVinylSd'
p238
F1.0127994613775333e-05
sS'LotConfigCorner'
p239
F4.435889805370559e-05
sS'HalfBath'
p240
F3.1556031597728632e-05
sS'HouseStyleSLvl'
p241
F4.8902797772917219e-05
sS'LandContourBnk'
p242
F9.9351447852903334e-06
sS'NeighborhoodBrkSide'
p243
F-9.0536000943401859e-06
sS'GarageQualNA'
p244
F-1.477695499141961e-05
sS'Exterior2ndBrk Cmn'
p245
F-2.6910656303253864e-06
sS'BsmtFinType2BLQ'
p246
F-1.2703369697191265e-05
sS'LandSlopeGtl'
p247
F3.8517439708919655e-06
sS'WoodDeckSF'
p248
F0.017884584167350281
sS'HouseStyle1.5Fin'
p249
F-4.3763579622532731e-05
sS'BsmtQualNA'
p250
F-4.1663829375988361e-06
sS'MasVnrArea'
p251
F0.011065913603364197
sS'Exterior1stCBlock'
p252
F-1.6884093319541833e-07
sS'HeatingGrav'
p253
F-1.3470773952401091e-06
sS'Condition2PosA'
p254
F4.0498136185504681e-07
sS'FenceGdWo'
p255
F-8.0854437696115912e-06
sS'Condition1PosA'
p256
F-1.2954811799675247e-07
sS'ExterCondEx'
p257
F9.9085434777967869e-08
sS'NeighborhoodBrDale'
p258
F-8.0382353084017191e-06
sS'HeatingOthW'
p259
F-7.3889763983169079e-07
sS'Exterior1stHdBoard'
p260
F3.6301212412161492e-05
sS'GarageQualFa'
p261
F-2.5916475810285738e-06
sS'BsmtFinType1ALQ'
p262
F-1.1061743199200201e-05
sS'HouseStyle1Story'
p263
F8.5091373964041661e-06
sS'FenceGdPrv'
p264
F-7.0985134401107643e-06
sS'SaleTypeWD'
p265
F-1.328554088252903e-06
sS'FenceNA'
p266
F1.7394397395861735e-05
sS'TotalBsmtSF'
p267
F0.032801759522764762
sS'GarageType2Types'
p268
F-9.2431983895984261e-06
sS'Exterior2ndBrkFace'
p269
F-4.8134247615092962e-06
sS'RoofMatlMembran'
p270
F3.7685835002282391e-08
sS'ExterQualTA'
p271
F-3.9267331346895968e-05
sS'Exterior1stAsbShng'
p272
F-4.3885013667496348e-06
sS'KitchenQualEx'
p273
F4.2947939590751443e-05
sS'GarageCondGd'
p274
F3.1301227987313005e-06
sS'RoofMatlWdShake'
p275
F-3.0252402342795447e-07
sS'SaleTypeCWD'
p276
F-9.9896397594828596e-07
sS'SaleConditionPartial'
p277
F2.0264169619867547e-05
sS'HeatingQCTA'
p278
F3.355376054948859e-05
sS'LandContourLvl'
p279
F-1.1271530669703424e-05
sS'SaleConditionAlloca'
p280
F3.4013209047873637e-06
sS'Exterior1stStucco'
p281
F-1.1796304168823179e-06
sS'LandSlopeMod'
p282
F1.6803891809774017e-05
sS'BsmtFinType2NA'
p283
F-4.0543125607644541e-06
sS'BsmtFinSF1'
p284
F0.025777773270405351
sS'BsmtFinSF2'
p285
F0.0056326055993591029
sS'LotShapeIR3'
p286
F1.3314097011027455e-06
sS'GarageQualPo'
p287
F-2.3607360573207848e-07
sS'RoofMatlTar&Grv'
p288
F5.0229814097313238e-06
sS'ScreenPorch'
p289
F0.0017554530709489918
sS'BedroomAbvGr'
p290
F2.6755624383327133e-05
sS'Exterior2ndWd Shng'
p291
F2.2672716337448996e-06
sS'BsmtFinType2ALQ'
p292
F1.1354460756562837e-05
sS'AlleyGrvl'
p293
F-5.5261561171568337e-06
sS'Id'
p294
F5.5398398430970248e-06
sS'Condition1RRAe'
p295
F1.2084184364150664e-06
sS'CentralAirY'
p296
F2.9175474073072348e-05
sS'GarageCondNA'
p297
F-1.477695499141961e-05
sS'FunctionalTyp'
p298
F8.9048765050718681e-06
sS'GarageCondPo'
p299
F-1.1652746248411799e-06
sS'Exterior1stAsphShn'
p300
F-1.9126564955768489e-07
sS'MiscFeatureTenC'
p301
F-2.8988775398231566e-07
sS'GarageCars'
p302
F0.00011648049267954963
sS'BsmtQualEx'
p303
F3.6505879193686235e-05
sS'Condition1RRAn'
p304
F2.1971623748371129e-06
sS'NeighborhoodStoneBr'
p305
F1.3892482193760052e-05
sS'MiscVal'
p306
F0.014949168144648471
sS'FoundationStone'
p307
F-8.8662576859514999e-06
saI1
I5
t.