((lp1
ccollections
defaultdict
p2
(c__builtin__
int
p3
tRp4
S'RoofStyleFlat'
p5
F7.0037164454432638e-10
sS'Condition1Artery'
p6
F7.2892758021319421e-08
sS'Exterior1stCemntBd'
p7
F4.0406596117094094e-07
sS'NeighborhoodGilbert'
p8
F2.7429090436460433e-07
sS'BsmtCondNA'
p9
F1.3703108729708822e-09
sS'FunctionalMaj1'
p10
F3.4644520367579883e-08
sS'OpenPorchSF'
p11
F0.00029568671194962683
sS'NeighborhoodCrawfor'
p12
F2.0367091704237114e-07
sS'LotShapeReg'
p13
F2.9570266128421238e-06
sS'OverallQual'
p14
F3.4321802839831574e-05
sS'ExterCondFa'
p15
F7.442225852140361e-09
sS'Exterior1stMetalSd'
p16
F4.8796633041626171e-07
sS'HouseAge'
p17
F8.657558845751258e-05
sS'NeighborhoodNAmes'
p18
F3.5715852057729248e-07
sS'LandContourHLS'
p19
F2.5583729129150391e-07
sS'RoofStyleGambrel'
p20
F2.6007843209569361e-08
sS'Exterior2ndCBlock'
p21
F1.7764517418268473e-09
sS'HeatingWall'
p22
F-1.7015052200641148e-09
sS'Exterior2ndAsbShng'
p23
F7.0956131214531486e-09
sS'EnclosedPorch'
p24
F6.0391045314113849e-05
sS'NeighborhoodBlmngtn'
p25
F1.3269379346010581e-07
sS'Unnamed: 0'
p26
F0.0034670603084017543
sS'Exterior2ndStone'
p27
F9.4516173622674984e-10
sS'MasVnrTypeStone'
p28
F8.8830344664503384e-07
sS'Condition1Norm'
p29
F4.3705002365969223e-06
sS'MiscFeatureShed'
p30
F9.5763602033776926e-09
sS'BsmtHalfBath'
p31
F1.4182149040345938e-07
sS'KitchenAbvGr'
p32
F4.8041018806185072e-06
sS'Exterior1stWd Sdng'
p33
F2.4131691888621487e-07
sS'Exterior1stCBlock'
p34
F1.7764517418268473e-09
sS'BsmtFinType2GLQ'
p35
F5.9624389385536535e-08
sS'NeighborhoodMitchel'
p36
F6.9212897376010719e-08
sS'Exterior2ndPlywood'
p37
F2.0203713568688836e-07
sS'ExterCondPo'
p38
F-3.9996618571531935e-10
sS'SaleConditionAdjLand'
p39
F1.8130098172939288e-09
sS'GarageQualTA'
p40
F4.5559157237936744e-06
sS'RoofMatlCompShg'
p41
F4.7464714934353538e-06
sS'ElectricalSBrkr'
p42
F4.6575671284458013e-06
sS'SaleTypeOth'
p43
F-9.9047455801126925e-10
sS'BsmtExposureAv'
p44
F9.776710752860267e-07
sS'LandSlopeSev'
p45
F-2.1820198515859655e-07
sS'NeighborhoodNWAmes'
p46
F2.1482971069454736e-07
sS'FullBath'
p47
F8.7690971683645938e-06
sS'BsmtFinType1LwQ'
p48
F1.6221923209021446e-07
sS'MSZoningRM'
p49
F4.8773555099695715e-07
sS'MSZoningRL'
p50
F3.8288467838929342e-06
sS'NeighborhoodCollgCr'
p51
F6.4937285297495596e-07
sS'Exterior1stImStucc'
p52
F8.4188114288396589e-09
sS'MSZoningRH'
p53
F3.5408382126097541e-08
sS'MSSubClass'
p54
F0.00029127437078806052
sS'FoundationCBlock'
p55
F8.9177623393059725e-07
sS'Exterior2ndBrkFace'
p56
F-2.5843350780378681e-08
sS'FoundationPConc'
p57
F3.5906356418018806e-06
sS'BsmtFinType1GLQ'
p58
F2.4396639135951041e-06
sS'Exterior2ndCmentBd'
p59
F4.1135226956951659e-07
sS'BsmtCondFa'
p60
F4.4057683347503464e-08
sS'BsmtQualGd'
p61
F2.5367811880170092e-06
sS'PoolArea'
p62
F6.6876464921327595e-06
sS'Exterior2ndWd Sdng'
p63
F3.2065830871226362e-07
sS'RemodAddAge'
p64
F5.0835675278155242e-05
sS'PavedDriveN'
p65
F1.3573794951799913e-08
sS'GarageQualGd'
p66
F6.7842298327652264e-08
sS'AlleyPave'
p67
F1.815897628406873e-07
sS'NeighborhoodSWISU'
p68
F6.2570637593932334e-08
sS'FireplaceQuEx'
p69
F2.4079472965501971e-07
sS'PavedDriveY'
p70
F4.7182523391290626e-06
sS'BldgTypeTwnhsE'
p71
F6.4177203567465489e-07
sS'GarageTypeBuiltIn'
p72
F5.4913197200304794e-07
sS'RoofMatlClyTile'
p73
F-3.5388073568129865e-08
sS'FoundationWood'
p74
F9.3459813477763512e-09
sS'Exterior1stBrkFace'
p75
F6.7585177301130959e-08
sS'BsmtQualNA'
p76
F1.3703108729708822e-09
sS'Condition2RRNn'
p77
F-8.7711311552904994e-10
sS'BsmtCondPo'
p78
F-4.4685976534325813e-09
sS'Exterior1stStucco'
p79
F4.0458003704855173e-08
sS'MiscFeatureOthr'
p80
F-8.375880470112276e-10
sS'GarageCondEx'
p81
F4.0160261067925204e-09
sS'FoundationBrkTil'
p82
F2.2894734236153422e-07
sS'HeatingFloor'
p83
F9.3037406241465762e-10
sS'HeatingQCFa'
p84
F3.8886485920235342e-08
sS'MSZoningFV'
p85
F4.1622493541677844e-07
sS'OverallCond'
p86
F2.6205507118713186e-05
sS'GarageCondNA'
p87
F4.8157433432891806e-08
sS'BsmtFinType2LwQ'
p88
F1.0369343360812843e-07
sS'SaleTypeConLw'
p89
F1.1315560202263134e-08
sS'ExterCondTA'
p90
F4.3359821710075567e-06
sS'ExterQualGd'
p91
F2.7404243952905379e-06
sS'RoofMatlRoll'
p92
F-8.7315784098325316e-10
sS'NeighborhoodMeadowV'
p93
F4.4814131576816651e-08
sS'MasVnrTypeBrkFace'
p94
F2.0319764798653277e-06
sS'GarageTypeAttchd'
p95
F3.3952476022152381e-06
sS'BsmtExposureNA'
p96
F1.3703108729708822e-09
sS'ExterCondGd'
p97
F3.91256443439216e-07
sS'NeighborhoodClearCr'
p98
F-1.3034922536293813e-07
sS'ElectricalFuseP'
p99
F3.1103691223511646e-09
sS'BldgType2fmCon'
p100
F7.8590524522004105e-10
sS'Fireplaces'
p101
F3.5192263127471456e-06
sS'NeighborhoodIDOTRR'
p102
F1.1458072442282014e-09
sS'MiscVal'
p103
F8.1007982994086986e-05
sS'SaleTypeConLI'
p104
F2.0862600413373543e-08
sS'FenceMnPrv'
p105
F3.5547562475910898e-07
sS'Utilities'
p106
F4.7499940802828039e-06
sS'FunctionalMaj2'
p107
F-3.3498014239506178e-09
sS'ElectricalFuseA'
p108
F6.9344810828973532e-08
sS'BsmtExposureNo'
p109
F2.8654837883490601e-06
sS'Condition2Artery'
p110
F1.0319681123820394e-09
sS'ElectricalFuseF'
p111
F1.7814302662397801e-08
sS'TotRmsAbvGrd'
p112
F3.3996458713525373e-05
sS'ElectricalMix'
p113
F-2.3541642583699505e-09
sS'LotConfigCulDSac'
p114
F2.1753213666746896e-07
sS'KitchenQualFa'
p115
F2.2046592792703107e-08
sS'Exterior1stVinylSd'
p116
F2.6845096242586839e-06
sS'HouseStyleSFoyer'
p117
F8.5945945868853819e-08
sS'BsmtExposureGd'
p118
F4.9399090092908289e-07
sS'ExterQualFa'
p119
F-3.0223839552709442e-09
sS'RoofStyleHip'
p120
F1.2947479450836039e-06
sS'NeighborhoodNridgHt'
p121
F7.846941843807366e-07
sS'GarageCondTA'
p122
F4.6497100677784842e-06
sS'NeighborhoodSawyerW'
p123
F2.2794717522985292e-07
sS'YrSold'
p124
F0.0095328738744061697
sS'Exterior1stBrkComm'
p125
F-5.0029100293157868e-09
sS'Exterior2ndHdBoard'
p126
F4.7132963299008619e-07
sS'HouseStyle2Story'
p127
F2.0775065787788438e-06
sS'NeighborhoodSawyer'
p128
F8.7860064691779194e-08
sS'NeighborhoodBlueste'
p129
F1.2125318425345304e-08
sS'PoolQCFa'
p130
F4.0644052297810524e-09
sS'PavedDriveP'
p131
F1.609404761792025e-08
sS'MiscFeatureGar2'
p132
F8.5997768032855062e-10
sS'GarageFinishNA'
p133
F4.8157433432891806e-08
sS'LotConfigCorner'
p134
F8.516924000781769e-07
sS'MSZoningC (all)'
p135
F-2.0295470734023944e-08
sS'HeatingQCTA'
p136
F5.5964002990387802e-07
sS'Condition1RRNn'
p137
F3.059268020344875e-08
sS'Exterior2ndMetalSd'
p138
F4.8271497225461476e-07
sS'LotShapeIR1'
p139
F1.8592873586066306e-06
sS'LotShapeIR2'
p140
F2.9620937751695684e-08
sS'Condition2Norm'
p141
F4.7267711488308776e-06
sS'HouseStyle1.5Unf'
p142
F2.1038471938514369e-08
sS'HeatingGasA'
p143
F4.7952017610491705e-06
sS'FenceGdWo'
p144
F1.02301385577107e-07
sS'LotFrontage'
p145
F0.00028961885070881812
sS'GarageFinishRFn'
p146
F1.6782610998788929e-06
sS'Exterior1stWdShing'
p147
F4.0085353452521828e-08
sS'FunctionalSev'
p148
F-2.8598514670075368e-09
sS'GarageArea'
p149
F0.0027807475270063063
sS'NeighborhoodNoRidge'
p150
F3.8501499281609637e-07
sS'LotConfigInside'
p151
F3.5136310354131176e-06
sS'Exterior1stStone'
p152
F8.4977836455237625e-09
sS'HeatingGasW'
p153
F-4.3511426318888081e-08
sS'FunctionalMod'
p154
F2.0470043226576404e-08
sS'GarageQualEx'
p155
F2.1788163229713087e-08
sS'SaleConditionFamily'
p156
F4.1732206400946486e-08
sS'ElectricalNA'
p157
F2.4377348976240105e-09
sS'RoofStyleGable'
p158
F3.407478419578804e-06
sS'BsmtFinType1NA'
p159
F1.3703108729708822e-09
sS'BldgTypeDuplex'
p160
F5.9846391799183812e-08
sS'BsmtFullBath'
p161
F2.2263046650113367e-06
sS'Condition2Feedr'
p162
F8.0481104448345614e-09
sS'FireplaceQuFa'
p163
F6.9030536620530595e-08
sS'ExterQualEx'
p164
F5.8133226501148893e-07
sS'Exterior2ndOther'
p165
F1.0170701294988777e-08
sS'LotArea'
p166
F0.0078385561997065811
sS'MasVnrTypeBrkCmn'
p167
F-6.7576461810246558e-08
sS'BsmtFinType1Rec'
p168
F1.1266554539195035e-07
sS'BsmtFinType2Unf'
p169
F4.4398292835680786e-06
sS'GrLivArea'
p170
F0.0083957399011323486
sS'PoolQCGd'
p171
F-3.1025051589004577e-08
sS'RoofMatlMetal'
p172
F-3.5944679404060864e-09
sS'HouseStyle2.5Unf'
p173
F2.7857590167461969e-08
sS'GarageFinishFin'
p174
F1.9468574598617568e-06
sS'KitchenQualTA'
p175
F1.0195307618989584e-06
sS'Exterior2ndAsphShn'
p176
F-9.5132270047492638e-10
sS'LandContourLow'
p177
F-2.1894744803228595e-07
sS'SaleTypeCOD'
p178
F7.0967484160196362e-08
sS'MasVnrTypeNA'
p179
F4.1284310868764968e-08
sS'NeighborhoodSomerst'
p180
F5.4945090073578721e-07
sS'FireplaceQuGd'
p181
F1.7934108370794213e-06
sS'BsmtFinType1Unf'
p182
F1.3679137511341189e-06
sS'BldgTypeTwnhs'
p183
F1.9089357975036624e-07
sS'X3SsnPorch'
p184
F1.9057309375494587e-05
sS'GarageTypeDetchd'
p185
F7.2362560468906847e-07
sS'RoofStyleMansard'
p186
F2.1971709540608429e-08
sS'MoSold'
p187
F3.0744433045745078e-05
sS'Exterior2ndImStucc'
p188
F8.7609171633157511e-08
sS'NeighborhoodTimber'
p189
F6.1445468814287801e-08
sS'BsmtFinSF2'
p190
F0.00011213087774070474
sS'HouseStyle2.5Fin'
p191
F4.0474241764629383e-08
sS'SaleTypeNew'
p192
F9.3227015160256726e-07
sS'FunctionalMin2'
p193
F5.1403085142483043e-08
sS'FireplaceQuNA'
p194
F1.4491073881464026e-06
sS'BsmtUnfSF'
p195
F0.0032313885082891096
sS'Condition2PosA'
p196
F1.1000029215062238e-08
sS'LotConfigFR2'
p197
F1.4821538320617779e-07
sS'HeatingQCGd'
p198
F5.0759175675530137e-07
sS'GarageCondFa'
p199
F1.4470309922392632e-08
sS'BsmtFinType2Rec'
p200
F-1.7724857553452465e-08
sS'FenceMnWw'
p201
F1.6823991826701165e-08
sS'GarageTypeBasment'
p202
F4.732840595713416e-08
sS'PoolQCEx'
p203
F3.2108607198815352e-08
sS'BsmtCondTA'
p204
F4.4040137651747585e-06
sS'X2ndFlrSF'
p205
F0.0022738233471867736
sS'RoofMatlTar&Grv'
p206
F5.0998985797104622e-10
sS'PoolQCNA'
p207
F4.7427722208591965e-06
sS'SaleConditionNormal'
p208
F3.5656806492120128e-06
sS'GarageFinishUnf'
p209
F1.0746441885252318e-06
sS'KitchenQualGd'
p210
F2.7038622587924643e-06
sS'X1stFlrSF'
p211
F0.0061008804825324935
sS'GarageTypeCarPort'
p212
F2.8353372265579767e-09
sS'NeighborhoodOldTown'
p213
F1.693124856452745e-07
sS'BsmtQualFa'
p214
F3.8865479471396779e-08
sS'FoundationSlab'
p215
F8.0140254936291224e-09
sS'RoofMatlWdShngl'
p216
F2.1555940740871623e-08
sS'CentralAirN'
p217
F2.9415822012231175e-08
sS'Condition2RRAe'
p218
F-2.4908354677074267e-09
sS'Exterior2ndWd Shng'
p219
F9.2930369106470295e-08
sS'GarageAge'
p220
F6.9913885756088152e-05
sS'BsmtCondGd'
p221
F3.0294701995696288e-07
sS'BldgType1Fam'
p222
F3.854622269229322e-06
sS'MiscFeatureNA'
p223
F4.7383214318620876e-06
sS'LowQualFinSF'
p224
F2.1036071413058541e-05
sS'Exterior1stPlywood'
p225
F2.1946564409823758e-07
sS'NeighborhoodEdwards'
p226
F6.544671741936135e-08
sS'BsmtFinType1BLQ'
p227
F2.042519999258187e-07
sS'FireplaceQuPo'
p228
F2.280249868319124e-08
sS'HeatingQCPo'
p229
F8.9080310880159827e-10
sS'Condition1PosN'
p230
F7.6586913091782794e-08
sS'AlleyNA'
p231
F4.5280304438525362e-06
sS'RoofStyleShed'
p232
F-2.9861073583746935e-09
sS'Condition1Feedr'
p233
F8.7490835900376061e-08
sS'Exterior2ndVinylSd'
p234
F2.628510617031858e-06
sS'FireplaceQuTA'
p235
F1.1727741915142086e-06
sS'HalfBath'
p236
F2.5521124471636066e-06
sS'HouseStyleSLvl'
p237
F1.6316776123191154e-07
sS'LandContourBnk'
p238
F4.4202409750356196e-08
sS'NeighborhoodBrkSide'
p239
F1.2338254184521227e-07
sS'GarageQualNA'
p240
F4.8157433432891806e-08
sS'Exterior2ndBrk Cmn'
p241
F2.5059753587495929e-08
sS'Condition1PosA'
p242
F3.1208990695453485e-08
sS'LandSlopeGtl'
p243
F4.8513051486283723e-06
sS'WoodDeckSF'
p244
F0.00059139469915486852
sS'HouseStyle1.5Fin'
p245
F2.0125790663188247e-07
sS'SaleTypeConLD'
p246
F1.231449283299773e-08
sS'MasVnrArea'
p247
F0.00087526551986294476
sS'Exterior2ndStucco'
p248
F3.2524696712764147e-08
sS'SaleConditionAlloca'
p249
F2.9164753558129578e-08
sS'LotConfigFR3'
p250
F1.6849226333824148e-08
sS'MasVnrTypeNone'
p251
F1.8539324061298904e-06
sS'SaleTypeCon'
p252
F6.3460427528082432e-09
sS'ExterCondEx'
p253
F1.363930758557811e-08
sS'NeighborhoodBrDale'
p254
F5.7387675450840251e-08
sS'Exterior1stHdBoard'
p255
F5.4386831749380395e-07
sS'GarageQualFa'
p256
F5.4241468212165944e-08
sS'HouseStyle1Story'
p257
F2.1306716853166593e-06
sS'BsmtExposureMn'
p258
F4.0940410626162393e-07
sS'SaleTypeWD'
p259
F3.6862629942641099e-06
sS'FunctionalTyp'
p260
F4.6245887309537533e-06
sS'TotalBsmtSF'
p261
F0.0057803678713451451
sS'GarageType2Types'
p262
F-1.8406173825172289e-08
sS'Condition2PosN'
p263
F4.4368736788683442e-09
sS'FunctionalMin1'
p264
F2.3023454899345831e-08
sS'RoofMatlMembran'
p265
F-6.325983065401382e-10
sS'ExterQualTA'
p266
F1.429185905352011e-06
sS'Exterior1stAsbShng'
p267
F6.5053169268094765e-09
sS'KitchenQualEx'
p268
F1.0024805682146421e-06
sS'GarageCondGd'
p269
F3.1133440614284056e-08
sS'RoofMatlWdShake'
p270
F1.9871055320652125e-08
sS'SaleTypeCWD'
p271
F8.5713300284455886e-09
sS'SaleConditionPartial'
p272
F9.2867031281592099e-07
sS'BsmtQualTA'
p273
F9.8627909839054865e-07
sS'LandContourLvl'
p274
F4.6668279286891956e-06
sS'HeatingGrav'
p275
F-2.999021873843032e-09
sS'FenceGdPrv'
p276
F1.911890043360816e-07
sS'LandSlopeMod'
p277
F1.1481701822901229e-07
sS'BsmtFinType2NA'
p278
F1.0075139044269168e-08
sS'BsmtFinSF1'
p279
F0.0024368484853154009
sS'HeatingQCEx'
p280
F3.6409111060105316e-06
sS'LotShapeIR3'
p281
F-9.8014727501687804e-08
sS'GarageQualPo'
p282
F-2.4905297320541794e-11
sS'Condition1RRAn'
p283
F7.3841737057184603e-08
sS'ScreenPorch'
p284
F9.6027834494093572e-05
sS'BedroomAbvGr'
p285
F1.371631387345264e-05
sS'BsmtFinType1ALQ'
p286
F4.5983542868860105e-07
sS'BsmtFinType2ALQ'
p287
F7.95662941368802e-08
sS'AlleyGrvl'
p288
F3.8299975005541085e-08
sS'SaleConditionAbnorml'
p289
F1.8085924989445297e-07
sS'BsmtFinType2BLQ'
p290
F7.2856499509320101e-08
sS'Condition1RRAe'
p291
F4.8060301322693536e-09
sS'CentralAirY'
p292
F4.7185043596865482e-06
sS'GarageTypeNA'
p293
F4.8157433432891806e-08
sS'FenceNA'
p294
F4.0821301751997619e-06
sS'GarageCondPo'
p295
F4.3290384394000857e-10
sS'Exterior1stAsphShn'
p296
F-1.5966027975770307e-09
sS'NeighborhoodNPkVill'
p297
F4.6914817962195307e-08
sS'GarageCars'
p298
F1.0491175543620603e-05
sS'BsmtQualEx'
p299
F1.1846241049468425e-06
sS'NeighborhoodVeenker'
p300
F4.0082153235601354e-08
sS'NeighborhoodStoneBr'
p301
F2.5744473750447423e-07
sS'Id'
p302
F4.7479201816987888e-06
sS'FoundationStone'
p303
F1.9200956763343323e-08
saI1
I10
t.