((lp1
ccollections
defaultdict
p2
(c__builtin__
int
p3
tRp4
S'RoofStyleFlat'
p5
F6.9014413755635678e-06
sS'Condition1Artery'
p6
F-9.7332070489247139e-06
sS'Exterior1stCemntBd'
p7
F8.2596314189004944e-07
sS'NeighborhoodGilbert'
p8
F1.5333026813611068e-05
sS'BsmtCondNA'
p9
F-6.9239985196601414e-06
sS'FenceMnPrv'
p10
F-2.3603892164219621e-05
sS'OpenPorchSF'
p11
F0.0020937717351560479
sS'NeighborhoodCrawfor'
p12
F-5.6901352912534714e-06
sS'LotShapeReg'
p13
F-8.0202097886470524e-05
sS'BsmtCondFa'
p14
F-8.5113594574865799e-06
sS'GarageCars'
p15
F0.000118926601058152
sS'GarageFinishUnf'
p16
F-3.3207933771535154e-05
sS'Exterior1stMetalSd'
p17
F-6.9839169835051752e-06
sS'HouseAge'
p18
F-0.0047418340130815778
sS'Exterior2ndCmentBd'
p19
F-1.2468333464634664e-05
sS'LandContourHLS'
p20
F2.0004691877647473e-05
sS'RoofStyleGambrel'
p21
F-8.6691055767414842e-07
sS'Exterior2ndAsbShng'
p22
F-2.6856872374617856e-06
sS'EnclosedPorch'
p23
F-0.0026836570770074008
sS'NeighborhoodBlmngtn'
p24
F2.8150757119649844e-06
sS'Unnamed: 0'
p25
F-0.0056105079743964609
sS'Exterior2ndStone'
p26
F-7.7057195695406191e-07
sS'MasVnrTypeStone'
p27
F2.3619312350588437e-05
sS'Condition1Norm'
p28
F1.7478179597608992e-05
sS'Exterior1stStucco'
p29
F-3.9207884699198585e-06
sS'MiscFeatureShed'
p30
F-2.7432128535358607e-05
sS'MiscFeatureOthr'
p31
F-5.2829600111014218e-08
sS'KitchenAbvGr'
p32
F-2.9634208532592548e-06
sS'Exterior1stWd Sdng'
p33
F8.5334629743014668e-09
sS'SaleConditionAdjLand'
p34
F-5.3192218162414484e-07
sS'BsmtFinType2GLQ'
p35
F1.7081314974784234e-07
sS'NeighborhoodTimber'
p36
F-1.1330166875049168e-06
sS'FunctionalTyp'
p37
F1.949596146729892e-05
sS'AlleyNA'
p38
F1.6397815132916995e-05
sS'TotalBsmtSF'
p39
F0.03212635394286139
sS'BsmtQualFa'
p40
F-4.1061478957727026e-06
sS'GarageQualTA'
p41
F4.6432804454488091e-06
sS'RoofMatlCompShg'
p42
F1.8443703146611712e-06
sS'ElectricalSBrkr'
p43
F2.8987193923205024e-05
sS'BsmtExposureAv'
p44
F4.0662265303556513e-05
sS'FoundationStone'
p45
F-1.004640575224275e-05
sS'PoolArea'
p46
F0.004860514983593486
sS'FullBath'
p47
F6.9181741462037276e-05
sS'BsmtFinType1LwQ'
p48
F-4.8176694600661095e-06
sS'MSZoningRM'
p49
F-1.3721867744432615e-05
sS'MSZoningRL'
p50
F1.2149817310521528e-05
sS'NeighborhoodCollgCr'
p51
F-6.8240484784923914e-06
sS'SaleConditionAlloca'
p52
F5.9436839552607302e-06
sS'MSZoningRH'
p53
F4.4273464685672434e-07
sS'MSSubClass'
p54
F0.0010048093399909301
sS'FoundationCBlock'
p55
F-3.794961004911461e-05
sS'Exterior2ndBrkFace'
p56
F-4.6750074730208824e-06
sS'HeatingQCTA'
p57
F4.4803046680843557e-06
sS'FoundationPConc'
p58
F8.5010235275310235e-05
sS'BsmtFinType1GLQ'
p59
F2.5122956833394524e-05
sS'NeighborhoodNAmes'
p60
F-1.0430761275030663e-05
sS'BsmtQualGd'
p61
F3.2535147981647978e-05
sS'NeighborhoodNWAmes'
p62
F-1.4153145211837627e-05
sS'Condition1PosN'
p63
F-6.1807892581561856e-07
sS'Exterior2ndWd Sdng'
p64
F-4.3859683006127985e-06
sS'RemodAddAge'
p65
F-0.0022234701416279645
sS'PavedDriveN'
p66
F4.483968710404144e-06
sS'BsmtCondPo'
p67
F-6.437206168533658e-07
sS'GarageCondEx'
p68
F-1.7694897535068569e-07
sS'FoundationWood'
p69
F-4.5002370976511518e-07
sS'Exterior1stVinylSd'
p70
F3.2103014978320187e-05
sS'PavedDriveY'
p71
F4.5196372924763875e-06
sS'BldgTypeTwnhsE'
p72
F1.162447648513587e-05
sS'PavedDriveP'
p73
F-1.6521455980552346e-06
sS'NeighborhoodSWISU'
p74
F-5.3344562029103424e-06
sS'Exterior1stBrkFace'
p75
F-3.4588779446111267e-06
sS'SaleConditionAbnorml'
p76
F-1.9763295189946319e-05
sS'Condition2RRNn'
p77
F5.5436395063515961e-08
sS'GarageQualGd'
p78
F7.4508512093553316e-06
sS'GarageTypeNA'
p79
F-5.8208934929832606e-06
sS'AlleyPave'
p80
F-1.8490514282823059e-06
sS'HeatingFloor'
p81
F-5.4987103608922163e-08
sS'HeatingQCFa'
p82
F-8.4003243413830875e-06
sS'GarageTypeCarPort'
p83
F-1.7735314626975177e-06
sS'OverallCond'
p84
F2.7518170633412398e-05
sS'BsmtFinType2LwQ'
p85
F-8.9037579360537164e-06
sS'SaleTypeConLw'
p86
F1.7613670133250774e-07
sS'ExterCondTA'
p87
F1.4221557787271935e-05
sS'FireplaceQuTA'
p88
F3.3353830159331832e-06
sS'RoofStyleHip'
p89
F3.5281843275872487e-05
sS'MasVnrTypeBrkFace'
p90
F1.7859121358312474e-05
sS'GarageTypeAttchd'
p91
F1.6346786823336932e-05
sS'BsmtExposureNA'
p92
F-6.5337864138553675e-06
sS'GrLivArea'
p93
F0.04920439317822297
sS'Exterior2ndCBlock'
p94
F-1.6140765482333956e-07
sS'ElectricalFuseP'
p95
F-1.018091779089286e-07
sS'BldgType2fmCon'
p96
F-8.4287032246797695e-06
sS'Fireplaces'
p97
F3.3837476873871183e-05
sS'NeighborhoodNPkVill'
p98
F6.3204332324397225e-07
sS'Exterior2ndPlywood'
p99
F-1.0018401789506296e-05
sS'SaleTypeConLI'
p100
F-1.0894105914814763e-06
sS'FunctionalMaj1'
p101
F-2.8073080711048965e-06
sS'OverallQual'
p102
F0.00025580244884699816
sS'FunctionalMaj2'
p103
F-1.1646025783113774e-06
sS'ElectricalFuseA'
p104
F-1.7178379303687174e-05
sS'BsmtHalfBath'
p105
F9.6129916736883454e-06
sS'Condition2Artery'
p106
F-6.2121363880685013e-07
sS'ElectricalFuseF'
p107
F-4.164889592695708e-06
sS'TotRmsAbvGrd'
p108
F0.00022497509888038818
sS'ElectricalMix'
p109
F-2.78202185785137e-07
sS'Condition1RRNe'
p110
F5.7205784148681816e-07
sS'LotConfigCulDSac'
p111
F2.2428281123337455e-05
sS'FireplaceQuEx'
p112
F1.0576962929555819e-06
sS'HouseStyleSFoyer'
p113
F-2.787400269111214e-06
sS'BsmtExposureGd'
p114
F5.5084658267415098e-06
sS'NeighborhoodMeadowV'
p115
F-1.7939846534214942e-06
sS'BsmtExposureMn'
p116
F-4.0702045666090771e-06
sS'GarageCondTA'
p117
F1.07247829531136e-05
sS'NeighborhoodSawyerW'
p118
F-8.7908413603725521e-06
sS'FoundationBrkTil'
p119
F-2.4087582270042747e-05
sS'ExterQualTA'
p120
F-6.2576618932068471e-05
sS'Exterior1stBrkComm'
p121
F-9.3784428963397757e-08
sS'Exterior2ndHdBoard'
p122
F2.0030737589234552e-05
sS'HouseStyle2Story'
p123
F1.1730987560137407e-05
sS'SaleTypeOth'
p124
F-5.3608439442155895e-07
sS'NeighborhoodBlueste'
p125
F-2.5366744828903397e-08
sS'MiscFeatureTenC'
p126
F-1.8632615385479587e-07
sS'GarageTypeBuiltIn'
p127
F3.8044998720218753e-05
sS'GarageFinishNA'
p128
F-5.8208934929832606e-06
sS'LotConfigCorner'
p129
F2.9991227676629297e-05
sS'MSZoningC (all)'
p130
F-3.0554190797252553e-06
sS'MiscFeatureGar2'
p131
F5.6197438313041069e-06
sS'Condition1RRNn'
p132
F6.058621421691728e-07
sS'Exterior2ndMetalSd'
p133
F-1.8290434503030909e-05
sS'LotShapeIR1'
p134
F7.59023785204527e-05
sS'LotShapeIR2'
p135
F1.5518862731342776e-05
sS'Condition2Norm'
p136
F2.9713326302805464e-06
sS'HouseStyle1.5Unf'
p137
F-5.7468885940351369e-07
sS'HeatingGasA'
p138
F1.640018755823207e-05
sS'Exterior2ndStucco'
p139
F-5.1986020409441913e-06
sS'LotFrontage'
p140
F-0.0011031375439151639
sS'NeighborhoodSawyer'
p141
F1.5034490397989314e-06
sS'Exterior1stWdShing'
p142
F-2.6922855828250483e-06
sS'Exterior1stPlywood'
p143
F-7.9910623805162428e-06
sS'GarageArea'
p144
F0.030002665691182585
sS'LotConfigInside'
p145
F-5.6497374783735464e-05
sS'Exterior1stStone'
p146
F1.5568561206348189e-07
sS'HeatingGasW'
p147
F-4.2282531894466881e-06
sS'FunctionalMod'
p148
F1.2175762626346149e-05
sS'GarageQualEx'
p149
F7.3173802447705699e-07
sS'Condition2PosN'
p150
F-6.6146139833965638e-07
sS'SaleConditionFamily'
p151
F-1.0291931916314053e-05
sS'RoofStyleGable'
p152
F-4.016334726578848e-05
sS'BsmtFinType1NA'
p153
F-6.9239985196601414e-06
sS'BldgTypeDuplex'
p154
F-4.247435117436507e-06
sS'BsmtFullBath'
p155
F6.5882839291719881e-06
sS'ExterQualEx'
p156
F1.8392372494635275e-05
sS'GarageTypeDetchd'
p157
F-2.428422317065868e-05
sS'Exterior2ndOther'
p158
F2.0194494476698998e-07
sS'LotArea'
p159
F-0.0023204626273432591
sS'MasVnrTypeBrkCmn'
p160
F-4.6622733926438537e-06
sS'BsmtFinType1Rec'
p161
F-1.2192935239002441e-05
sS'HouseStyleSLvl'
p162
F3.8183360676456817e-05
sS'KitchenQualTA'
p163
F-5.9785484063160572e-05
sS'MiscVal'
p164
F0.0057132019747513406
sS'BsmtFinType2Unf'
p165
F2.1176843324973062e-05
sS'ExterCondGd'
p166
F-2.7875493553613739e-06
sS'PoolQCGd'
p167
F5.6019907988004866e-06
sS'RoofMatlMetal'
p168
F3.7107042598180654e-07
sS'HouseStyle2.5Unf'
p169
F-1.4440808347702217e-06
sS'GarageFinishFin'
p170
F4.3039313905273098e-05
sS'KitchenQualFa'
p171
F-5.1803079106597416e-06
sS'Exterior2ndAsphShn'
p172
F-3.5992228599779029e-07
sS'LandContourLow'
p173
F-1.5631194737686703e-05
sS'SaleTypeCOD'
p174
F3.3564735846423601e-07
sS'MasVnrTypeNA'
p175
F5.174407027981356e-07
sS'FireplaceQuGd'
p176
F4.5455498065587164e-05
sS'Condition2Feedr'
p177
F-7.8207110149180277e-07
sS'NeighborhoodNoRidge'
p178
F9.869545033190238e-06
sS'X3SsnPorch'
p179
F0.00038363127063017571
sS'NeighborhoodMitchel'
p180
F-2.1650231296103295e-07
sS'BsmtFinSF1'
p181
F0.023466233083943671
sS'MoSold'
p182
F0.00025745662800077257
sS'Exterior2ndImStucc'
p183
F1.2221758146957483e-06
sS'HeatingQCEx'
p184
F2.7367516465982507e-05
sS'HouseStyle2.5Fin'
p185
F-1.1945943172129631e-06
sS'SaleTypeNew'
p186
F2.2624900821423917e-05
sS'BsmtFinType1Unf'
p187
F1.3861640333213263e-05
sS'BsmtUnfSF'
p188
F0.0092190776472293717
sS'Condition1RRAn'
p189
F4.7751503134301836e-07
sS'LotConfigFR3'
p190
F3.0321270168213721e-07
sS'LotConfigFR2'
p191
F1.1126113686912282e-05
sS'HeatingQCGd'
p192
F-1.6013602847188514e-05
sS'GarageCondFa'
p193
F-3.4369921921628907e-06
sS'BsmtFinType2Rec'
p194
F3.4853218343411037e-06
sS'FenceMnWw'
p195
F-1.3023966315620389e-06
sS'GarageTypeBasment'
p196
F-1.8381000392720393e-06
sS'RoofMatlRoll'
p197
F-2.4483213088589551e-09
sS'ExterQualFa'
p198
F-2.794681328610486e-06
sS'X2ndFlrSF'
p199
F0.021315259648006114
sS'RoofMatlTar&Grv'
p200
F6.6047197616585169e-06
sS'PoolQCNA'
p201
F1.4745529375632455e-06
sS'SaleConditionNormal'
p202
F7.6449668469308213e-06
sS'ExterCondFa'
p203
F-4.1678670396504721e-06
sS'KitchenQualGd'
p204
F3.2901635535626928e-05
sS'X1stFlrSF'
p205
F0.029271487110018861
sS'FenceGdWo'
p206
F-5.9676228519035904e-06
sS'NeighborhoodOldTown'
p207
F-1.5308309925382934e-05
sS'PoolQCFa'
p208
F-2.1299206492546947e-07
sS'ScreenPorch'
p209
F0.002186772722973952
sS'FoundationSlab'
p210
F-5.1251530893200159e-06
sS'RoofMatlWdShngl'
p211
F1.0230259095339014e-06
sS'BedroomAbvGr'
p212
F2.0224260628709063e-05
sS'Condition2RRAe'
p213
F6.4076823249104693e-06
sS'Exterior2ndWd Shng'
p214
F1.1616498227917978e-05
sS'Condition2RRAn'
p215
F-3.6428891085309056e-07
sS'MSZoningFV'
p216
F1.1536195271604944e-05
sS'NeighborhoodNridgHt'
p217
F2.1050439502339335e-05
sS'BsmtCondGd'
p218
F-2.6405897955766631e-06
sS'Utilities'
p219
F7.3514604048252945e-06
sS'BldgType1Fam'
p220
F7.0716766861814708e-06
sS'MiscFeatureNA'
p221
F2.9403000862845693e-05
sS'LowQualFinSF'
p222
F-0.0013823535798019098
sS'LandSlopeSev'
p223
F-1.0177887393619686e-05
sS'NeighborhoodEdwards'
p224
F-5.1120796184939525e-06
sS'BsmtFinType1BLQ'
p225
F-2.0681381203480895e-05
sS'FireplaceQuPo'
p226
F-4.4709327917335601e-06
sS'HeatingQCPo'
p227
F-8.2433540669973674e-08
sS'FunctionalSev'
p228
F-3.8283403394579653e-07
sS'NeighborhoodIDOTRR'
p229
F-6.0165500956912238e-06
sS'Condition1Feedr'
p230
F-1.3235791523845148e-07
sS'Exterior2ndVinylSd'
p231
F3.3079238302577791e-05
sS'LandContourLvl'
p232
F1.1433960131487786e-05
sS'ExterQualGd'
p233
F5.433038817086921e-05
sS'HalfBath'
p234
F2.410426995857355e-05
sS'PoolQCEx'
p235
F4.8790873338703502e-07
sS'LandContourBnk'
p236
F-8.4559968666232531e-06
sS'NeighborhoodBrkSide'
p237
F-3.4592298158806421e-06
sS'GarageQualNA'
p238
F-5.8208934929832606e-06
sS'Exterior2ndBrk Cmn'
p239
F2.1520223261897072e-07
sS'Condition1PosA'
p240
F-3.178925912473625e-07
sS'Id'
p241
F7.3514604048252945e-06
sS'ElectricalNA'
p242
F8.7546741697125079e-08
sS'WoodDeckSF'
p243
F0.019125543338613077
sS'HouseStyle1.5Fin'
p244
F-3.1193144140490618e-05
sS'BsmtQualNA'
p245
F-6.9239985196601414e-06
sS'FireplaceQuNA'
p246
F-4.8381803757668315e-05
sS'HeatingWall'
p247
F-3.1900059593361625e-06
sS'LandSlopeGtl'
p248
F2.5384741752266112e-05
sS'Condition2PosA'
p249
F3.4604410406215804e-07
sS'BsmtFinSF2'
p250
F-0.00055895678831179864
sS'MasVnrTypeNone'
p251
F-2.9982140614229958e-05
sS'SaleTypeCon'
p252
F1.2766190198352069e-07
sS'ExterCondEx'
p253
F4.8954363414207339e-07
sS'NeighborhoodBrDale'
p254
F-1.2998587418345646e-06
sS'HeatingOthW'
p255
F-5.4325900238500187e-07
sS'Exterior1stHdBoard'
p256
F2.5380780151509712e-06
sS'GarageQualFa'
p257
F5.7514215427976559e-07
sS'BsmtFinType1ALQ'
p258
F1.2982847660427033e-05
sS'HouseStyle1Story'
p259
F-5.3689794107804149e-06
sS'FenceGdPrv'
p260
F-4.9573915156493651e-06
sS'SaleTypeWD'
p261
F-1.4944515931146194e-05
sS'GarageFinishRFn'
p262
F3.3409737640706396e-06
sS'ExterCondPo'
p263
F-4.0422462157682079e-07
sS'GarageType2Types'
p264
F-1.3323576973118873e-05
sS'BsmtExposureNo'
p265
F-2.821527974500832e-05
sS'FunctionalMin1'
p266
F-5.4967206544490062e-06
sS'RoofMatlMembran'
p267
F-1.6221535909778956e-07
sS'YrSold'
p268
F0.014730045318282073
sS'FunctionalMin2'
p269
F-1.4468798351008677e-05
sS'Exterior1stAsbShng'
p270
F-2.8051457099989747e-06
sS'MasVnrArea'
p271
F0.021976761475585693
sS'KitchenQualEx'
p272
F3.9415616843018783e-05
sS'RoofMatlClyTile'
p273
F-2.1572794950970259e-06
sS'Exterior1stCBlock'
p274
F-1.6140765482333956e-07
sS'SaleTypeCWD'
p275
F4.5014238075473853e-07
sS'SaleConditionPartial'
p276
F2.4349958890518254e-05
sS'BsmtQualTA'
p277
F-5.0932183809067887e-05
sS'GarageCondGd'
p278
F7.120959809384837e-06
sS'HeatingGrav'
p279
F-1.032221898630027e-06
sS'RoofStyleShed'
p280
F6.3046113046000789e-06
sS'LandSlopeMod'
p281
F-7.8553939538210949e-06
sS'BsmtFinType2NA'
p282
F-6.7460866463693789e-06
sS'RoofStyleMansard'
p283
F-1.061777277478717e-07
sS'BldgTypeTwnhs'
p284
F1.3314455756242187e-06
sS'FenceNA'
p285
F4.3182763568160036e-05
sS'LotShapeIR3'
p286
F-3.8676829604998099e-06
sS'GarageQualPo'
p287
F-2.2865793575238793e-07
sS'RoofMatlWdShake'
p288
F-1.697828315064284e-07
sS'SaleTypeConLD'
p289
F2.0698215791559945e-07
sS'CentralAirN'
p290
F-2.1728244156016435e-05
sS'BsmtCondTA'
p291
F2.6071128794402042e-05
sS'NeighborhoodStoneBr'
p292
F2.275033234786716e-05
sS'AlleyGrvl'
p293
F-7.1973032998094669e-06
sS'BsmtFinType2BLQ'
p294
F-6.1024305251139809e-06
sS'Condition1RRAe'
p295
F-9.8061772655655794e-07
sS'CentralAirY'
p296
F2.9079704560841653e-05
sS'GarageCondNA'
p297
F-5.8208934929832606e-06
sS'NeighborhoodClearCr'
p298
F1.0519513173287993e-06
sS'GarageCondPo'
p299
F-1.0594476971762528e-06
sS'GarageAge'
p300
F-0.002882224422641389
sS'NeighborhoodSomerst'
p301
F1.7111153391745495e-05
sS'BsmtQualEx'
p302
F3.6778642647678229e-05
sS'NeighborhoodVeenker'
p303
F8.2273033963204997e-07
sS'BsmtFinType2ALQ'
p304
F4.2707572033002847e-06
sS'FireplaceQuFa'
p305
F1.0355619579751455e-05
sS'Exterior1stAsphShn'
p306
F-1.7254565041047332e-07
sag2
(g3
tRp307
S'RoofStyleFlat'
p308
F-7.8302712611280731e-06
sS'Condition1Artery'
p309
F-7.113412390956167e-06
sS'Exterior1stCemntBd'
p310
F-3.8005235800300716e-06
sS'NeighborhoodGilbert'
p311
F-4.9878895530421507e-06
sS'BsmtCondNA'
p312
F1.8577089550423889e-06
sS'FunctionalMaj1'
p313
F-8.4847945406309681e-06
sS'OpenPorchSF'
p314
F-0.00053173185596171516
sS'NeighborhoodCrawfor'
p315
F2.7112746232008516e-06
sS'LotShapeReg'
p316
F2.4756355340774784e-05
sS'OverallQual'
p317
F0.00014581817744301314
sS'ExterCondFa'
p318
F-4.3147042980835002e-06
sS'Exterior1stMetalSd'
p319
F1.0278390267301412e-05
sS'HouseAge'
p320
F-0.0029221480545090013
sS'Exterior2ndCmentBd'
p321
F5.9985026405219583e-06
sS'LandContourHLS'
p322
F-7.667274304022201e-06
sS'RoofStyleGambrel'
p323
F-7.7309325059678938e-07
sS'Exterior2ndCBlock'
p324
F-2.3979720283790572e-07
sS'HeatingWall'
p325
F1.91097488791326e-06
sS'Exterior2ndAsbShng'
p326
F-2.5641653352807428e-06
sS'EnclosedPorch'
p327
F-0.0051423588991711105
sS'BldgTypeTwnhs'
p328
F-1.2975828382710982e-05
sS'NeighborhoodBlmngtn'
p329
F-2.0480370782495894e-06
sS'Unnamed: 0'
p330
F-0.0043820700869030976
sS'Exterior2ndStone'
p331
F-4.3432065249020449e-06
sS'MasVnrTypeStone'
p332
F1.5701754374866977e-05
sS'Condition1Norm'
p333
F4.270665457647383e-06
sS'MiscFeatureShed'
p334
F5.7767178188964515e-06
sS'BsmtHalfBath'
p335
F1.5433595466349975e-05
sS'KitchenAbvGr'
p336
F-2.2596964234466003e-05
sS'Exterior1stWd Sdng'
p337
F-3.4893138744437373e-05
sS'BsmtFinType2GLQ'
p338
F-1.186887584034998e-06
sS'NeighborhoodTimber'
p339
F6.0164416635887113e-06
sS'ExterCondPo'
p340
F-4.5836987208589942e-07
sS'BsmtQualFa'
p341
F-3.0179868574444952e-06
sS'GarageQualTA'
p342
F3.0632603865899919e-05
sS'RoofMatlCompShg'
p343
F3.0009965290566531e-06
sS'ElectricalSBrkr'
p344
F9.3285536492445289e-06
sS'SaleTypeOth'
p345
F-5.5280775210440537e-07
sS'BsmtExposureAv'
p346
F1.2167304705963268e-05
sS'LandSlopeSev'
p347
F1.666301896573819e-06
sS'PoolArea'
p348
F-0.0068461504386938326
sS'FullBath'
p349
F1.2475593826995682e-05
sS'BsmtFinType1LwQ'
p350
F-2.0196275228718682e-06
sS'MSZoningRM'
p351
F-4.4175898338283796e-05
sS'MSZoningRL'
p352
F4.980287749801023e-05
sS'NeighborhoodCollgCr'
p353
F3.5736218745199517e-05
sS'MSZoningRH'
p354
F-5.4410831610901629e-06
sS'MSSubClass'
p355
F-0.0061499442842809912
sS'FoundationCBlock'
p356
F4.2458046264600928e-06
sS'FoundationPConc'
p357
F2.6234876372558208e-06
sS'BsmtFinType1GLQ'
p358
F3.8356633584163843e-05
sS'NeighborhoodNAmes'
p359
F-3.5597797600116058e-05
sS'BsmtCondFa'
p360
F-8.4476661799217233e-06
sS'GarageTypeCarPort'
p361
F-4.3044377491013919e-07
sS'BsmtQualGd'
p362
F-9.3151355737634835e-06
sS'NeighborhoodNWAmes'
p363
F1.2686250124362445e-05
sS'HeatingFloor'
p364
F7.9191500399037484e-08
sS'Exterior2ndWd Sdng'
p365
F-1.9327453129210257e-05
sS'RemodAddAge'
p366
F-0.0026341940565636707
sS'PavedDriveN'
p367
F-1.7684148881843826e-05
sS'MiscFeatureGar2'
p368
F-1.7056486516194837e-06
sS'AlleyPave'
p369
F-4.368556306443756e-06
sS'MasVnrTypeBrkCmn'
p370
F-1.9336977482634447e-06
sS'FireplaceQuEx'
p371
F8.937946177330085e-06
sS'PavedDriveY'
p372
F1.4070352524193873e-05
sS'BldgTypeTwnhsE'
p373
F-8.9778217837439175e-06
sS'PavedDriveP'
p374
F9.3208055111978359e-07
sS'RoofMatlClyTile'
p375
F-7.3197883358014464e-07
sS'FoundationWood'
p376
F-2.3400976371538603e-07
sS'Exterior1stBrkFace'
p377
F6.5423050327022281e-06
sS'SaleConditionAbnorml'
p378
F-1.5805852941250823e-05
sS'Condition2RRNn'
p379
F2.1348899985353041e-07
sS'BsmtCondPo'
p380
F-4.1384986744920567e-07
sS'GarageTypeNA'
p381
F-1.2509566173532953e-05
sS'MiscFeatureOthr'
p382
F-6.9533684162670743e-08
sS'Condition1Feedr'
p383
F1.6334157534236136e-06
sS'GarageCondEx'
p384
F-1.2113139866613534e-07
sS'FoundationBrkTil'
p385
F-1.4242707976077367e-05
sS'GarageCondFa'
p386
F-2.7250598844523369e-06
sS'NeighborhoodVeenker'
p387
F3.5645284345733625e-06
sS'HeatingQCFa'
p388
F-2.5396404407202155e-06
sS'MSZoningFV'
p389
F-3.0866327281039011e-07
sS'OverallCond'
p390
F5.7876509076766947e-05
sS'BsmtFinType2LwQ'
p391
F5.6379529954812662e-06
sS'SaleTypeConLw'
p392
F-2.5444288026532697e-06
sS'ExterCondTA'
p393
F-1.6298911436388231e-05
sS'FireplaceQuTA'
p394
F-9.4185124857218694e-06
sS'NeighborhoodMeadowV'
p395
F-4.0855208303156499e-06
sS'MasVnrTypeBrkFace'
p396
F-1.2657048810322055e-05
sS'GarageTypeAttchd'
p397
F4.0110754608883058e-05
sS'BsmtExposureNA'
p398
F2.6804197062269586e-06
sS'ExterCondGd'
p399
F1.7837426712359859e-05
sS'NeighborhoodClearCr'
p400
F-1.5613497212130909e-06
sS'ElectricalFuseP'
p401
F-4.9335726615304835e-08
sS'BldgType2fmCon'
p402
F-1.2566093280376783e-05
sS'Fireplaces'
p403
F-3.973476508540092e-06
sS'LotFrontage'
p404
F0.0054645970028620802
sS'NeighborhoodNPkVill'
p405
F-1.2854348462170107e-06
sS'Exterior2ndPlywood'
p406
F-1.9251668661223941e-05
sS'SaleTypeConLI'
p407
F-6.1854818688101313e-07
sS'FenceMnPrv'
p408
F1.9555258215385704e-05
sS'Utilities'
p409
F-2.6817158065301402e-06
sS'FunctionalMaj2'
p410
F-1.2574314750353255e-06
sS'ElectricalFuseA'
p411
F-7.7422351560646593e-06
sS'BsmtExposureNo'
p412
F-3.6979478070267597e-05
sS'Condition2Artery'
p413
F-5.8168568367778266e-07
sS'ElectricalFuseF'
p414
F-4.1529339414653538e-06
sS'TotRmsAbvGrd'
p415
F-5.2214396408946553e-05
sS'PoolQCEx'
p416
F2.1358496386091586e-07
sS'Condition1RRNe'
p417
F-3.8714790458523893e-07
sS'LotConfigCulDSac'
p418
F-1.2405216613317334e-05
sS'SaleTypeConLD'
p419
F3.1782228749675205e-06
sS'Exterior1stVinylSd'
p420
F2.2287269094029389e-05
sS'HouseStyleSFoyer'
p421
F-1.8702596087371291e-06
sS'BsmtExposureGd'
p422
F2.1676811469061333e-05
sS'ExterQualFa'
p423
F-2.430328509987456e-06
sS'RoofStyleHip'
p424
F-1.2306584804044868e-05
sS'BsmtExposureMn'
p425
F-2.2267736175140718e-06
sS'GarageCondTA'
p426
F2.3724148746229145e-05
sS'NeighborhoodSawyerW'
p427
F5.5776178897001165e-06
sS'YrSold'
p428
F-0.00537854342386258
sS'Exterior1stBrkComm'
p429
F4.3667316235473847e-08
sS'Exterior2ndHdBoard'
p430
F9.9760623998754422e-06
sS'HouseStyle2Story'
p431
F6.6682741996191966e-06
sS'NeighborhoodSawyer'
p432
F1.4294060360966699e-05
sS'NeighborhoodBlueste'
p433
F-2.8560553314606408e-07
sS'GarageTypeBuiltIn'
p434
F1.3999399890498645e-05
sS'GarageFinishNA'
p435
F-1.2509566173532953e-05
sS'MSZoningC (all)'
p436
F-2.5589485323561135e-06
sS'BsmtQualTA'
p437
F-2.6786454428122286e-05
sS'FunctionalMin1'
p438
F-4.0970065783247582e-06
sS'Condition1RRNn'
p439
F-4.8136032150684996e-08
sS'HeatingQCEx'
p440
F5.5543319977495976e-05
sS'LotShapeIR1'
p441
F-2.9368363647579894e-05
sS'LotShapeIR2'
p442
F-2.2164445228966454e-06
sS'Condition2Norm'
p443
F1.4003781367559763e-06
sS'HouseStyle1.5Unf'
p444
F-8.3111805519007126e-07
sS'HeatingGasA'
p445
F-3.3394110162293878e-06
sS'Exterior2ndStucco'
p446
F-3.3821561336955458e-06
sS'MasVnrTypeNone'
p447
F2.247937592531638e-07
sS'GarageFinishRFn'
p448
F2.3314098467829052e-05
sS'Exterior1stWdShing'
p449
F-2.6672793104680009e-06
sS'FunctionalSev'
p450
F-3.0484396905168475e-07
sS'GarageArea'
p451
F0.01013020612763451
sS'ElectricalMix'
p452
F-2.2332532346740189e-07
sS'LotConfigInside'
p453
F1.6105419115902112e-05
sS'Exterior1stStone'
p454
F1.4579153057818482e-07
sS'HeatingGasW'
p455
F1.3985479944694966e-07
sS'FunctionalMod'
p456
F-1.0703345134203872e-05
sS'GarageQualEx'
p457
F7.7727305261142663e-07
sS'SaleConditionFamily'
p458
F-5.8981216257180867e-07
sS'ElectricalNA'
p459
F1.5756069183807783e-07
sS'RoofStyleGable'
p460
F1.9500030999978791e-05
sS'NeighborhoodMitchel'
p461
F-2.6553766033739112e-06
sS'BldgTypeDuplex'
p462
F-8.5197677714572515e-06
sS'BsmtFullBath'
p463
F-5.2158919182802349e-06
sS'Condition2Feedr'
p464
F-8.9617785838987998e-07
sS'FireplaceQuFa'
p465
F-7.934600736320161e-06
sS'ExterQualEx'
p466
F1.4501052134236983e-05
sS'GarageTypeBasment'
p467
F-2.217900302763449e-06
sS'Exterior2ndOther'
p468
F1.1202974130022338e-07
sS'LotArea'
p469
F7.6728050334653086e-07
sS'NeighborhoodSWISU'
p470
F-6.6678874447536881e-06
sS'BsmtFinType1Rec'
p471
F-1.5754380944154532e-05
sS'RoofMatlMetal'
p472
F5.1793157078383234e-07
sS'RoofMatlWdShngl'
p473
F2.6049535233059594e-06
sS'BsmtFinType2Unf'
p474
F-6.6204930235296558e-06
sS'GrLivArea'
p475
F0.0010043339780536099
sS'PoolQCGd'
p476
F-9.5757662855887043e-06
sS'NeighborhoodNridgHt'
p477
F1.8398770217279823e-05
sS'HouseStyle2.5Unf'
p478
F-1.7854859433128616e-06
sS'GarageFinishFin'
p479
F9.292640332858052e-06
sS'KitchenQualFa'
p480
F-5.8986711608828704e-06
sS'Exterior2ndAsphShn'
p481
F-5.0516123566320951e-08
sS'LandContourLow'
p482
F1.1053548434862944e-05
sS'SaleTypeCOD'
p483
F-1.0408773479646291e-05
sS'MasVnrTypeNA'
p484
F-4.0175173820647775e-06
sS'NeighborhoodSomerst'
p485
F5.2998447107188686e-06
sS'FireplaceQuGd'
p486
F-7.705152100684557e-07
sS'BsmtFinType1Unf'
p487
F-1.2294187204043851e-05
sS'NeighborhoodNoRidge'
p488
F3.8755234384576808e-06
sS'X3SsnPorch'
p489
F0.00043924178090362518
sS'GarageTypeDetchd'
p490
F-4.4065435802831626e-05
sS'RoofStyleMansard'
p491
F1.120322034076281e-07
sS'MoSold'
p492
F-0.00014833850998355357
sS'Exterior2ndImStucc'
p493
F-3.0483665435479008e-07
sS'GarageCondPo'
p494
F-1.0878005428268281e-06
sS'FireplaceQuNA'
p495
F8.5011014763968151e-06
sS'HouseStyle2.5Fin'
p496
F-1.4492813344217408e-06
sS'SaleTypeNew'
p497
F1.8705646315238448e-05
sS'ExterQualGd'
p498
F8.2420261466534256e-06
sS'FunctionalMin2'
p499
F1.5318542713688552e-05
sS'BsmtUnfSF'
p500
F-0.0015788916393839644
sS'SaleTypeCon'
p501
F1.1238497438013597e-07
sS'LotConfigFR3'
p502
F-4.0465277710634036e-07
sS'LotConfigFR2'
p503
F8.699541917592119e-06
sS'HeatingQCGd'
p504
F-1.8633153865607243e-05
sS'Condition2PosN'
p505
F-1.0438817731005476e-06
sS'BsmtFinType2Rec'
p506
F-9.093239622439057e-07
sS'FenceMnWw'
p507
F-1.5931993541384995e-06
sS'RoofStyleShed'
p508
F-1.3838296941467912e-06
sS'RoofMatlRoll'
p509
F1.1201710766373145e-09
sS'BsmtCondTA'
p510
F-1.9383320490759789e-05
sS'X2ndFlrSF'
p511
F0.00091577337956124164
sS'PoolQCNA'
p512
F6.832942485698333e-06
sS'SaleConditionNormal'
p513
F5.5228237312047309e-06
sS'GarageFinishUnf'
p514
F-2.2778888433684244e-05
sS'KitchenQualGd'
p515
F1.0875990978770699e-05
sS'X1stFlrSF'
p516
F0.001955076102567985
sS'BsmtFinType1NA'
p517
F1.8577089550423889e-06
sS'NeighborhoodOldTown'
p518
F-2.0002923529208429e-05
sS'PoolQCFa'
p519
F-1.5247697050067026e-07
sS'FoundationSlab'
p520
F2.1319369121085049e-06
sS'NeighborhoodIDOTRR'
p521
F-5.6169637960035373e-06
sS'CentralAirN'
p522
F-1.5315206874518447e-05
sS'Condition2RRAe'
p523
F-1.6375728579807063e-06
sS'Condition2RRAn'
p524
F-4.1904160736408147e-07
sS'GarageAge'
p525
F-0.0015993263818231884
sS'BsmtCondGd'
p526
F2.3705411776558205e-05
sS'Exterior2ndMetalSd'
p527
F1.6396453447694788e-05
sS'BldgType1Fam'
p528
F4.0357795411758933e-05
sS'GarageQualGd'
p529
F-8.0905992708184907e-06
sS'MiscFeatureNA'
p530
F-6.5486859572687842e-06
sS'LowQualFinSF'
p531
F-0.0018665155040757048
sS'Exterior1stPlywood'
p532
F-1.4629340324112483e-05
sS'NeighborhoodEdwards'
p533
F-1.2313689335597231e-05
sS'BsmtFinType1BLQ'
p534
F1.1328545958543198e-05
sS'FireplaceQuPo'
p535
F-1.9971350281465552e-06
sS'HeatingQCPo'
p536
F-7.6704930154087253e-08
sS'Condition1PosN'
p537
F-3.2632162120766958e-06
sS'AlleyNA'
p538
F4.2711995134029803e-06
sS'KitchenQualTA'
p539
F-3.3355703705905405e-05
sS'Exterior2ndVinylSd'
p540
F2.4425149083886455e-05
sS'LotConfigCorner'
p541
F-1.4676807449600684e-05
sS'HalfBath'
p542
F2.697414325452241e-05
sS'HouseStyleSLvl'
p543
F-8.1365581323016228e-06
sS'LandContourBnk'
p544
F6.5924600884484337e-06
sS'NeighborhoodBrkSide'
p545
F-5.5906303401646969e-06
sS'GarageQualNA'
p546
F-1.2509566173532953e-05
sS'Exterior2ndBrk Cmn'
p547
F-1.0279406148297252e-06
sS'BsmtFinType2BLQ'
p548
F-8.3273145851104943e-06
sS'LandSlopeGtl'
p549
F-1.7135886047273212e-05
sS'WoodDeckSF'
p550
F-0.0054497814324832652
sS'HouseStyle1.5Fin'
p551
F-2.1372943951341939e-05
sS'BsmtQualNA'
p552
F1.8577089550423889e-06
sS'MasVnrArea'
p553
F0.003430662236137633
sS'Exterior1stCBlock'
p554
F-2.3979720283790572e-07
sS'HeatingGrav'
p555
F-8.8625681361260782e-07
sS'Condition2PosA'
p556
F2.8277683737337425e-07
sS'FenceGdWo'
p557
F-7.4211881692853535e-06
sS'Condition1PosA'
p558
F1.0743963234361831e-07
sS'ExterCondEx'
p559
F5.5284308766763332e-07
sS'NeighborhoodBrDale'
p560
F-5.2777696381016396e-06
sS'HeatingOthW'
p561
F-5.8606916444738061e-07
sS'Exterior1stHdBoard'
p562
F1.9231910866867357e-05
sS'GarageQualFa'
p563
F-1.3225571469849384e-05
sS'BsmtFinType1ALQ'
p564
F-2.4156408633209231e-05
sS'HouseStyle1Story'
p565
F2.6095657019156017e-05
sS'FenceGdPrv'
p566
F-8.9777714063028275e-06
sS'SaleTypeWD'
p567
F-1.0199718997274816e-05
sS'FenceNA'
p568
F-4.2448150921891853e-06
sS'TotalBsmtSF'
p569
F0.0052640661554497958
sS'GarageType2Types'
p570
F2.4314757481264782e-06
sS'Exterior2ndBrkFace'
p571
F2.2779167841555726e-06
sS'RoofMatlMembran'
p572
F9.8536360280100689e-07
sS'ExterQualTA'
p573
F-2.2994465577433096e-05
sS'Exterior1stAsbShng'
p574
F-2.8935272525179662e-06
sS'KitchenQualEx'
p575
F2.5696668081487443e-05
sS'GarageCondGd'
p576
F-9.9623065532810496e-06
sS'RoofMatlWdShake'
p577
F5.587714178977397e-08
sS'SaleTypeCWD'
p578
F-3.5369275255644164e-07
sS'SaleConditionPartial'
p579
F2.3344316919141953e-05
sS'HeatingQCTA'
p580
F-3.697553654754449e-05
sS'LandContourLvl'
p581
F-1.2660450025819226e-05
sS'SaleConditionAlloca'
p582
F-1.4792174512810922e-05
sS'Exterior1stStucco'
p583
F-1.9968233390332394e-06
sS'LandSlopeMod'
p584
F1.2787868344169284e-05
sS'BsmtFinType2NA'
p585
F1.7863866477353122e-06
sS'BsmtFinSF1'
p586
F0.00034907144373427714
sS'BsmtFinSF2'
p587
F0.0064938863510995226
sS'LotShapeIR3'
p588
F4.1467370231716357e-06
sS'GarageQualPo'
p589
F-2.6585581084067127e-07
sS'RoofMatlTar&Grv'
p590
F-9.1159795117638369e-06
sS'ScreenPorch'
p591
F-0.00088411543417527135
sS'BedroomAbvGr'
p592
F-3.849897617192162e-05
sS'Exterior2ndWd Shng'
p593
F-1.1376089524063353e-05
sS'BsmtFinType2ALQ'
p594
F6.9379637051723156e-06
sS'AlleyGrvl'
p595
F-2.5843590134893602e-06
sS'Id'
p596
F-2.6817158065301402e-06
sS'Condition1RRAe'
p597
F6.4092224789303996e-07
sS'CentralAirY'
p598
F1.2633491067988335e-05
sS'GarageCondNA'
p599
F-1.2509566173532953e-05
sS'FunctionalTyp'
p600
F6.847163177027897e-06
sS'SaleConditionAdjLand'
p601
F-3.6101684024331255e-07
sS'Exterior1stAsphShn'
p602
F-9.0620160807190395e-08
sS'MiscFeatureTenC'
p603
F-1.3456533237558434e-07
sS'GarageCars'
p604
F4.5082912804400967e-05
sS'BsmtQualEx'
p605
F3.4580152097757828e-05
sS'Condition1RRAn'
p606
F1.4777536419310168e-06
sS'NeighborhoodStoneBr'
p607
F-2.8653701650754899e-06
sS'MiscVal'
p608
F-0.0062005850460094191
sS'FoundationStone'
p609
F2.793772757438182e-06
saI2
I5
t.