((lp1
(dp2
S'MasVnrAreaBrkCmn'
p3
F0.01020408163265306
sS'GarageCarsNA'
p4
F0.19387755102040816
sS'LotConfig'
p5
F1
sS'BsmtCondNA'
p6
F0.051020408163265307
sS'PavedDriveNA'
p7
F0.19387755102040816
sS'OpenPorchSF'
p8
F44.418367346938773
sS'MasVnrAreaStone'
p9
F0.020408163265306121
sS'BsmtCondFa'
p10
F0.091836734693877556
sS'HeatingQCOthW'
p11
F0.01020408163265306
sS'MasVnrTypeMetalSd'
p12
F0.32653061224489793
sS'UtilitiesLow'
p13
F0.01020408163265306
sS'Exterior2ndCBlock'
p14
F0.01020408163265306
sS'Exterior2ndAsbShng'
p15
F0.051020408163265307
sS'EnclosedPorch'
p16
F30.867346938775512
sS'UtilitiesLvl'
p17
F0.87755102040816324
sS'X1stFlrSFFuseA'
p18
F0.19387755102040816
sS'X1stFlrSFFuseF'
p19
F0.030612244897959183
sS'RoofMatlGambrel'
p20
F0.020408163265306121
sS'MasVnrAreaBrkFace'
p21
F0.030612244897959183
sS'HouseAgeAbnorml'
p22
F0.091836734693877556
sS'KitchenAbvGr'
p23
F2.5408163265306123
sS'FoundationTA'
p24
F0.73469387755102045
sS'FireplacesMod'
p25
F0.020408163265306121
sS'GarageFinish2Types'
p26
F0.01020408163265306
sS'PavedDriveGd'
p27
F0.01020408163265306
sS'BsmtCondEx'
p28
F0.01020408163265306
sS'Exterior2ndCemntBd'
p29
F0.01020408163265306
sS'MasVnrTypeWd Sdng'
p30
F0.29591836734693877
sS'PavedDriveFa'
p31
F0.051020408163265307
sS'HouseStyleDuplex'
p32
F0.020408163265306121
sS'FullBath'
p33
F0.040816326530612242
sS'BsmtFinType1Mn'
p34
F0.091836734693877556
sS'BsmtFinSF1Rec'
p35
F0.071428571428571425
sS'MSSubClass'
p36
F1
sS'MasVnrAreaNone'
p37
F0.93877551020408168
sS'LotFrontageFV'
p38
F0.01020408163265306
sS'BsmtFinSF1BLQ'
p39
F0.091836734693877556
sS'BsmtFinType2'
p40
F174.37755102040816
sS'BsmtQualCBlock'
p41
F0.2857142857142857
sS'PoolArea'
p42
F5.3061224489795915
sS'Exterior2ndWd Sdng'
p43
F0.33673469387755101
sS'RemodAddAge'
p44
F40.877551020408163
sS'MiscFeatureGdWo'
p45
F0.030612244897959183
sS'MiscFeatureGdPrv'
p46
F0.01020408163265306
sS'LandSlopeInside'
p47
F0.75510204081632648
sS'GarageTypeEx'
p48
F0.030612244897959183
sS'Functional'
p49
F5.6734693877551017
sS'Alley'
p50
F5943.6020408163267
sS'Condition2Feedr'
p51
F0.051020408163265307
sS'BsmtQualBrkTil'
p52
F0.42857142857142855
sS'MSZoning'
p53
F53.775510204081634
sS'PoolQC'
p54
F0
sS'SaleConditionWD'
p55
F0.94897959183673475
sS'GarageFinishBasment'
p56
F0.01020408163265306
sS'SaleConditionConLD'
p57
F0.01020408163265306
sS'BldgTypeFeedr'
p58
F0.01020408163265306
sS'RoofMatlHip'
p59
F0.11224489795918367
sS'CentralAirFa'
p60
F0.081632653061224483
sS'GarageTypeNA'
p61
F0.70408163265306123
sS'BldgTypeRRNn'
p62
F0.01020408163265306
sS'LotShapeGrvl'
p63
F0.051020408163265307
sS'ElectricalY'
p64
F0.74489795918367352
sS'Exterior1stCompShg'
p65
F1
sS'GarageCondFa'
p66
F0.15306122448979592
sS'Condition1Sawyer'
p67
F0.020408163265306121
sS'OverallCond'
p68
F5.1734693877551017
sS'RoofMatlGable'
p69
F0.86734693877551017
sS'SaleConditionNew'
p70
F0.020408163265306121
sS'ExterCondTA'
p71
F0.79591836734693877
sS'GarageFinishAttchd'
p72
F0.16326530612244897
sS'MasVnrTypeBrkFace'
p73
F0.01020408163265306
sS'BsmtQualPConc'
p74
F0.24489795918367346
sS'BsmtExposureNA'
p75
F0.051020408163265307
sS'GrLivArea'
p76
F27.357142857142858
sS'ElectricalN'
p77
F0.25510204081632654
sS'LandContourIR1'
p78
F0.14285714285714285
sS'LandContourIR2'
p79
F0.01020408163265306
sS'LandContourIR3'
p80
F0.01020408163265306
sS'GarageTypeTA'
p81
F0.020408163265306121
sS'FireplacesTyp'
p82
F0.9285714285714286
sS'BsmtFinType1Av'
p83
F0.030612244897959183
sS'PavedDriveTA'
p84
F0.74489795918367352
sS'BsmtHalfBath'
p85
F0.16326530612244897
sS'HouseAgeAlloca'
p86
F0.01020408163265306
sS'Condition2Artery'
p87
F0.071428571428571425
sS'MasVnrTypeHdBoard'
p88
F0.020408163265306121
sS'MiscFeatureMnPrv'
p89
F0.16326530612244897
sS'FoundationFa'
p90
F0.071428571428571425
sS'LotFrontageRH'
p91
F0.020408163265306121
sS'BsmtFinSF2BLQ'
p92
F0.01020408163265306
sS'Condition1Crawfor'
p93
F0.030612244897959183
sS'WoodDeckSFN'
p94
F0.16326530612244897
sS'MasVnrTypeWd Shng'
p95
F0.091836734693877556
sS'BsmtExposureGd'
p96
F0.051020408163265307
sS'BsmtQualSlab'
p97
F0.030612244897959183
sS'CentralAirGd'
p98
F0.26530612244897961
sS'GarageCondTA'
p99
F0.6428571428571429
sS'YrSold'
p100
F6.6020408163265305
sS'UtilitiesBnk'
p101
F0.091836734693877556
sS'Heating'
p102
F793.24489795918362
sS'Exterior2ndHdBoard'
p103
F0.030612244897959183
sS'NeighborhoodSev'
p104
F0.01020408163265306
sS'WoodDeckSFY'
p105
F0.80612244897959184
sS'BsmtFinSF1LwQ'
p106
F0.071428571428571425
sS'HouseStyleTwnhsE'
p107
F0.071428571428571425
sS'GarageFinishNA'
p108
F0.19387755102040816
sS'WoodDeckSFP'
p109
F0.030612244897959183
sS'Exterior2ndWdShing'
p110
F0.020408163265306121
sS'BsmtExposureFa'
p111
F0.091836734693877556
sS'Exterior2ndMetalSd'
p112
F0.32653061224489793
sS'Condition2Norm'
p113
F0.84693877551020413
sS'ExterQual'
p114
F11.224489795918368
sS'GarageFinishDetchd'
p115
F0.60204081632653061
sS'Exterior2ndStucco'
p116
F0.030612244897959183
sS'LandSlopeCorner'
p117
F0.21428571428571427
sS'SalePriceThousands'
p118
F35.887755102040813
sS'HouseStyle2fmCon'
p119
F0.040816326530612242
sS'GarageArea'
p120
F1.0714285714285714
sS'Condition1BrkSide'
p121
F0.33673469387755101
sS'NeighborhoodGtl'
p122
F0.96938775510204078
sS'FoundationGd'
p123
F0.18367346938775511
sS'MiscValOthr'
p124
F0.01020408163265306
sS'BsmtFinType1NA'
p125
F0.051020408163265307
sS'BsmtFinType1No'
p126
F0.82653061224489799
sS'BsmtFullBath'
p127
F1208.1938775510205
sS'Condition2RRNn'
p128
F0.01020408163265306
sS'MasVnrTypeAsbShng'
p129
F0.040816326530612242
sS'HouseAgePartial'
p130
F0.030612244897959183
sS'MasVnrTypeCmentBd'
p131
F0.01020408163265306
sS'BsmtExposureTA'
p132
F0.80612244897959184
sS'FoundationPo'
p133
F0.01020408163265306
sS'LotArea'
p134
F50.367346938775512
sS'SaleConditionCOD'
p135
F0.01020408163265306
sS'MiscValNA'
p136
F0.95918367346938771
sS'FireplacesMin2'
p137
F0.020408163265306121
sS'NeighborhoodMod'
p138
F0.020408163265306121
sS'FireplacesMin1'
p139
F0.020408163265306121
sS'GarageCondNA'
p140
F0.19387755102040816
sS'Condition1OldTown'
p141
F0.33673469387755101
sS'BsmtCondGd'
p142
F0.11224489795918367
sS'LandSlopeFR2'
p143
F0.01020408163265306
sS'LandSlopeFR3'
p144
F0.01020408163265306
sS'RoofStyle'
p145
F6.0510204081632653
sS'X3SsnPorch'
p146
F42.367346938775512
sS'X1stFlrSFFuseP'
p147
F0.020408163265306121
sS'MoSold'
p148
F50.714285714285715
sS'OverallQual1Story'
p149
F0.43877551020408162
sS'TotRmsAbvGrdEx'
p150
F0.020408163265306121
sS'Condition1Somerst'
p151
F0.01020408163265306
sS'BsmtUnfSF'
p152
F20.122448979591837
sS'Condition1NridgHt'
p153
F0.030612244897959183
sS'CentralAirEx'
p154
F0.36734693877551022
sS'LandSlopeCulDSac'
p155
F0.01020408163265306
sS'Condition1SWISU'
p156
F0.061224489795918366
sS'SaleType'
p157
F2007.795918367347
sS'HouseAgeAdjLand'
p158
F0.01020408163265306
sS'BsmtCondTA'
p159
F0.73469387755102045
sS'X2ndFlrSF'
p160
F906.77551020408168
sS'FireplaceQu'
p161
F0.30612244897959184
sS'KitchenQual'
p162
F1.0714285714285714
sS'X1stFlrSFSBrkr'
p163
F0.75510204081632648
sS'ExterCondFa'
p164
F0.061224489795918366
sS'SaleConditionConLw'
p165
F0.01020408163265306
sS'BsmtFinSF2NA'
p166
F0.051020408163265307
sS'GarageCarsFin'
p167
F0.061224489795918366
sS'TotRmsAbvGrdTA'
p168
F0.66326530612244894
sS'BsmtFinSF2Rec'
p169
F0.030612244897959183
sS'MiscValShed'
p170
F0.030612244897959183
sS'MasVnrTypeStucco'
p171
F0.020408163265306121
sS'Condition1IDOTRR'
p172
F0.061224489795918366
sS'MasVnrTypeVinylSd'
p173
F0.15306122448979592
sS'Condition2RRAn'
p174
F0.01020408163265306
sS'GarageAge'
p175
F71.173469387755105
sS'HouseAgeNormal'
p176
F0.84693877551020413
sS'GarageCarsRFn'
p177
F0.071428571428571425
sS'LotFrontageRL'
p178
F0.35714285714285715
sS'LotFrontageRM'
p179
F0.61224489795918369
sS'GarageTypeFa'
p180
F0.01020408163265306
sS'MiscFeatureNA'
p181
F0.79591836734693877
sS'LowQualFinSF'
p182
F274.0612244897959
sS'OverallQual2.5Fin'
p183
F0.020408163265306121
sS'LandContourReg'
p184
F0.83673469387755106
sS'BldgTypeNorm'
p185
F0.97959183673469385
sS'BsmtFinSF1GLQ'
p186
F0.081632653061224483
sS'GarageQual'
p187
F289.32653061224488
sS'Exterior2ndVinylSd'
p188
F0.16326530612244897
sS'TotRmsAbvGrdFa'
p189
F0.12244897959183673
sS'HalfBath'
p190
F1.2551020408163265
sS'OverallQual1.5Fin'
p191
F0.34693877551020408
sS'HouseStyle1Fam'
p192
F0.86734693877551017
sS'Condition1Mitchel'
p193
F0.01020408163265306
sS'HeatingQCFloor'
p194
F0.01020408163265306
sS'BsmtFinSF1ALQ'
p195
F0.091836734693877556
sS'BsmtFinSF1NA'
p196
F0.051020408163265307
sS'BsmtFinSF2ALQ'
p197
F0.020408163265306121
sS'LotShapePave'
p198
F0.030612244897959183
sS'FireplacesMaj1'
p199
F0.01020408163265306
sS'TotalBsmtSF'
p200
F598.74489795918362
sS'Condition2PosN'
p201
F0.01020408163265306
sS'Exterior2ndBrkFace'
p202
F0.020408163265306121
sS'GarageFinishBuiltIn'
p203
F0.020408163265306121
sS'ExterCondGd'
p204
F0.14285714285714285
sS'UtilitiesHLS'
p205
F0.020408163265306121
sS'BsmtQualStone'
p206
F0.01020408163265306
sS'Condition1StoneBr'
p207
F0.030612244897959183
sS'OverallQual1.5Unf'
p208
F0.051020408163265307
sS'GarageTypeGd'
p209
F0.22448979591836735
sS'TotRmsAbvGrdGd'
p210
F0.19387755102040816
sS'GarageCondGd'
p211
F0.01020408163265306
sS'Condition1CollgCr'
p212
F0.01020408163265306
sS'BsmtFinSF2Unf'
p213
F0.88775510204081631
sS'OverallQual2Story'
p214
F0.1326530612244898
sS'GarageCarsUnf'
p215
F0.67346938775510201
sS'HeatingQCGrav'
p216
F0.020408163265306121
sS'MasVnrTypeCBlock'
p217
F0.01020408163265306
sS'ScreenPorch'
p218
F0
sS'BedroomAbvGr'
p219
F0.061224489795918366
sS'CentralAirTA'
p220
F0.2857142857142857
sS'Condition1Edwards'
p221
F0.040816326530612242
sS'Condition1NAmes'
p222
F0.020408163265306121
sS'HeatingQCGasA'
p223
F0.95918367346938771
sS'MasVnrTypePlywood'
p224
F0.020408163265306121
sS'BsmtFinSF1Unf'
p225
F0.54081632653061229
sS'FenceNA'
p226
F1
sS'GarageTypePo'
p227
F0.01020408163265306
sS'OverallQual2.5Unf'
p228
F0.01020408163265306
sS'LotShapeNA'
p229
F0.91836734693877553
sS'HouseAgeFamily'
p230
F0.01020408163265306
sS'Id'
p231
F755.01020408163265
sa(dp232
S'MasVnrAreaBrkCmn'
p233
F0.01282051282051282
sS'GarageCarsNA'
p234
F0.05128205128205128
sg5
F1
sS'BsmtCondNA'
p235
F0.038461538461538464
sS'PavedDriveNA'
p236
F0.05128205128205128
sg8
F87.493589743589737
sS'MasVnrAreaStone'
p237
F0.070512820512820512
sS'BsmtCondFa'
p238
F0.019230769230769232
sS'MasVnrTypeMetalSd'
p239
F0.17948717948717949
sS'SaleConditionCon'
p240
F0.00641025641025641
sS'Exterior2ndAsphShn'
p241
F0.00641025641025641
sS'Exterior2ndAsbShng'
p242
F0.02564102564102564
sg16
F29.358974358974358
sS'UtilitiesLvl'
p243
F0.94871794871794868
sS'X1stFlrSFFuseA'
p244
F0.05128205128205128
sS'X1stFlrSFFuseF'
p245
F0.01282051282051282
sS'BsmtFinSF2LwQ'
p246
F0.10256410256410256
sS'BsmtExposurePo'
p247
F0.00641025641025641
sS'HouseAgeAbnorml'
p248
F0.057692307692307696
sg23
F2.7948717948717947
sS'MiscFeatureMnPrv'
p249
F0.15384615384615385
sS'FoundationTA'
p250
F0.86538461538461542
sS'HouseAgeAlloca'
p251
F0.00641025641025641
sS'Condition1NoRidge'
p252
F0.01282051282051282
sS'Condition1Gilbert'
p253
F0.01282051282051282
sS'BsmtCondEx'
p254
F0.044871794871794872
sS'GarageCarsRFn'
p255
F0.33333333333333331
sS'PavedDriveFa'
p256
F0.038461538461538464
sS'HouseStyleDuplex'
p257
F0.044871794871794872
sS'RoofMatlFlat'
p258
F0.019230769230769232
sg33
F0.10256410256410256
sS'BsmtFinType1Mn'
p259
F0.064102564102564097
sS'BsmtFinSF1Rec'
p260
F0.11538461538461539
sg36
F1
sS'MasVnrAreaNone'
p261
F0.61538461538461542
sS'HouseAgePartial'
p262
F0.019230769230769232
sS'BsmtFinSF1BLQ'
p263
F0.19871794871794871
sg40
F585.48076923076928
sS'BsmtQualCBlock'
p264
F0.64743589743589747
sg42
F17.070512820512821
sS'Exterior2ndWd Sdng'
p265
F0.16025641025641027
sg44
F33.942307692307693
sS'MiscFeatureGdWo'
p266
F0.076923076923076927
sS'MiscFeatureGdPrv'
p267
F0.038461538461538464
sS'LandSlopeInside'
p268
F0.71153846153846156
sS'Exterior1stTar&Grv'
p269
F0.019230769230769232
sg49
F5.8461538461538458
sg50
F10221.185897435897
sS'SaleConditionOth'
p270
F0.00641025641025641
sS'BsmtQualBrkTil'
p271
F0.076923076923076927
sg53
F38.878205128205131
sg54
F7.8461538461538458
sS'SaleConditionWD'
p272
F0.89743589743589747
sS'MasVnrTypeCmentBd'
p273
F0.00641025641025641
sS'TotRmsAbvGrdEx'
p274
F0.01282051282051282
sS'WoodDeckSFN'
p275
F0.02564102564102564
sS'CentralAirFa'
p276
F0.044871794871794872
sS'GarageTypeNA'
p277
F0.57692307692307687
sS'UtilitiesLow'
p278
F0.02564102564102564
sS'MasVnrTypeWd Shng'
p279
F0.019230769230769232
sS'ElectricalY'
p280
F0.92948717948717952
sS'Exterior1stCompShg'
p281
F0.98076923076923073
sS'GarageTypeFa'
p282
F0.05128205128205128
sS'Condition1Sawyer'
p283
F0.070512820512820512
sg68
F5.5641025641025639
sS'RoofMatlGable'
p284
F0.67948717948717952
sS'Condition1Veenker'
p285
F0.032051282051282048
sS'ExterCondTA'
p286
F0.79487179487179482
sS'CentralAirGd'
p287
F0.1858974358974359
sS'MasVnrTypeBrkFace'
p288
F0.019230769230769232
sS'BsmtQualPConc'
p289
F0.25
sS'BsmtFinSF1ALQ'
p290
F0.28846153846153844
sS'ExterCondGd'
p291
F0.1858974358974359
sS'ElectricalN'
p292
F0.070512820512820512
sS'LandContourIR1'
p293
F0.35256410256410259
sS'LandContourIR2'
p294
F0.01282051282051282
sS'Condition1CollgCr'
p295
F0.11538461538461539
sS'GarageCondTA'
p296
F0.91666666666666663
sS'FireplacesTyp'
p297
F0.91666666666666663
sS'LotFrontageRM'
p298
F0.02564102564102564
sS'Exterior2ndPlywood'
p299
F0.13461538461538461
sS'BsmtFinSF2GLQ'
p300
F0.019230769230769232
sS'GarageFinishCarPort'
p301
F0.019230769230769232
sS'PavedDriveTA'
p302
F0.90384615384615385
sg85
F0.5641025641025641
sS'MasVnrTypeAsphShn'
p303
F0.01282051282051282
sS'MasVnrTypeHdBoard'
p304
F0.21794871794871795
sg100
F5.8589743589743586
sS'FoundationFa'
p305
F0.01282051282051282
sS'BsmtFinSF2BLQ'
p306
F0.02564102564102564
sS'GarageFinishBasment'
p307
F0.01282051282051282
sS'RoofMatlHip'
p308
F0.28846153846153844
sS'LotShapeGrvl'
p309
F0.038461538461538464
sS'BsmtExposureGd'
p310
F0.057692307692307696
sS'GarageFinishAttchd'
p311
F0.67948717948717952
sS'Condition1Timber'
p312
F0.019230769230769232
sS'GarageTypeTA'
p313
F0.19230769230769232
sS'BsmtCondGd'
p314
F0.29487179487179488
sS'UtilitiesBnk'
p315
F0.01282051282051282
sg102
F1076.6794871794871
sS'ExterCondEx'
p316
F0.01282051282051282
sS'Exterior2ndHdBoard'
p317
F0.23076923076923078
sS'OverallQualSLvl'
p318
F0.10256410256410256
sS'HeatingQCGasW'
p319
F0.019230769230769232
sS'NeighborhoodSev'
p320
F0.00641025641025641
sS'WoodDeckSFY'
p321
F0.96153846153846156
sS'BsmtFinSF1LwQ'
p322
F0.02564102564102564
sS'HouseStyleTwnhsE'
p323
F0.01282051282051282
sS'GarageFinishNA'
p324
F0.05128205128205128
sS'WoodDeckSFP'
p325
F0.01282051282051282
sS'Exterior2ndWdShing'
p326
F0.01282051282051282
sS'BsmtExposureFa'
p327
F0.00641025641025641
sS'MasVnrTypeBrk Cmn'
p328
F0.00641025641025641
sS'Exterior2ndMetalSd'
p329
F0.17948717948717949
sS'Condition2Norm'
p330
F0.91666666666666663
sg114
F76.59615384615384
sS'SaleConditionConLD'
p331
F0.01282051282051282
sS'GarageFinishDetchd'
p332
F0.21794871794871795
sS'Exterior2ndBrkComm'
p333
F0.00641025641025641
sS'Exterior2ndStucco'
p334
F0.01282051282051282
sS'Condition2Feedr'
p335
F0.057692307692307696
sg118
F28.916666666666668
sS'HouseStyle2fmCon'
p336
F0.02564102564102564
sg120
F1.5769230769230769
sS'RoofMatlGambrel'
p337
F0.00641025641025641
sS'NeighborhoodGtl'
p338
F0.96794871794871795
sS'FoundationGd'
p339
F0.12179487179487179
sS'BsmtFinType1NA'
p340
F0.038461538461538464
sS'BsmtFinType1No'
p341
F0.60256410256410253
sg127
F1246.2243589743589
sS'MasVnrAreaBrkFace'
p342
F0.29487179487179488
sS'MasVnrTypeAsbShng'
p343
F0.02564102564102564
sS'Exterior2ndCemntBd'
p344
F0.00641025641025641
sS'BsmtExposureTA'
p345
F0.89102564102564108
sS'LandSlopeCorner'
p346
F0.16666666666666666
sg134
F62.17307692307692
sS'SaleConditionCOD'
p347
F0.05128205128205128
sS'MiscValNA'
p348
F0.94230769230769229
sS'FireplacesMin2'
p349
F0.01282051282051282
sS'NeighborhoodMod'
p350
F0.02564102564102564
sS'FireplacesMin1'
p351
F0.05128205128205128
sS'GarageCondNA'
p352
F0.05128205128205128
sg76
F3.0320512820512819
sS'LandSlopeFR2'
p353
F0.057692307692307696
sg145
F5.6410256410256414
sg146
F16.75
sS'MasVnrTypeImStucc'
p354
F0.01282051282051282
sg148
F29.166666666666668
sS'FenceGd'
p355
F0.00641025641025641
sS'OverallQualSFoyer'
p356
F0.032051282051282048
sS'LotFrontageC (all)'
p357
F0.00641025641025641
sS'OverallQual1Story'
p358
F0.77564102564102566
sS'Condition1Somerst'
p359
F0.01282051282051282
sg152
F97.891025641025635
sS'Condition1NridgHt'
p360
F0.00641025641025641
sS'CentralAirEx'
p361
F0.35897435897435898
sS'LandSlopeCulDSac'
p362
F0.064102564102564097
sS'Condition1SWISU'
p363
F0.01282051282051282
sg157
F2007.8846153846155
sS'HouseAgeAdjLand'
p364
F0.00641025641025641
sS'BsmtCondTA'
p365
F0.60256410256410253
sg160
F1204.2948717948718
sg161
F0.49358974358974361
sS'Condition1ClearCr'
p366
F0.00641025641025641
sg162
F1.0256410256410255
sS'X1stFlrSFSBrkr'
p367
F0.9358974358974359
sS'ExterCondFa'
p368
F0.00641025641025641
sS'GarageFinishBuiltIn'
p369
F0.019230769230769232
sS'BsmtFinSF2NA'
p370
F0.038461538461538464
sg218
F3.9935897435897436
sS'TotRmsAbvGrdTA'
p371
F0.66025641025641024
sS'BsmtFinSF2Rec'
p372
F0.057692307692307696
sS'MiscValShed'
p373
F0.057692307692307696
sS'MasVnrTypeStucco'
p374
F0.00641025641025641
sS'SaleConditionConLI'
p375
F0.00641025641025641
sS'Condition1IDOTRR'
p376
F0.01282051282051282
sS'MasVnrTypeVinylSd'
p377
F0.19230769230769232
sS'Condition2RRAn'
p378
F0.019230769230769232
sg175
F40.564102564102562
sS'HouseAgeNormal'
p379
F0.88461538461538458
sS'MasVnrTypeWd Sdng'
p380
F0.16025641025641027
sS'LotFrontageRL'
p381
F0.96794871794871795
sS'BsmtFinType1Av'
p382
F0.17307692307692307
sS'GarageCondFa'
p383
F0.02564102564102564
sS'MiscFeatureNA'
p384
F0.71794871794871795
sg182
F38.897435897435898
sS'BsmtQualSlab'
p385
F0.02564102564102564
sS'LandContourReg'
p386
F0.63461538461538458
sS'BldgTypeNorm'
p387
F1
sS'GarageCarsFin'
p388
F0.14102564102564102
sS'BsmtFinSF1GLQ'
p389
F0.20512820512820512
sg187
F430.25
sS'Exterior2ndVinylSd'
p390
F0.19871794871794871
sS'TotRmsAbvGrdFa'
p391
F0.02564102564102564
sg190
F1.3782051282051282
sS'OverallQual1.5Fin'
p392
F0.064102564102564097
sS'HouseStyle1Fam'
p393
F0.91666666666666663
sS'Condition1SawyerW'
p394
F0.02564102564102564
sS'Condition1OldTown'
p395
F0.044871794871794872
sS'Condition1Mitchel'
p396
F0.057692307692307696
sS'MiscFeatureMnWw'
p397
F0.01282051282051282
sS'Condition1Crawfor'
p398
F0.00641025641025641
sS'BsmtExposureNA'
p399
F0.038461538461538464
sS'FenceFa'
p400
F0.00641025641025641
sS'BsmtFinSF1NA'
p401
F0.038461538461538464
sS'BsmtFinSF2ALQ'
p402
F0.01282051282051282
sS'FireplacesMaj2'
p403
F0.00641025641025641
sS'FireplacesMaj1'
p404
F0.01282051282051282
sg200
F393.30769230769232
sS'PavedDrivePo'
p405
F0.00641025641025641
sS'Exterior2ndBrkFace'
p406
F0.02564102564102564
sS'GarageCondPo'
p407
F0.00641025641025641
sS'UtilitiesHLS'
p408
F0.01282051282051282
sS'OverallQual1.5Unf'
p409
F0.01282051282051282
sS'GarageTypeGd'
p410
F0.14743589743589744
sS'TotRmsAbvGrdGd'
p411
F0.30128205128205127
sS'Condition1BrkSide'
p412
F0.01282051282051282
sS'Condition2RRNn'
p413
F0.00641025641025641
sS'BsmtFinSF2Unf'
p414
F0.74358974358974361
sS'OverallQual2Story'
p415
F0.01282051282051282
sS'RoofMatlMansard'
p416
F0.00641025641025641
sS'SaleConditionNew'
p417
F0.019230769230769232
sS'MasVnrAreaNA'
p418
F0.00641025641025641
sS'GarageCarsUnf'
p419
F0.47435897435897434
sS'HeatingQCGrav'
p420
F0.00641025641025641
sS'BsmtFinType1Gd'
p421
F0.12179487179487179
sg219
F0.19871794871794871
sS'CentralAirTA'
p422
F0.41025641025641024
sS'Condition1Edwards'
p423
F0.12179487179487179
sS'Condition1NAmes'
p424
F0.30769230769230771
sS'Condition1NWAmes'
p425
F0.10897435897435898
sS'HeatingQCGasA'
p426
F0.97435897435897434
sS'MasVnrTypePlywood'
p427
F0.14102564102564102
sS'BsmtFinSF1Unf'
p428
F0.12820512820512819
sS'FenceNA'
p429
F0.98717948717948723
sS'GarageTypePo'
p430
F0.032051282051282048
sS'LotShapeNA'
p431
F0.96153846153846156
sS'HouseAgeFamily'
p432
F0.02564102564102564
sg231
F681.49358974358972
sa(dp433
S'MasVnrAreaBrkCmn'
p434
F0.090909090909090912
sg5
F1
sS'GarageFinish2Types'
p435
F0.18181818181818182
sg8
F216.81818181818181
sS'MasVnrAreaStone'
p436
F0.27272727272727271
sS'MasVnrTypeMetalSd'
p437
F0.18181818181818182
sS'UtilitiesLow'
p438
F0.36363636363636365
sg16
F100.27272727272727
sS'UtilitiesLvl'
p439
F0.45454545454545453
sS'MasVnrTypeStone'
p440
F0.090909090909090912
sS'HouseAgeAbnorml'
p441
F0.090909090909090912
sg23
F3.1818181818181817
sS'FoundationTA'
p442
F0.72727272727272729
sS'FireplacesMod'
p443
F0.090909090909090912
sS'Condition1NoRidge'
p444
F0.18181818181818182
sS'Condition1Gilbert'
p445
F0.090909090909090912
sS'BsmtCondEx'
p446
F0.18181818181818182
sS'MasVnrTypeWd Sdng'
p447
F0.18181818181818182
sS'Condition1Mitchel'
p448
F0.090909090909090912
sS'RoofMatlFlat'
p449
F0.18181818181818182
sg33
F0.18181818181818182
sS'BsmtFinType1Mn'
p450
F0.090909090909090912
sS'BsmtFinSF1Rec'
p451
F0.36363636363636365
sg36
F1
sS'MasVnrAreaNone'
p452
F0.36363636363636365
sS'BsmtFinSF1BLQ'
p453
F0.18181818181818182
sg40
F978.27272727272725
sS'BsmtQualCBlock'
p454
F0.54545454545454541
sg42
F44.363636363636367
sS'Exterior2ndWd Sdng'
p455
F0.27272727272727271
sg44
F33.909090909090907
sS'LandSlopeInside'
p456
F0.45454545454545453
sS'Exterior1stTar&Grv'
p457
F0.090909090909090912
sg49
F7.2727272727272725
sg50
F34254.454545454544
sg53
F65.454545454545453
sg54
F0
sS'SaleConditionWD'
p458
F0.90909090909090906
sS'WoodDeckSFN'
p459
F0.090909090909090912
sS'CentralAirFa'
p460
F0.18181818181818182
sS'GarageTypeNA'
p461
F0.27272727272727271
sS'ElectricalY'
p462
F0.90909090909090906
sS'Exterior1stCompShg'
p463
F0.81818181818181823
sg68
F6.3636363636363633
sS'RoofMatlGable'
p464
F0.27272727272727271
sS'SaleConditionNew'
p465
F0.090909090909090912
sS'ExterCondTA'
p466
F0.63636363636363635
sS'CentralAirGd'
p467
F0.090909090909090912
sS'BsmtQualPConc'
p468
F0.45454545454545453
sS'ExterCondEx'
p469
F0.090909090909090912
sS'ExterCondGd'
p470
F0.27272727272727271
sS'Exterior1stMembran'
p471
F0.090909090909090912
sS'ElectricalN'
p472
F0.090909090909090912
sS'LandContourIR1'
p473
F0.54545454545454541
sS'LandContourIR2'
p474
F0.18181818181818182
sS'GarageTypeTA'
p475
F0.45454545454545453
sS'FireplacesTyp'
p476
F0.72727272727272729
sS'BsmtFinType1Av'
p477
F0.18181818181818182
sS'Exterior2ndPlywood'
p478
F0.18181818181818182
sS'BsmtFinSF2GLQ'
p479
F0.090909090909090912
sS'PavedDriveTA'
p480
F1
sg85
F0.72727272727272729
sS'HouseAgeAlloca'
p481
F0.090909090909090912
sS'MasVnrTypeHdBoard'
p482
F0.18181818181818182
sS'BsmtCondGd'
p483
F0.18181818181818182
sS'MasVnrTypeCmentBd'
p484
F0.090909090909090912
sS'RoofMatlHip'
p485
F0.54545454545454541
sS'BsmtExposureGd'
p486
F0.18181818181818182
sS'GarageFinishAttchd'
p487
F0.63636363636363635
sS'Condition1Timber'
p488
F0.090909090909090912
sS'GarageCondTA'
p489
F1
sg100
F4.6363636363636367
sS'UtilitiesBnk'
p490
F0.18181818181818182
sg102
F1550.4545454545455
sS'Exterior2ndHdBoard'
p491
F0.18181818181818182
sS'NeighborhoodSev'
p492
F0.18181818181818182
sS'WoodDeckSFY'
p493
F0.81818181818181823
sS'BsmtFinSF1LwQ'
p494
F0.18181818181818182
sS'WoodDeckSFP'
p495
F0.090909090909090912
sS'Exterior2ndMetalSd'
p496
F0.18181818181818182
sS'Condition2Norm'
p497
F0.90909090909090906
sg114
F295.27272727272725
sS'LandSlopeCorner'
p498
F0.090909090909090912
sg118
F29.09090909090909
sS'HouseStyle2fmCon'
p499
F0.18181818181818182
sS'GarageTypeGd'
p500
F0.27272727272727271
sS'NeighborhoodGtl'
p501
F0.54545454545454541
sS'FoundationGd'
p502
F0.27272727272727271
sS'HouseAgePartial'
p503
F0.090909090909090912
sS'BsmtFinType1No'
p504
F0.18181818181818182
sg127
F2149.5454545454545
sS'MasVnrAreaBrkFace'
p505
F0.18181818181818182
sS'Exterior2ndCemntBd'
p506
F0.090909090909090912
sS'BsmtExposureTA'
p507
F0.81818181818181823
sg134
F55.636363636363633
sS'MiscValNA'
p508
F1
sS'FireplacesMin2'
p509
F0.090909090909090912
sg76
F0
sS'LandSlopeFR2'
p510
F0.090909090909090912
sg145
F4.9090909090909092
sg146
F18.181818181818183
sg148
F0
sS'OverallQual1Story'
p511
F0.63636363636363635
sg152
F166.09090909090909
sS'CentralAirEx'
p512
F0.45454545454545453
sS'LandSlopeCulDSac'
p513
F0.36363636363636365
sg157
F2007.4545454545455
sS'BsmtCondTA'
p514
F0.63636363636363635
sg160
F1679.4545454545455
sg161
F1.0909090909090908
sS'Condition1ClearCr'
p515
F0.27272727272727271
sg162
F1.0909090909090908
sS'X1stFlrSFSBrkr'
p516
F1
sg218
F0
sS'TotRmsAbvGrdTA'
p517
F0.72727272727272729
sS'NeighborhoodMod'
p518
F0.27272727272727271
sS'TotRmsAbvGrdEx'
p519
F0.090909090909090912
sg175
F36.81818181818182
sS'HouseAgeNormal'
p520
F0.72727272727272729
sS'GarageCarsRFn'
p521
F0.18181818181818182
sS'LotFrontageRL'
p522
F1
sS'BldgTypePosN'
p523
F0.090909090909090912
sS'MiscFeatureNA'
p524
F1
sg182
F470.09090909090907
sS'LandContourReg'
p525
F0.27272727272727271
sS'BldgTypeNorm'
p526
F0.90909090909090906
sS'GarageCarsFin'
p527
F0.63636363636363635
sS'BsmtFinSF1GLQ'
p528
F0.27272727272727271
sg187
F678.18181818181813
sg190
F1.8181818181818181
sS'HouseStyle1Fam'
p529
F0.81818181818181823
sS'Condition1Crawfor'
p530
F0.090909090909090912
sS'BsmtFinSF2ALQ'
p531
F0.090909090909090912
sS'FireplacesMaj1'
p532
F0.090909090909090912
sg200
F406.09090909090907
sS'Condition2PosN'
p533
F0.090909090909090912
sS'Exterior2ndBrkFace'
p534
F0.090909090909090912
sg120
F2.4545454545454546
sS'TotRmsAbvGrdGd'
p535
F0.18181818181818182
sS'BsmtFinSF2Unf'
p536
F0.81818181818181823
sS'OverallQual2Story'
p537
F0.36363636363636365
sS'MasVnrAreaNA'
p538
F0.090909090909090912
sS'GarageCarsUnf'
p539
F0.18181818181818182
sS'BsmtFinType1Gd'
p540
F0.54545454545454541
sg219
F0.45454545454545453
sS'CentralAirTA'
p541
F0.27272727272727271
sS'Condition1Edwards'
p542
F0.090909090909090912
sS'Condition1NAmes'
p543
F0.090909090909090912
sS'HeatingQCGasA'
p544
F1
sS'MasVnrTypePlywood'
p545
F0.27272727272727271
sS'FenceNA'
p546
F1
sS'GarageFinishBuiltIn'
p547
F0.18181818181818182
sS'LotShapeNA'
p548
F1
sg231
F784.63636363636363
sa(dp549
g5
F1
sS'BsmtCondNA'
p550
F0.033333333333333333
sS'NeighborhoodMod'
p551
F0.13333333333333333
sg8
F101.26666666666667
sS'SaleConditionCOD'
p552
F0.066666666666666666
sS'UtilitiesLow'
p553
F0.13333333333333333
sg16
F58.56666666666667
sS'UtilitiesLvl'
p554
F0.66666666666666663
sS'X1stFlrSFFuseA'
p555
F0.066666666666666666
sS'BsmtFinSF2LwQ'
p556
F0.033333333333333333
sS'HouseAgeAbnorml'
p557
F0.066666666666666666
sg23
F3.0666666666666669
sS'MiscFeatureMnPrv'
p558
F0.066666666666666666
sS'FoundationTA'
p559
F0.73333333333333328
sS'Condition1NoRidge'
p560
F0.033333333333333333
sS'Condition1Gilbert'
p561
F0.13333333333333333
sS'BsmtCondEx'
p562
F0.13333333333333333
sS'GarageCarsRFn'
p563
F0.23333333333333334
sS'RoofMatlShed'
p564
F0.033333333333333333
sS'Condition1Mitchel'
p565
F0.16666666666666666
sS'RoofMatlFlat'
p566
F0.10000000000000001
sg33
F0.10000000000000001
sS'BsmtFinType1Mn'
p567
F0.16666666666666666
sS'BsmtFinSF1Rec'
p568
F0.033333333333333333
sg36
F1
sS'MasVnrAreaNone'
p569
F0.69999999999999996
sS'BsmtFinSF1BLQ'
p570
F0.066666666666666666
sg40
F561.70000000000005
sS'BsmtQualCBlock'
p571
F0.46666666666666667
sg42
F20.466666666666665
sS'Exterior2ndWd Sdng'
p572
F0.33333333333333331
sg44
F36
sS'MiscFeatureGdPrv'
p573
F0.10000000000000001
sS'LandSlopeInside'
p574
F0.59999999999999998
sS'GarageCondEx'
p575
F0.033333333333333333
sg49
F7.4333333333333336
sg50
F22903
sS'Condition2Feedr'
p576
F0.033333333333333333
sS'BsmtQualBrkTil'
p577
F0.13333333333333333
sg53
F46.666666666666664
sg54
F17.066666666666666
sS'SaleConditionWD'
p578
F0.83333333333333337
sS'GarageFinishBasment'
p579
F0.033333333333333333
sS'WoodDeckSFN'
p580
F0.13333333333333333
sS'GarageTypeNA'
p581
F0.16666666666666666
sS'ElectricalY'
p582
F0.96666666666666667
sS'GarageTypeEx'
p583
F0.13333333333333333
sS'Exterior1stCompShg'
p584
F0.80000000000000004
sS'Condition1Sawyer'
p585
F0.066666666666666666
sg68
F6.4333333333333336
sS'Exterior1stTar&Grv'
p586
F0.066666666666666666
sS'RoofMatlGable'
p587
F0.59999999999999998
sS'SaleConditionNew'
p588
F0.10000000000000001
sS'ExterCondTA'
p589
F0.66666666666666663
sS'CentralAirGd'
p590
F0.10000000000000001
sS'BsmtQualPConc'
p591
F0.36666666666666664
sS'BsmtFinSF1ALQ'
p592
F0.10000000000000001
sS'Condition1OldTown'
p593
F0.033333333333333333
sS'ElectricalN'
p594
F0.033333333333333333
sS'LandContourIR1'
p595
F0.26666666666666666
sS'LandContourIR2'
p596
F0.20000000000000001
sS'LandContourIR3'
p597
F0.10000000000000001
sS'GarageTypeTA'
p598
F0.29999999999999999
sS'FireplacesTyp'
p599
F0.93333333333333335
sS'BsmtFinType1Av'
p600
F0.066666666666666666
sS'Exterior2ndPlywood'
p601
F0.13333333333333333
sS'PavedDriveTA'
p602
F1
sg85
F0.56666666666666665
sS'Condition2Artery'
p603
F0.10000000000000001
sS'MasVnrTypeHdBoard'
p604
F0.20000000000000001
sg100
F6.5
sS'FoundationFa'
p605
F0.033333333333333333
sS'Condition1Crawfor'
p606
F0.10000000000000001
sS'RoofMatlHip'
p607
F0.26666666666666666
sS'BsmtExposureGd'
p608
F0.066666666666666666
sS'BsmtQualSlab'
p609
F0.033333333333333333
sS'GarageFinishAttchd'
p610
F0.73333333333333328
sS'Condition1Timber'
p611
F0.033333333333333333
sS'GarageCondTA'
p612
F0.93333333333333335
sS'BsmtCondGd'
p613
F0.40000000000000002
sS'UtilitiesBnk'
p614
F0.033333333333333333
sg102
F1193.3333333333333
sS'Exterior2ndHdBoard'
p615
F0.23333333333333334
sS'OverallQualSLvl'
p616
F0.033333333333333333
sS'NeighborhoodSev'
p617
F0.10000000000000001
sS'WoodDeckSFY'
p618
F0.80000000000000004
sS'BsmtFinSF2NA'
p619
F0.033333333333333333
sS'WoodDeckSFP'
p620
F0.066666666666666666
sS'Exterior1stMetal'
p621
F0.033333333333333333
sS'Exterior2ndMetalSd'
p622
F0.066666666666666666
sS'Condition2Norm'
p623
F0.66666666666666663
sg114
F115.03333333333333
sS'GarageFinishDetchd'
p624
F0.13333333333333333
sS'Exterior2ndStucco'
p625
F0.033333333333333333
sS'LandSlopeCorner'
p626
F0.13333333333333333
sg118
F22.600000000000001
sS'GarageTypeGd'
p627
F0.40000000000000002
sS'Condition1BrkSide'
p628
F0.033333333333333333
sS'NeighborhoodGtl'
p629
F0.76666666666666672
sS'FoundationGd'
p630
F0.23333333333333334
sS'Exterior1stWdShngl'
p631
F0.066666666666666666
sS'HouseAgePartial'
p632
F0.13333333333333333
sS'BsmtFinType1No'
p633
F0.40000000000000002
sg127
F1979.7333333333333
sS'MasVnrAreaBrkFace'
p634
F0.29999999999999999
sS'Exterior2ndCemntBd'
p635
F0.033333333333333333
sS'MasVnrTypeCmentBd'
p636
F0.033333333333333333
sS'BsmtExposureTA'
p637
F0.90000000000000002
sg134
F67.63333333333334
sS'MiscValNA'
p638
F1
sS'Exterior1stWdShake'
p639
F0.033333333333333333
sS'FireplacesMin1'
p640
F0.066666666666666666
sg76
F32.133333333333333
sS'BsmtExposureNA'
p641
F0.033333333333333333
sS'LandSlopeFR2'
p642
F0.033333333333333333
sg145
F5.833333333333333
sg146
F42.733333333333334
sg148
F0
sS'OverallQual1Story'
p643
F0.46666666666666667
sS'Condition1Somerst'
p644
F0.033333333333333333
sg152
F37.366666666666667
sS'Condition1NridgHt'
p645
F0.033333333333333333
sS'Condition2PosA'
p646
F0.066666666666666666
sS'LandSlopeCulDSac'
p647
F0.23333333333333334
sg157
F2007.6333333333334
sS'BsmtCondTA'
p648
F0.43333333333333335
sg160
F1423.8
sg161
F1.1000000000000001
sS'Condition1ClearCr'
p649
F0.13333333333333333
sg162
F1.0333333333333334
sS'X1stFlrSFSBrkr'
p650
F0.93333333333333335
sS'BsmtFinType1NA'
p651
F0.033333333333333333
sg218
F20.066666666666666
sS'TotRmsAbvGrdTA'
p652
F0.53333333333333333
sS'BsmtFinSF2Rec'
p653
F0.066666666666666666
sS'MasVnrTypeStucco'
p654
F0.066666666666666666
sS'TotRmsAbvGrdEx'
p655
F0.16666666666666666
sS'MasVnrTypeVinylSd'
p656
F0.13333333333333333
sS'Condition2RRAn'
p657
F0.10000000000000001
sg175
F43.600000000000001
sS'HouseAgeNormal'
p658
F0.80000000000000004
sS'MasVnrTypeWd Sdng'
p659
F0.26666666666666666
sS'LotFrontageRL'
p660
F0.96666666666666667
sS'LotFrontageRM'
p661
F0.033333333333333333
sS'MiscFeatureNA'
p662
F0.83333333333333337
sg182
F523.79999999999995
sS'OverallQual2.5Fin'
p663
F0.033333333333333333
sS'FenceEx'
p664
F0.033333333333333333
sS'LandContourReg'
p665
F0.43333333333333335
sS'BldgTypeNorm'
p666
F1
sS'GarageCarsFin'
p667
F0.29999999999999999
sS'BsmtFinSF1GLQ'
p668
F0.40000000000000002
sg187
F558.43333333333328
sS'Exterior2ndVinylSd'
p669
F0.13333333333333333
sg190
F1.7
sS'OverallQual1.5Fin'
p670
F0.066666666666666666
sS'HouseStyle1Fam'
p671
F0.96666666666666667
sS'MasVnrTypeMetalSd'
p672
F0.066666666666666666
sS'HouseStyleDuplex'
p673
F0.033333333333333333
sS'CentralAirEx'
p674
F0.59999999999999998
sS'ExterCondEx'
p675
F0.066666666666666666
sS'BsmtFinSF1NA'
p676
F0.033333333333333333
sg200
F594.26666666666665
sS'Condition2PosN'
p677
F0.033333333333333333
sS'Exterior2ndBrkFace'
p678
F0.033333333333333333
sS'ExterCondGd'
p679
F0.26666666666666666
sS'UtilitiesHLS'
p680
F0.16666666666666666
sg120
F2.0333333333333332
sS'TotRmsAbvGrdGd'
p681
F0.29999999999999999
sS'GarageCondGd'
p682
F0.033333333333333333
sS'BsmtFinSF2Unf'
p683
F0.8666666666666667
sS'OverallQual2Story'
p684
F0.40000000000000002
sS'HeatingQCGasW'
p685
F0.033333333333333333
sS'GarageCarsUnf'
p686
F0.46666666666666667
sS'BsmtFinType1Gd'
p687
F0.33333333333333331
sg219
F0.43333333333333335
sS'CentralAirTA'
p688
F0.29999999999999999
sS'Condition1Edwards'
p689
F0.033333333333333333
sS'Condition1NAmes'
p690
F0.10000000000000001
sS'Condition1NWAmes'
p691
F0.066666666666666666
sS'HeatingQCGasA'
p692
F0.96666666666666667
sS'MasVnrTypePlywood'
p693
F0.23333333333333334
sS'BsmtFinSF1Unf'
p694
F0.36666666666666664
sS'FenceNA'
p695
F0.96666666666666667
sS'GarageFinishBuiltIn'
p696
F0.10000000000000001
sS'LotShapeNA'
p697
F1
sg231
F786.29999999999995
sa(dp698
S'MasVnrAreaBrkCmn'
p699
F0.016949152542372881
sS'GarageCarsNA'
p700
F0.0084745762711864406
sg5
F0.99152542372881358
sS'BsmtCondNA'
p701
F0.016949152542372881
sS'PavedDriveNA'
p702
F0.0084745762711864406
sg8
F144.88135593220338
sS'MasVnrAreaStone'
p703
F0.16101694915254236
sS'BsmtCondFa'
p704
F0.0084745762711864406
sS'MasVnrTypeMetalSd'
p705
F0.042372881355932202
sS'UtilitiesLow'
p706
F0.016949152542372881
sS'BsmtFinType1Gd'
p707
F0.20338983050847459
sg16
F60.042372881355931
sS'UtilitiesLvl'
p708
F0.88983050847457623
sS'X1stFlrSFFuseA'
p709
F0.042372881355932202
sS'X1stFlrSFFuseF'
p710
F0.0084745762711864406
sS'Exterior2ndStone'
p711
F0.0084745762711864406
sS'MasVnrTypeStone'
p712
F0.0084745762711864406
sS'BsmtFinSF2LwQ'
p713
F0.033898305084745763
sS'HouseAgeAbnorml'
p714
F0.033898305084745763
sg23
F3.1101694915254239
sS'FoundationTA'
p715
F0.88983050847457623
sS'Condition1NoRidge'
p716
F0.059322033898305086
sS'Condition1Gilbert'
p717
F0.067796610169491525
sS'GarageCarsRFn'
p718
F0.30508474576271188
sS'PavedDriveFa'
p719
F0.0084745762711864406
sS'Condition1Mitchel'
p720
F0.016949152542372881
sS'RoofMatlFlat'
p721
F0.0084745762711864406
sg33
F0.050847457627118647
sS'MiscValGar2'
p722
F0.0084745762711864406
sS'BsmtFinType1Mn'
p723
F0.093220338983050849
sS'BsmtFinSF1Rec'
p724
F0.076271186440677971
sg36
F1
sS'MasVnrAreaNone'
p725
F0.38983050847457629
sS'BsmtFinSF2Rec'
p726
F0.033898305084745763
sS'BsmtFinSF1BLQ'
p727
F0.11016949152542373
sg40
F575.36440677966107
sS'BsmtQualCBlock'
p728
F0.36440677966101692
sg42
F20.838983050847457
sS'Exterior2ndWd Sdng'
p729
F0.15254237288135594
sg44
F22.050847457627118
sS'MiscFeatureGdWo'
p730
F0.025423728813559324
sS'MiscFeatureGdPrv'
p731
F0.067796610169491525
sS'LandSlopeInside'
p732
F0.5423728813559322
sS'GarageTypeEx'
p733
F0.042372881355932202
sg49
F7.4406779661016946
sg50
F13883.71186440678
sS'Condition2Feedr'
p734
F0.025423728813559324
sS'BsmtQualBrkTil'
p735
F0.042372881355932202
sg53
F41.991525423728817
sg54
F0
sS'BldgTypePosN'
p736
F0.0084745762711864406
sS'SaleConditionWD'
p737
F0.81355932203389836
sS'MasVnrTypeCmentBd'
p738
F0.067796610169491525
sS'Condition1IDOTRR'
p739
F0.0084745762711864406
sS'WoodDeckSFN'
p740
F0.025423728813559324
sS'GarageTypeNA'
p741
F0.20338983050847459
sS'MasVnrTypeWd Shng'
p742
F0.0084745762711864406
sS'ElectricalY'
p743
F0.99152542372881358
sS'Exterior1stCompShg'
p744
F1
sS'GarageTypeFa'
p745
F0.016949152542372881
sS'Condition1NWAmes'
p746
F0.050847457627118647
sg68
F6.9406779661016946
sS'RoofMatlGable'
p747
F0.67796610169491522
sS'SaleConditionConLI'
p748
F0.0084745762711864406
sS'SaleConditionNew'
p749
F0.16101694915254236
sS'ExterCondTA'
p750
F0.44915254237288138
sS'CentralAirGd'
p751
F0.16101694915254236
sS'MasVnrTypeBrkFace'
p752
F0.0084745762711864406
sS'BsmtQualPConc'
p753
F0.56779661016949157
sS'ExterCondEx'
p754
F0.13559322033898305
sg76
F0.44915254237288138
sS'ElectricalN'
p755
F0.0084745762711864406
sS'LandContourIR1'
p756
F0.49152542372881358
sS'LandContourIR2'
p757
F0.059322033898305086
sS'Condition1CollgCr'
p758
F0.050847457627118647
sS'GarageTypeTA'
p759
F0.26271186440677968
sS'FireplacesTyp'
p760
F0.92372881355932202
sS'LotFrontageRM'
p761
F0.025423728813559324
sS'Exterior2ndPlywood'
p762
F0.059322033898305086
sS'BsmtFinSF2GLQ'
p763
F0.016949152542372881
sS'GarageFinishCarPort'
p764
F0.0084745762711864406
sS'PavedDriveTA'
p765
F0.98305084745762716
sg85
F0.51694915254237284
sS'Condition2Artery'
p766
F0.0084745762711864406
sS'MasVnrTypeHdBoard'
p767
F0.1440677966101695
sg100
F6.3644067796610173
sS'BsmtFinSF2BLQ'
p768
F0.033898305084745763
sS'Condition1Crawfor'
p769
F0.076271186440677971
sS'RoofMatlHip'
p770
F0.29661016949152541
sS'LotShapeGrvl'
p771
F0.016949152542372881
sS'BsmtExposureGd'
p772
F0.042372881355932202
sS'GarageFinishAttchd'
p773
F0.72881355932203384
sS'Condition1Timber'
p774
F0.084745762711864403
sS'GarageCondTA'
p775
F0.97457627118644063
sS'MiscFeatureMnPrv'
p776
F0.050847457627118647
sS'UtilitiesBnk'
p777
F0.025423728813559324
sg102
F1287.5
sS'Exterior2ndHdBoard'
p778
F0.16949152542372881
sS'FoundationEx'
p779
F0.0084745762711864406
sS'OverallQualSLvl'
p780
F0.050847457627118647
sS'RoofMatlGambrel'
p781
F0.016949152542372881
sS'WoodDeckSFY'
p782
F0.96610169491525422
sS'BsmtFinSF1LwQ'
p783
F0.016949152542372881
sS'HouseStyleTwnhsE'
p784
F0.0084745762711864406
sS'GarageFinishNA'
p785
F0.0084745762711864406
sS'BsmtQualWood'
p786
F0.0084745762711864406
sS'BsmtFinSF2NA'
p787
F0.016949152542372881
sS'WoodDeckSFP'
p788
F0.0084745762711864406
sS'Exterior2ndWdShing'
p789
F0.0084745762711864406
sS'BsmtExposureFa'
p790
F0.0084745762711864406
sS'Exterior2ndMetalSd'
p791
F0.042372881355932202
sS'Condition2Norm'
p792
F0.88135593220338981
sg114
F208.26271186440678
sS'GarageFinishDetchd'
p793
F0.11016949152542373
sS'Exterior2ndStucco'
p794
F0.025423728813559324
sS'LandSlopeCorner'
p795
F0.2711864406779661
sg118
F15.338983050847459
sS'HouseStyle2fmCon'
p796
F0.0084745762711864406
sg120
F2.2627118644067798
sS'Condition1Sawyer'
p797
F0.076271186440677971
sS'NeighborhoodGtl'
p798
F0.9576271186440678
sS'FoundationGd'
p799
F0.10169491525423729
sS'MasVnrTypeWd Sdng'
p800
F0.16101694915254236
sS'HouseAgePartial'
p801
F0.16101694915254236
sS'BsmtFinType1No'
p802
F0.52542372881355937
sg127
F1846.8983050847457
sS'MasVnrAreaBrkFace'
p803
F0.42372881355932202
sS'Exterior2ndCemntBd'
p804
F0.067796610169491525
sS'BsmtExposureTA'
p805
F0.93220338983050843
sg134
F67.237288135593218
sS'SaleConditionCOD'
p806
F0.0084745762711864406
sS'MiscValNA'
p807
F0.96610169491525422
sS'FireplacesMin2'
p808
F0.042372881355932202
sS'FireplacesMin1'
p809
F0.016949152542372881
sS'GarageCondNA'
p810
F0.0084745762711864406
sS'ExterCondGd'
p811
F0.4152542372881356
sS'SaleConditionCWD'
p812
F0.0084745762711864406
sS'BsmtExposureNA'
p813
F0.016949152542372881
sS'LandSlopeFR2'
p814
F0.0084745762711864406
sg145
F5.5423728813559325
sg146
F12.991525423728813
sg148
F157.62711864406779
sS'OverallQual1Story'
p815
F0.52542372881355937
sS'Condition1Somerst'
p816
F0.033898305084745763
sS'Condition1Veenker'
p817
F0.0084745762711864406
sg152
F45.5
sS'Condition1NridgHt'
p818
F0.16101694915254236
sS'CentralAirEx'
p819
F0.66949152542372881
sS'LandSlopeCulDSac'
p820
F0.17796610169491525
sg157
F2007.5593220338983
sS'BsmtCondTA'
p821
F0.29661016949152541
sg160
F1424.2796610169491
sg161
F1
sS'Condition1ClearCr'
p822
F0.016949152542372881
sg162
F1.0169491525423728
sS'X1stFlrSFSBrkr'
p823
F0.94915254237288138
sS'BsmtFinType1NA'
p824
F0.025423728813559324
sS'GarageFinishBasment'
p825
F0.016949152542372881
sS'BsmtCondEx'
p826
F0.2288135593220339
sS'TotRmsAbvGrdTA'
p827
F0.3135593220338983
sS'NeighborhoodMod'
p828
F0.042372881355932202
sS'MiscValShed'
p829
F0.025423728813559324
sS'MasVnrTypeStucco'
p830
F0.016949152542372881
sS'Condition2RRAe'
p831
F0.050847457627118647
sS'TotRmsAbvGrdEx'
p832
F0.1864406779661017
sS'MasVnrTypeVinylSd'
p833
F0.43220338983050849
sS'Condition2RRAn'
p834
F0.0084745762711864406
sg175
F25.627118644067796
sS'HouseAgeNormal'
p835
F0.78813559322033899
sS'BsmtCondGd'
p836
F0.44915254237288138
sS'LotFrontageRL'
p837
F0.97457627118644063
sS'BsmtFinType1Av'
p838
F0.15254237288135594
sS'GarageCondFa'
p839
F0.0084745762711864406
sS'MiscFeatureNA'
p840
F0.84745762711864403
sg182
F422.16949152542372
sS'BsmtQualSlab'
p841
F0.016949152542372881
sS'LandContourReg'
p842
F0.44067796610169491
sS'BldgTypePosA'
p843
F0.0084745762711864406
sS'BldgTypeNorm'
p844
F0.98305084745762716
sS'GarageCarsFin'
p845
F0.38135593220338981
sS'BsmtFinSF1GLQ'
p846
F0.38135593220338981
sg187
F609.45762711864404
sS'Exterior2ndVinylSd'
p847
F0.43220338983050849
sg190
F1.771186440677966
sS'OverallQual1.5Fin'
p848
F0.067796610169491525
sS'HouseStyle1Fam'
p849
F0.97457627118644063
sS'Condition1OldTown'
p850
F0.016949152542372881
sS'HouseStyleDuplex'
p851
F0.0084745762711864406
sS'MiscFeatureMnWw'
p852
F0.0084745762711864406
sS'BsmtFinSF1Unf'
p853
F0.2711864406779661
sS'BsmtFinSF1ALQ'
p854
F0.1271186440677966
sS'BsmtFinSF1NA'
p855
F0.016949152542372881
sS'BsmtFinSF2ALQ'
p856
F0.0084745762711864406
sS'LotShapePave'
p857
F0.016949152542372881
sS'FireplacesMaj2'
p858
F0.0084745762711864406
sS'FireplacesMaj1'
p859
F0.0084745762711864406
sg200
F666.63559322033893
sS'Condition2PosN'
p860
F0.025423728813559324
sS'Exterior2ndBrkFace'
p861
F0.033898305084745763
sS'UtilitiesHLS'
p862
F0.067796610169491525
sS'Condition1StoneBr'
p863
F0.016949152542372881
sS'GarageTypeGd'
p864
F0.47457627118644069
sS'TotRmsAbvGrdGd'
p865
F0.5
sS'Condition1BrkSide'
p866
F0.016949152542372881
sS'GarageCondGd'
p867
F0.0084745762711864406
sS'LandContourIR3'
p868
F0.0084745762711864406
sS'BsmtFinSF2Unf'
p869
F0.85593220338983056
sS'OverallQual2Story'
p870
F0.34745762711864409
sS'MasVnrAreaNA'
p871
F0.0084745762711864406
sS'GarageCarsUnf'
p872
F0.30508474576271188
sg218
F4.5423728813559325
sg219
F0.47457627118644069
sS'CentralAirTA'
p873
F0.16949152542372881
sS'Condition1Edwards'
p874
F0.033898305084745763
sS'Condition1NAmes'
p875
F0.13559322033898305
sS'HeatingQCGasA'
p876
F1
sS'MasVnrTypePlywood'
p877
F0.11016949152542373
sS'Condition1SawyerW'
p878
F0.067796610169491525
sS'FenceNA'
p879
F1
sS'GarageFinishBuiltIn'
p880
F0.1271186440677966
sS'OverallQual2.5Unf'
p881
F0.0084745762711864406
sS'LotShapeNA'
p882
F0.96610169491525422
sS'HouseAgeFamily'
p883
F0.016949152542372881
sg231
F714.0593220338983
sa(dp884
S'GarageCarsNA'
p885
F0.015151515151515152
sg5
F1
sS'BsmtCondNA'
p886
F0.015151515151515152
sS'PavedDriveNA'
p887
F0.015151515151515152
sg8
F108.02272727272727
sS'MasVnrAreaStone'
p888
F0.068181818181818177
sS'BsmtCondFa'
p889
F0.03787878787878788
sS'HeatingQCOthW'
p890
F0.007575757575757576
sS'MasVnrTypeMetalSd'
p891
F0.13636363636363635
sS'UtilitiesLow'
p892
F0.007575757575757576
sS'BsmtFinType1Gd'
p893
F0.045454545454545456
sS'Exterior1stRoll'
p894
F0.007575757575757576
sS'Exterior2ndAsbShng'
p895
F0.015151515151515152
sg16
F71.25
sS'UtilitiesLvl'
p896
F0.90151515151515149
sS'X1stFlrSFFuseA'
p897
F0.068181818181818177
sS'X1stFlrSFFuseF'
p898
F0.007575757575757576
sS'RoofMatlGambrel'
p899
F0.007575757575757576
sS'PavedDriveGd'
p900
F0.007575757575757576
sS'HouseAgeAbnorml'
p901
F0.03787878787878788
sg23
F3.4318181818181817
sS'MiscFeatureMnPrv'
p902
F0.07575757575757576
sS'FoundationTA'
p903
F0.93181818181818177
sS'FireplacesMod'
p904
F0.015151515151515152
sS'Condition1NoRidge'
p905
F0.10606060606060606
sS'Condition1Gilbert'
p906
F0.098484848484848481
sS'BsmtQualStone'
p907
F0.007575757575757576
sS'GarageCarsRFn'
p908
F0.34848484848484851
sS'PavedDriveFa'
p909
F0.053030303030303032
sS'HouseStyleDuplex'
p910
F0.030303030303030304
sg33
F0.030303030303030304
sS'BsmtFinType1Mn'
p911
F0.14393939393939395
sS'BsmtFinSF1Rec'
p912
F0.083333333333333329
sg36
F1
sS'BldgTypeArtery'
p913
F0.007575757575757576
sS'MasVnrAreaNone'
p914
F0.52272727272727271
sS'LotFrontageFV'
p915
F0.060606060606060608
sS'BsmtFinSF1BLQ'
p916
F0.068181818181818177
sg40
F372.68939393939394
sS'BsmtQualCBlock'
p917
F0.31818181818181818
sg42
F20.939393939393938
sS'Exterior2ndWd Sdng'
p918
F0.12878787878787878
sg44
F24.469696969696969
sS'MiscFeatureGdWo'
p919
F0.030303030303030304
sS'MiscFeatureGdPrv'
p920
F0.060606060606060608
sS'LandSlopeInside'
p921
F0.70454545454545459
sS'GarageTypeEx'
p922
F0.022727272727272728
sg49
F8.0303030303030312
sg50
F10593.568181818182
sS'Condition2Feedr'
p923
F0.060606060606060608
sS'BsmtQualBrkTil'
p924
F0.090909090909090912
sg53
F69.318181818181813
sg54
F0
sS'SaleConditionWD'
p925
F0.90151515151515149
sS'MasVnrTypeCmentBd'
p926
F0.022727272727272728
sS'Condition1IDOTRR'
p927
F0.015151515151515152
sS'BldgTypeFeedr'
p928
F0.015151515151515152
sS'RoofMatlHip'
p929
F0.12121212121212122
sS'CentralAirFa'
p930
F0.030303030303030304
sS'GarageTypeNA'
p931
F0.22727272727272727
sS'MasVnrTypeWd Shng'
p932
F0.007575757575757576
sS'ElectricalY'
p933
F0.93939393939393945
sS'Exterior1stCompShg'
p934
F0.98484848484848486
sS'GarageCondFa'
p935
F0.045454545454545456
sS'Condition1NWAmes'
p936
F0.098484848484848481
sg68
F6.6818181818181817
sS'RoofMatlGable'
p937
F0.84848484848484851
sS'SaleConditionNew'
p938
F0.068181818181818177
sS'ExterCondTA'
p939
F0.46969696969696972
sS'CentralAirGd'
p940
F0.15909090909090909
sS'MasVnrTypeBrkFace'
p941
F0.015151515151515152
sS'BsmtQualPConc'
p942
F0.5757575757575758
sS'BsmtFinSF1ALQ'
p943
F0.053030303030303032
sg76
F7.9015151515151514
sS'ElectricalN'
p944
F0.060606060606060608
sS'LandContourIR1'
p945
F0.36363636363636365
sS'LandContourIR2'
p946
F0.022727272727272728
sS'Condition1CollgCr'
p947
F0.12878787878787878
sS'GarageTypeTA'
p948
F0.43181818181818182
sS'FireplacesTyp'
p949
F0.91666666666666663
sS'BsmtFinType1Av'
p950
F0.11363636363636363
sS'Exterior2ndPlywood'
p951
F0.060606060606060608
sS'BsmtFinSF2GLQ'
p952
F0.007575757575757576
sS'GarageFinishCarPort'
p953
F0.007575757575757576
sS'PavedDriveTA'
p954
F0.9242424242424242
sg85
F0.32575757575757575
sS'Condition2Artery'
p955
F0.045454545454545456
sS'BsmtFinSF2LwQ'
p956
F0.030303030303030304
sS'MasVnrTypeHdBoard'
p957
F0.15909090909090909
sS'BsmtCondGd'
p958
F0.5757575757575758
sS'FoundationFa'
p959
F0.007575757575757576
sS'LotFrontageRH'
p960
F0.007575757575757576
sS'BsmtFinSF2BLQ'
p961
F0.022727272727272728
sS'Condition1Crawfor'
p962
F0.053030303030303032
sS'WoodDeckSFN'
p963
F0.068181818181818177
sS'LotShapeGrvl'
p964
F0.068181818181818177
sS'BsmtExposureGd'
p965
F0.015151515151515152
sS'GarageFinishAttchd'
p966
F0.65151515151515149
sS'Condition1Timber'
p967
F0.015151515151515152
sS'GarageCondTA'
p968
F0.91666666666666663
sg100
F6.2575757575757578
sS'UtilitiesBnk'
p969
F0.060606060606060608
sg102
F963.57575757575762
sS'ExterCondEx'
p970
F0.015151515151515152
sS'Exterior2ndHdBoard'
p971
F0.15151515151515152
sS'OverallQualSLvl'
p972
F0.03787878787878788
sS'HeatingQCGasW'
p973
F0.03787878787878788
sS'WoodDeckSFY'
p974
F0.90909090909090906
sS'BsmtFinSF1LwQ'
p975
F0.060606060606060608
sS'HouseStyleTwnhsE'
p976
F0.007575757575757576
sS'GarageFinishNA'
p977
F0.015151515151515152
sS'BsmtQualWood'
p978
F0.007575757575757576
sS'BsmtFinSF2NA'
p979
F0.015151515151515152
sS'WoodDeckSFP'
p980
F0.022727272727272728
sS'Exterior2ndWdShing'
p981
F0.007575757575757576
sS'Exterior2ndMetalSd'
p982
F0.14393939393939395
sS'Condition2Norm'
p983
F0.81060606060606055
sg114
F141.96969696969697
sS'SaleConditionConLD'
p984
F0.007575757575757576
sS'GarageFinishDetchd'
p985
F0.2196969696969697
sS'Exterior2ndStucco'
p986
F0.015151515151515152
sS'LandSlopeCorner'
p987
F0.21212121212121213
sg118
F18.992424242424242
sS'HouseStyle2fmCon'
p988
F0.053030303030303032
sg120
F2.0909090909090908
sS'Condition1Sawyer'
p989
F0.007575757575757576
sS'NeighborhoodGtl'
p990
F0.93181818181818177
sS'FoundationGd'
p991
F0.060606060606060608
sS'HouseAgePartial'
p992
F0.068181818181818177
sS'BsmtFinType1No'
p993
F0.68181818181818177
sg127
F2024.5833333333333
sS'MasVnrAreaBrkFace'
p994
F0.40151515151515149
sS'MasVnrTypeAsbShng'
p995
F0.022727272727272728
sS'Exterior2ndCemntBd'
p996
F0.022727272727272728
sS'BsmtExposureTA'
p997
F0.9242424242424242
sg134
F63.530303030303031
sS'SaleConditionCOD'
p998
F0.015151515151515152
sS'MiscValNA'
p999
F0.93939393939393945
sS'FireplacesMin2'
p1000
F0.045454545454545456
sS'Exterior1stWdShake'
p1001
F0.007575757575757576
sS'FireplacesMin1'
p1002
F0.015151515151515152
sS'BsmtExposureFa'
p1003
F0.045454545454545456
sS'ExterCondGd'
p1004
F0.5
sS'LandSlopeFR2'
p1005
F0.030303030303030304
sg145
F5.5378787878787881
sg146
F30.053030303030305
sS'MasVnrTypeImStucc'
p1006
F0.007575757575757576
sg148
F37.5
sS'NeighborhoodMod'
p1007
F0.068181818181818177
sS'Condition1Somerst'
p1008
F0.068181818181818177
sg152
F38.856060606060609
sS'Condition1NridgHt'
p1009
F0.053030303030303032
sS'CentralAirEx'
p1010
F0.59848484848484851
sS'LandSlopeCulDSac'
p1011
F0.053030303030303032
sS'Condition1SWISU'
p1012
F0.022727272727272728
sg157
F2007.8333333333333
sS'BsmtCondTA'
p1013
F0.29545454545454547
sg160
F1107.1742424242425
sg161
F0.85606060606060608
sS'Condition1ClearCr'
p1014
F0.022727272727272728
sg162
F1.0833333333333333
sS'X1stFlrSFSBrkr'
p1015
F0.9242424242424242
sS'ExterCondFa'
p1016
F0.015151515151515152
sS'SaleConditionConLw'
p1017
F0.007575757575757576
sS'BsmtFinType1NA'
p1018
F0.015151515151515152
sS'BsmtCondEx'
p1019
F0.07575757575757576
sS'TotRmsAbvGrdTA'
p1020
F0.40151515151515149
sS'BsmtFinSF2Rec'
p1021
F0.030303030303030304
sS'MiscValShed'
p1022
F0.060606060606060608
sS'MasVnrTypeStucco'
p1023
F0.022727272727272728
sS'TotRmsAbvGrdEx'
p1024
F0.07575757575757576
sS'MasVnrTypeVinylSd'
p1025
F0.42424242424242425
sS'Condition2RRAn'
p1026
F0.03787878787878788
sg175
F35.719696969696969
sS'HouseAgeNormal'
p1027
F0.88636363636363635
sS'MasVnrTypeWd Sdng'
p1028
F0.12121212121212122
sS'LotFrontageRL'
p1029
F0.8257575757575758
sS'LotFrontageRM'
p1030
F0.10606060606060606
sS'GarageTypeFa'
p1031
F0.007575757575757576
sS'MiscFeatureNA'
p1032
F0.8257575757575758
sg182
F909.50757575757575
sS'OverallQual2.5Fin'
p1033
F0.015151515151515152
sS'LandContourReg'
p1034
F0.61363636363636365
sS'BldgTypeNorm'
p1035
F0.97727272727272729
sS'GarageCarsFin'
p1036
F0.31818181818181818
sS'BsmtFinSF1GLQ'
p1037
F0.34848484848484851
sg187
F560.64393939393938
sS'Exterior2ndVinylSd'
p1038
F0.42424242424242425
sS'TotRmsAbvGrdFa'
p1039
F0.015151515151515152
sg190
F1.8712121212121211
sS'OverallQual1.5Fin'
p1040
F0.12878787878787878
sS'HouseStyle1Fam'
p1041
F0.90909090909090906
sS'Condition1OldTown'
p1042
F0.12878787878787878
sS'Condition1Mitchel'
p1043
F0.015151515151515152
sS'MiscFeatureMnWw'
p1044
F0.007575757575757576
sS'Condition2PosA'
p1045
F0.007575757575757576
sS'Condition1SawyerW'
p1046
F0.068181818181818177
sS'BsmtExposureNA'
p1047
F0.015151515151515152
sS'BsmtFinSF1NA'
p1048
F0.015151515151515152
sS'BsmtFinSF2ALQ'
p1049
F0.015151515151515152
sS'LotShapePave'
p1050
F0.022727272727272728
sS'FireplacesMaj1'
p1051
F0.007575757575757576
sg200
F552.030303030303
sS'Condition2PosN'
p1052
F0.03787878787878788
sS'Exterior2ndBrkFace'
p1053
F0.030303030303030304
sS'GarageTypePo'
p1054
F0.015151515151515152
sS'UtilitiesHLS'
p1055
F0.030303030303030304
sS'Condition1StoneBr'
p1056
F0.007575757575757576
sS'GarageTypeGd'
p1057
F0.29545454545454547
sS'TotRmsAbvGrdGd'
p1058
F0.50757575757575757
sS'Condition1BrkSide'
p1059
F0.007575757575757576
sS'GarageCondGd'
p1060
F0.022727272727272728
sS'BsmtFinSF2Unf'
p1061
F0.87878787878787878
sS'OverallQual2Story'
p1062
F0.79545454545454541
sS'RoofMatlMansard'
p1063
F0.022727272727272728
sS'MasVnrAreaNA'
p1064
F0.007575757575757576
sS'GarageCarsUnf'
p1065
F0.31818181818181818
sg218
F2.5454545454545454
sg219
F0.80303030303030298
sS'CentralAirTA'
p1066
F0.21212121212121213
sS'Condition1Edwards'
p1067
F0.007575757575757576
sS'Condition1NAmes'
p1068
F0.07575757575757576
sS'HeatingQCGasA'
p1069
F0.95454545454545459
sS'MasVnrTypePlywood'
p1070
F0.060606060606060608
sS'BsmtFinSF1Unf'
p1071
F0.37121212121212122
sS'GarageCondNA'
p1072
F0.015151515151515152
sS'FenceNA'
p1073
F1
sS'GarageFinishBuiltIn'
p1074
F0.10606060606060606
sS'OverallQual2.5Unf'
p1075
F0.022727272727272728
sS'LotShapeNA'
p1076
F0.90909090909090906
sS'HouseAgeFamily'
p1077
F0.007575757575757576
sg231
F841.18181818181813
sa(dp1078
S'GarageCarsNA'
p1079
F0.076923076923076927
sg5
F1
sS'OverallQualSFoyer'
p1080
F0.076923076923076927
sg8
F68.602564102564102
sS'MasVnrAreaStone'
p1081
F0.11538461538461539
sS'MasVnrTypeMetalSd'
p1082
F0.21794871794871795
sS'Exterior2ndAsbShng'
p1083
F0.01282051282051282
sg16
F29.602564102564102
sS'UtilitiesLvl'
p1084
F0.97435897435897434
sS'X1stFlrSFFuseA'
p1085
F0.01282051282051282
sS'BsmtFinSF2LwQ'
p1086
F0.01282051282051282
sS'HouseAgeAbnorml'
p1087
F0.089743589743589744
sg23
F2.3846153846153846
sS'MiscFeatureMnPrv'
p1088
F0.01282051282051282
sS'FoundationTA'
p1089
F0.94871794871794868
sS'PavedDriveNA'
p1090
F0.076923076923076927
sS'Condition1NPkVill'
p1091
F0.064102564102564097
sS'GarageCarsRFn'
p1092
F0.15384615384615385
sS'PavedDriveFa'
p1093
F0.02564102564102564
sg33
F0.02564102564102564
sS'BsmtFinType1Mn'
p1094
F0.02564102564102564
sS'BsmtFinSF1Rec'
p1095
F0.02564102564102564
sg36
F1
sS'MasVnrAreaNone'
p1096
F0.42307692307692307
sS'LotFrontageFV'
p1097
F0.21794871794871795
sS'BsmtFinSF1BLQ'
p1098
F0.10256410256410256
sg40
F238.82051282051282
sS'BsmtQualCBlock'
p1099
F0.48717948717948717
sg42
F1.8461538461538463
sS'Exterior2ndWd Sdng'
p1100
F0.01282051282051282
sg44
F19.487179487179485
sS'MiscFeatureGdWo'
p1101
F0.01282051282051282
sS'MiscFeatureGdPrv'
p1102
F0.02564102564102564
sS'LandSlopeInside'
p1103
F0.89743589743589747
sg49
F5.5641025641025639
sg50
F2422.2307692307691
sS'MasVnrTypeBrk Cmn'
p1104
F0.064102564102564097
sg53
F148.84615384615384
sg54
F0
sS'SaleConditionWD'
p1105
F0.9358974358974359
sS'WoodDeckSFN'
p1106
F0.02564102564102564
sS'CentralAirFa'
p1107
F0.02564102564102564
sS'GarageTypeNA'
p1108
F0.64102564102564108
sS'MasVnrTypeWd Shng'
p1109
F0.05128205128205128
sS'ElectricalY'
p1110
F0.98717948717948723
sS'Exterior1stCompShg'
p1111
F1
sS'GarageTypeFa'
p1112
F0.02564102564102564
sg68
F6.0641025641025639
sS'RoofMatlGable'
p1113
F0.97435897435897434
sS'SaleConditionNew'
p1114
F0.02564102564102564
sS'ExterCondTA'
p1115
F0.57692307692307687
sS'CentralAirGd'
p1116
F0.10256410256410256
sS'BsmtQualPConc'
p1117
F0.51282051282051277
sS'BsmtFinSF1ALQ'
p1118
F0.20512820512820512
sg76
F3.0769230769230771
sS'ElectricalN'
p1119
F0.01282051282051282
sS'LandContourIR1'
p1120
F0.01282051282051282
sS'GarageTypeTA'
p1121
F0.19230769230769232
sS'FireplacesTyp'
p1122
F0.91025641025641024
sS'BsmtFinType1Av'
p1123
F0.12820512820512819
sS'Exterior2ndPlywood'
p1124
F0.064102564102564097
sS'BsmtFinSF2GLQ'
p1125
F0.038461538461538464
sS'PavedDriveTA'
p1126
F0.89743589743589747
sg85
F0.23076923076923078
sS'MasVnrTypeHdBoard'
p1127
F0.17948717948717949
sS'BsmtCondGd'
p1128
F0.65384615384615385
sS'BsmtFinSF2BLQ'
p1129
F0.01282051282051282
sS'MasVnrTypeCmentBd'
p1130
F0.20512820512820512
sS'RoofMatlHip'
p1131
F0.02564102564102564
sS'LotShapeGrvl'
p1132
F0.038461538461538464
sS'BsmtExposureGd'
p1133
F0.01282051282051282
sS'GarageFinishAttchd'
p1134
F0.38461538461538464
sS'GarageCondTA'
p1135
F0.91025641025641024
sg100
F5.9102564102564106
sg102
F780.96153846153845
sS'Exterior2ndHdBoard'
p1136
F0.19230769230769232
sS'OverallQualSLvl'
p1137
F0.01282051282051282
sS'WoodDeckSFY'
p1138
F0.96153846153846156
sS'BsmtFinSF1LwQ'
p1139
F0.05128205128205128
sS'HouseStyleTwnhsE'
p1140
F0.4358974358974359
sS'GarageFinishNA'
p1141
F0.076923076923076927
sS'WoodDeckSFP'
p1142
F0.01282051282051282
sS'BsmtExposureFa'
p1143
F0.01282051282051282
sS'Condition1Blmngtn'
p1144
F0.14102564102564102
sS'Exterior2ndMetalSd'
p1145
F0.21794871794871795
sS'Condition1MeadowV'
p1146
F0.17948717948717949
sS'Condition2Norm'
p1147
F1
sg114
F139.01282051282053
sS'GarageFinishDetchd'
p1148
F0.47435897435897434
sS'Exterior2ndStucco'
p1149
F0.01282051282051282
sS'GarageCarsFin'
p1150
F0.19230769230769232
sg118
F18.679487179487179
sg120
F1.5256410256410255
sS'NeighborhoodGtl'
p1151
F1
sS'FoundationGd'
p1152
F0.05128205128205128
sS'HouseAgePartial'
p1153
F0.02564102564102564
sS'BsmtFinType1No'
p1154
F0.79487179487179482
sg127
F1294.7051282051282
sS'MasVnrAreaBrkFace'
p1155
F0.46153846153846156
sS'MasVnrTypeAsbShng'
p1156
F0.01282051282051282
sS'Exterior2ndCemntBd'
p1157
F0.20512820512820512
sS'BsmtExposureTA'
p1158
F0.97435897435897434
sS'LandSlopeCorner'
p1159
F0.064102564102564097
sg134
F24.897435897435898
sS'SaleConditionCOD'
p1160
F0.038461538461538464
sS'MiscValNA'
p1161
F1
sS'FireplacesMin2'
p1162
F0.01282051282051282
sS'FireplacesMin1'
p1163
F0.02564102564102564
sS'GarageCondNA'
p1164
F0.076923076923076927
sS'ExterCondGd'
p1165
F0.42307692307692307
sS'LandSlopeFR2'
p1166
F0.038461538461538464
sg145
F5.384615384615385
sg146
F1.6153846153846154
sS'MasVnrTypeImStucc'
p1167
F0.01282051282051282
sg148
F0
sS'Condition1Blueste'
p1168
F0.02564102564102564
sS'OverallQual1Story'
p1169
F0.16666666666666666
sS'Condition1Somerst'
p1170
F0.21794871794871795
sg152
F35.435897435897438
sS'Condition1NridgHt'
p1171
F0.05128205128205128
sS'CentralAirEx'
p1172
F0.51282051282051277
sg157
F2007.8846153846155
sS'BsmtCondTA'
p1173
F0.34615384615384615
sg160
F804.15384615384619
sg161
F0.37179487179487181
sS'Condition1ClearCr'
p1174
F0.01282051282051282
sg162
F1
sS'X1stFlrSFSBrkr'
p1175
F0.98717948717948723
sS'BsmtFinType1Gd'
p1176
F0.05128205128205128
sS'TotRmsAbvGrdTA'
p1177
F0.5
sS'BsmtFinSF2Rec'
p1178
F0.02564102564102564
sS'MasVnrTypeStucco'
p1179
F0.01282051282051282
sS'TotRmsAbvGrdEx'
p1180
F0.02564102564102564
sS'MasVnrTypeVinylSd'
p1181
F0.23076923076923078
sg175
F23.076923076923077
sS'HouseAgeNormal'
p1182
F0.87179487179487181
sS'MasVnrTypeWd Sdng'
p1183
F0.01282051282051282
sS'LotFrontageRL'
p1184
F0.25641025641025639
sS'LotFrontageRM'
p1185
F0.52564102564102566
sS'GarageCondFa'
p1186
F0.01282051282051282
sS'MiscFeatureNA'
p1187
F0.9358974358974359
sg182
F487.47435897435895
sS'LandContourReg'
p1188
F0.98717948717948723
sS'BldgTypeNorm'
p1189
F1
sS'BsmtFinSF1GLQ'
p1190
F0.28205128205128205
sg187
F356.08974358974359
sS'Exterior2ndVinylSd'
p1191
F0.28205128205128205
sg190
F1.5897435897435896
sS'OverallQual1.5Fin'
p1192
F0.01282051282051282
sS'HouseStyle1Fam'
p1193
F0.076923076923076927
sS'Condition1OldTown'
p1194
F0.05128205128205128
sS'Condition1BrDale'
p1195
F0.20512820512820512
sS'LotShapePave'
p1196
F0.16666666666666666
sS'FireplacesMaj1'
p1197
F0.05128205128205128
sg200
F506.70512820512823
sS'GarageTypePo'
p1198
F0.01282051282051282
sS'UtilitiesHLS'
p1199
F0.02564102564102564
sS'MiscFeatureMnWw'
p1200
F0.01282051282051282
sS'TotRmsAbvGrdGd'
p1201
F0.47435897435897434
sS'HouseStyleTwnhs'
p1202
F0.48717948717948717
sS'GarageTypeGd'
p1203
F0.12820512820512819
sS'BsmtFinSF2Unf'
p1204
F0.91025641025641024
sS'OverallQual2Story'
p1205
F0.73076923076923073
sS'GarageCarsUnf'
p1206
F0.57692307692307687
sg218
F0
sg219
F0.64102564102564108
sS'CentralAirTA'
p1207
F0.35897435897435898
sS'Condition1Edwards'
p1208
F0.05128205128205128
sS'HeatingQCGasA'
p1209
F1
sS'BsmtFinSF1Unf'
p1210
F0.33333333333333331
sS'FenceNA'
p1211
F1
sS'GarageFinishBuiltIn'
p1212
F0.064102564102564097
sS'LotShapeNA'
p1213
F0.79487179487179482
sS'HouseAgeFamily'
p1214
F0.01282051282051282
sg231
F733.93589743589746
sa(dp1215
S'MasVnrAreaBrkCmn'
p1216
F0.015544041450777202
sS'GarageCarsNA'
p1217
F0.062176165803108807
sg5
F1
sS'BsmtCondNA'
p1218
F0.046632124352331605
sS'NeighborhoodMod'
p1219
F0.031088082901554404
sg8
F71.461139896373055
sS'MasVnrAreaStone'
p1220
F0.077720207253886009
sS'BsmtCondFa'
p1221
F0.031088082901554404
sS'MasVnrTypeMetalSd'
p1222
F0.17098445595854922
sS'UtilitiesLow'
p1223
F0.010362694300518135
sS'BsmtFinType1Gd'
p1224
F0.036269430051813469
sS'Exterior2ndAsbShng'
p1225
F0.0051813471502590676
sg16
F33.259067357512954
sS'UtilitiesLvl'
p1226
F0.90673575129533679
sS'X1stFlrSFFuseA'
p1227
F0.062176165803108807
sS'X1stFlrSFFuseF'
p1228
F0.036269430051813469
sS'MasVnrTypeStone'
p1229
F0.010362694300518135
sS'RoofMatlGambrel'
p1230
F0.0051813471502590676
sS'PavedDriveGd'
p1231
F0.010362694300518135
sS'HouseAgeAbnorml'
p1232
F0.082901554404145081
sg23
F2.7564766839378239
sS'FoundationTA'
p1233
F0.8393782383419689
sS'FireplacesMod'
p1234
F0.0051813471502590676
sS'PavedDriveNA'
p1235
F0.062176165803108807
sS'Condition1Gilbert'
p1236
F0.072538860103626937
sS'Exterior2ndCemntBd'
p1237
F0.0051813471502590676
sS'GarageCarsRFn'
p1238
F0.25906735751295334
sS'PavedDriveFa'
p1239
F0.0051813471502590676
sS'Condition1Mitchel'
p1240
F0.036269430051813469
sg33
F0.036269430051813469
sS'BsmtFinType1Mn'
p1241
F0.046632124352331605
sS'BsmtFinSF1Rec'
p1242
F0.093264248704663211
sg36
F1
sS'FoundationFa'
p1243
F0.031088082901554404
sS'MasVnrAreaNone'
p1244
F0.69430051813471505
sS'LotFrontageFV'
p1245
F0.05181347150259067
sS'BsmtFinSF1BLQ'
p1246
F0.12435233160621761
sg40
F461.31088082901556
sS'BsmtQualCBlock'
p1247
F0.54404145077720212
sg42
F9.9792746113989637
sS'Exterior2ndWd Sdng'
p1248
F0.14507772020725387
sg44
F31.005181347150259
sS'MiscFeatureGdWo'
p1249
F0.05181347150259067
sS'MiscFeatureGdPrv'
p1250
F0.046632124352331605
sS'LandSlopeInside'
p1251
F0.77720207253886009
sS'GarageCondEx'
p1252
F0.0051813471502590676
sg49
F5.9792746113989637
sg50
F7451.8238341968909
sS'Condition2Feedr'
p1253
F0.062176165803108807
sS'BsmtQualBrkTil'
p1254
F0.077720207253886009
sg53
F54.663212435233163
sg54
F0
sS'SaleConditionWD'
p1255
F0.91709844559585496
sS'MasVnrTypeCmentBd'
p1256
F0.0051813471502590676
sS'TotRmsAbvGrdEx'
p1257
F0.02072538860103627
sS'BldgTypeFeedr'
p1258
F0.0051813471502590676
sS'WoodDeckSFN'
p1259
F0.056994818652849742
sS'CentralAirFa'
p1260
F0.031088082901554404
sS'GarageTypeNA'
p1261
F0.61658031088082899
sS'MasVnrTypeWd Shng'
p1262
F0.02072538860103627
sS'ElectricalY'
p1263
F0.95336787564766834
sS'GarageTypeEx'
p1264
F0.0051813471502590676
sS'Exterior1stCompShg'
p1265
F1
sS'GarageTypeFa'
p1266
F0.031088082901554404
sS'Condition1Sawyer'
p1267
F0.077720207253886009
sg68
F5.6735751295336785
sS'RoofMatlGable'
p1268
F0.83419689119170981
sS'SaleConditionNew'
p1269
F0.046632124352331605
sS'ExterCondTA'
p1270
F0.772020725388601
sS'CentralAirGd'
p1271
F0.20207253886010362
sS'MasVnrTypeBrkFace'
p1272
F0.0051813471502590676
sS'BsmtQualPConc'
p1273
F0.34196891191709844
sS'ExterCondEx'
p1274
F0.010362694300518135
sS'Condition1OldTown'
p1275
F0.062176165803108807
sS'ElectricalN'
p1276
F0.046632124352331605
sS'LandContourIR1'
p1277
F0.25906735751295334
sS'Condition1CollgCr'
p1278
F0.077720207253886009
sS'GarageCondTA'
p1279
F0.90673575129533679
sS'FireplacesTyp'
p1280
F0.94300518134715028
sS'BsmtFinType1Av'
p1281
F0.12435233160621761
sS'PavedDriveEx'
p1282
F0.0051813471502590676
sS'Exterior2ndPlywood'
p1283
F0.067357512953367879
sS'BsmtFinSF2GLQ'
p1284
F0.0051813471502590676
sS'PavedDriveTA'
p1285
F0.91709844559585496
sg85
F0.54404145077720212
sS'HouseAgeAlloca'
p1286
F0.025906735751295335
sS'Condition2Artery'
p1287
F0.04145077720207254
sS'BsmtFinSF2LwQ'
p1288
F0.036269430051813469
sS'MasVnrTypeHdBoard'
p1289
F0.17616580310880828
sS'MiscFeatureMnPrv'
p1290
F0.15544041450777202
sS'BldgTypeArtery'
p1291
F0.0051813471502590676
sS'LotFrontageRH'
p1292
F0.015544041450777202
sS'BsmtFinSF2BLQ'
p1293
F0.05181347150259067
sS'Condition1Crawfor'
p1294
F0.046632124352331605
sS'RoofMatlHip'
p1295
F0.16062176165803108
sS'LotShapeGrvl'
p1296
F0.02072538860103627
sS'BsmtExposureGd'
p1297
F0.046632124352331605
sS'GarageFinishAttchd'
p1298
F0.51295336787564771
sS'Condition1Timber'
p1299
F0.010362694300518135
sS'GarageTypeTA'
p1300
F0.19689119170984457
sg100
F6.1036269430051817
sS'UtilitiesBnk'
p1301
F0.062176165803108807
sg102
F917.05181347150256
sS'Exterior2ndHdBoard'
p1302
F0.19689119170984457
sS'OverallQualSLvl'
p1303
F0.05181347150259067
sS'WoodDeckSFY'
p1304
F0.92746113989637302
sS'BsmtFinSF1LwQ'
p1305
F0.056994818652849742
sS'HouseStyleTwnhsE'
p1306
F0.072538860103626937
sS'GarageFinishNA'
p1307
F0.062176165803108807
sS'WoodDeckSFP'
p1308
F0.015544041450777202
sS'Exterior2ndWdShing'
p1309
F0.025906735751295335
sS'Exterior2ndMetalSd'
p1310
F0.17616580310880828
sS'Condition2Norm'
p1311
F0.86528497409326421
sg114
F62.50777202072539
sS'SaleConditionConLD'
p1312
F0.0051813471502590676
sS'GarageFinishDetchd'
p1313
F0.38341968911917096
sS'Exterior2ndStucco'
p1314
F0.015544041450777202
sg145
F5.7564766839378239
sg118
F26.191709844559586
sS'HouseStyle2fmCon'
p1315
F0.036269430051813469
sg120
F1.5233160621761659
sS'Condition1BrkSide'
p1316
F0.036269430051813469
sS'NeighborhoodGtl'
p1317
F0.9689119170984456
sS'FoundationGd'
p1318
F0.12953367875647667
sS'BsmtFinType1NA'
p1319
F0.046632124352331605
sS'BsmtFinType1No'
p1320
F0.74611398963730569
sg127
F1272.9896373056995
sS'MasVnrAreaBrkFace'
p1321
F0.20725388601036268
sS'HouseAgePartial'
p1322
F0.046632124352331605
sS'HeatingQCWall'
p1323
F0.0051813471502590676
sS'BsmtExposureTA'
p1324
F0.89119170984455953
sg134
F53.088082901554401
sS'SaleConditionCOD'
p1325
F0.025906735751295335
sS'MiscValNA'
p1326
F0.97927461139896377
sS'FireplacesMin2'
p1327
F0.010362694300518135
sS'FireplacesMin1'
p1328
F0.031088082901554404
sS'BsmtExposureFa'
p1329
F0.015544041450777202
sg76
F1.2124352331606219
sS'BsmtCondGd'
p1330
F0.35751295336787564
sS'BsmtExposureNA'
p1331
F0.046632124352331605
sS'LandSlopeFR2'
p1332
F0.010362694300518135
sS'LandSlopeFR3'
p1333
F0.0051813471502590676
sS'LandSlopeCorner'
p1334
F0.16062176165803108
sg146
F24.808290155440414
sS'MasVnrTypeImStucc'
p1335
F0.010362694300518135
sg148
F10.259067357512953
sS'OverallQualSFoyer'
p1336
F0.056994818652849742
sS'LotFrontageC (all)'
p1337
F0.015544041450777202
sS'OverallQual1Story'
p1338
F0.55440414507772018
sS'Condition1Somerst'
p1339
F0.05181347150259067
sg152
F48.875647668393782
sS'Condition1NridgHt'
p1340
F0.036269430051813469
sS'CentralAirEx'
p1341
F0.38341968911917096
sS'LandSlopeCulDSac'
p1342
F0.046632124352331605
sS'Condition1SWISU'
p1343
F0.025906735751295335
sg157
F2007.8186528497408
sS'BsmtCondTA'
p1344
F0.54404145077720212
sg160
F1029.0051813471503
sg161
F0.44041450777202074
sS'Condition1ClearCr'
p1345
F0.0051813471502590676
sg162
F1.072538860103627
sS'X1stFlrSFSBrkr'
p1346
F0.9015544041450777
sS'BsmtFinSF2NA'
p1347
F0.046632124352331605
sS'GarageFinishBasment'
p1348
F0.0051813471502590676
sS'BsmtCondEx'
p1349
F0.02072538860103627
sS'TotRmsAbvGrdTA'
p1350
F0.59585492227979275
sS'BsmtFinSF2Rec'
p1351
F0.036269430051813469
sS'MiscValShed'
p1352
F0.02072538860103627
sS'MasVnrTypeStucco'
p1353
F0.015544041450777202
sS'Condition1IDOTRR'
p1354
F0.05181347150259067
sS'MasVnrTypeVinylSd'
p1355
F0.30569948186528495
sS'Condition2RRAn'
p1356
F0.015544041450777202
sg175
F40.2279792746114
sS'HouseAgeNormal'
p1357
F0.8393782383419689
sS'MasVnrTypeWd Sdng'
p1358
F0.16062176165803108
sS'LotFrontageRL'
p1359
F0.81347150259067358
sS'LotFrontageRM'
p1360
F0.10362694300518134
sS'GarageCondFa'
p1361
F0.015544041450777202
sS'MiscFeatureNA'
p1362
F0.73056994818652854
sg182
F242.77202072538861
sS'BsmtQualSlab'
p1363
F0.036269430051813469
sS'LandContourReg'
p1364
F0.7409326424870466
sS'BldgTypeNorm'
p1365
F0.98963730569948183
sS'GarageCarsFin'
p1366
F0.18134715025906736
sS'BsmtFinSF1GLQ'
p1367
F0.27979274611398963
sg187
F417.81347150259069
sS'Exterior2ndVinylSd'
p1368
F0.31088082901554404
sS'TotRmsAbvGrdFa'
p1369
F0.025906735751295335
sg190
F1.3626943005181347
sS'OverallQual1.5Fin'
p1370
F0.088082901554404139
sS'HouseStyle1Fam'
p1371
F0.82383419689119175
sS'HouseStyleDuplex'
p1372
F0.067357512953367879
sS'MiscFeatureMnWw'
p1373
F0.015544041450777202
sS'Condition1SawyerW'
p1374
F0.077720207253886009
sS'BsmtFinSF1ALQ'
p1375
F0.21243523316062177
sS'BsmtFinSF1NA'
p1376
F0.046632124352331605
sS'LotShapePave'
p1377
F0.025906735751295335
sS'FireplacesMaj2'
p1378
F0.0051813471502590676
sS'FireplacesMaj1'
p1379
F0.0051813471502590676
sg200
F406.86528497409324
sS'Condition2PosN'
p1380
F0.015544041450777202
sS'Exterior2ndBrkFace'
p1381
F0.05181347150259067
sS'GarageTypePo'
p1382
F0.015544041450777202
sS'ExterCondGd'
p1383
F0.21761658031088082
sS'UtilitiesHLS'
p1384
F0.02072538860103627
sS'Condition1StoneBr'
p1385
F0.015544041450777202
sS'OverallQual1.5Unf'
p1386
F0.015544041450777202
sS'GarageCondGd'
p1387
F0.010362694300518135
sS'TotRmsAbvGrdGd'
p1388
F0.35751295336787564
sS'SaleConditionOth'
p1389
F0.0051813471502590676
sS'GarageTypeGd'
p1390
F0.13471502590673576
sS'BsmtFinSF2Unf'
p1391
F0.82383419689119175
sS'OverallQual2Story'
p1392
F0.21761658031088082
sS'HeatingQCGasW'
p1393
F0.015544041450777202
sS'MasVnrAreaNA'
p1394
F0.0051813471502590676
sS'GarageCarsUnf'
p1395
F0.49740932642487046
sg218
F0
sg219
F0.26424870466321243
sS'CentralAirTA'
p1396
F0.38341968911917096
sS'Condition1Edwards'
p1397
F0.067357512953367879
sS'Condition1NAmes'
p1398
F0.24870466321243523
sS'HeatingQCGasA'
p1399
F0.97927461139896377
sS'MasVnrTypePlywood'
p1400
F0.11917098445595854
sS'BsmtFinSF1Unf'
p1401
F0.18652849740932642
sS'GarageCondNA'
p1402
F0.062176165803108807
sS'FenceNA'
p1403
F1
sS'GarageFinishBuiltIn'
p1404
F0.036269430051813469
sS'OverallQual2.5Unf'
p1405
F0.015544041450777202
sS'LotShapeNA'
p1406
F0.95336787564766834
sS'HouseAgeFamily'
p1407
F0.0051813471502590676
sg231
F690.75129533678762
sa(dp1408
S'GarageCarsNA'
p1409
F0.025974025974025976
sg5
F1
sS'PavedDriveNA'
p1410
F0.025974025974025976
sg8
F109.98701298701299
sS'MasVnrAreaStone'
p1411
F0.19480519480519481
sS'MasVnrTypeMetalSd'
p1412
F0.051948051948051951
sS'BsmtFinType1Gd'
p1413
F0.012987012987012988
sS'Exterior2ndAsbShng'
p1414
F0.012987012987012988
sg16
F60.831168831168831
sS'UtilitiesLvl'
p1415
F0.96103896103896103
sS'BsmtFinSF2NA'
p1416
F0.012987012987012988
sS'HouseAgeAbnorml'
p1417
F0.03896103896103896
sg23
F3.116883116883117
sS'MiscFeatureMnPrv'
p1418
F0.051948051948051951
sS'FoundationTA'
p1419
F0.97402597402597402
sS'FireplacesMod'
p1420
F0.03896103896103896
sS'GarageFinish2Types'
p1421
F0.012987012987012988
sS'Condition1Gilbert'
p1422
F0.03896103896103896
sS'GarageCarsRFn'
p1423
F0.51948051948051943
sS'PavedDriveFa'
p1424
F0.012987012987012988
sS'HouseStyleDuplex'
p1425
F0.090909090909090912
sg33
F0.012987012987012988
sS'BsmtFinType1Mn'
p1426
F0.03896103896103896
sS'BsmtFinSF1Rec'
p1427
F0.03896103896103896
sg36
F1
sS'MasVnrAreaNone'
p1428
F0.36363636363636365
sS'LotFrontageFV'
p1429
F0.07792207792207792
sS'BsmtFinSF1BLQ'
p1430
F0.012987012987012988
sg40
F186.76623376623377
sS'BsmtQualCBlock'
p1431
F0.22077922077922077
sg42
F12.493506493506494
sS'Exterior2ndWd Sdng'
p1432
F0.03896103896103896
sg44
F12.467532467532468
sS'MiscFeatureGdWo'
p1433
F0.012987012987012988
sS'MiscFeatureGdPrv'
p1434
F0.025974025974025976
sS'LandSlopeInside'
p1435
F0.88311688311688308
sS'GarageTypeEx'
p1436
F0.012987012987012988
sg49
F6.8961038961038961
sg50
F9347.5064935064929
sS'Condition2Feedr'
p1437
F0.025974025974025976
sS'MasVnrTypeBrk Cmn'
p1438
F0.012987012987012988
sg53
F33.376623376623378
sg54
F0
sS'SaleConditionWD'
p1439
F0.64935064935064934
sS'WoodDeckSFN'
p1440
F0.012987012987012988
sS'CentralAirFa'
p1441
F0.025974025974025976
sS'GarageTypeNA'
p1442
F0.54545454545454541
sS'ElectricalY'
p1443
F0.94805194805194803
sS'Exterior1stCompShg'
p1444
F0.98701298701298701
sS'GarageCondFa'
p1445
F0.012987012987012988
sS'Condition1Sawyer'
p1446
F0.025974025974025976
sg68
F6.883116883116883
sS'RoofMatlGable'
p1447
F0.76623376623376627
sS'SaleConditionNew'
p1448
F0.27272727272727271
sS'ExterCondTA'
p1449
F0.2857142857142857
sS'CentralAirGd'
p1450
F0.064935064935064929
sS'MasVnrTypeBrkFace'
p1451
F0.03896103896103896
sS'BsmtQualPConc'
p1452
F0.75324675324675328
sS'ExterCondEx'
p1453
F0.051948051948051951
sg76
F0
sS'ElectricalN'
p1454
F0.051948051948051951
sS'LandContourIR1'
p1455
F0.35064935064935066
sS'Condition1CollgCr'
p1456
F0.35064935064935066
sS'GarageTypeTA'
p1457
F0.03896103896103896
sS'FireplacesTyp'
p1458
F0.93506493506493504
sS'LotFrontageRM'
p1459
F0.03896103896103896
sS'Exterior2ndPlywood'
p1460
F0.051948051948051951
sS'PavedDriveTA'
p1461
F0.96103896103896103
sg85
F0.22077922077922077
sS'BsmtQualBrkTil'
p1462
F0.025974025974025976
sS'Condition2Artery'
p1463
F0.012987012987012988
sS'MasVnrTypeHdBoard'
p1464
F0.051948051948051951
sS'BsmtCondGd'
p1465
F0.62337662337662336
sS'FoundationFa'
p1466
F0.012987012987012988
sS'BsmtFinSF2BLQ'
p1467
F0.012987012987012988
sS'MasVnrTypeCmentBd'
p1468
F0.07792207792207792
sS'RoofMatlHip'
p1469
F0.23376623376623376
sS'LotShapeGrvl'
p1470
F0.012987012987012988
sS'BsmtExposureGd'
p1471
F0.03896103896103896
sS'GarageFinishAttchd'
p1472
F0.83116883116883122
sS'Condition1Timber'
p1473
F0.03896103896103896
sS'GarageCondTA'
p1474
F0.96103896103896103
sg100
F7.3116883116883118
sg102
F1525.9480519480519
sS'Exterior2ndHdBoard'
p1475
F0.07792207792207792
sS'X1stFlrSFFuseA'
p1476
F0.025974025974025976
sS'WoodDeckSFY'
p1477
F0.98701298701298701
sS'BsmtFinSF1LwQ'
p1478
F0.025974025974025976
sS'HouseStyleTwnhsE'
p1479
F0.025974025974025976
sS'GarageFinishNA'
p1480
F0.025974025974025976
sS'BsmtExposureFa'
p1481
F0.03896103896103896
sS'Exterior2ndMetalSd'
p1482
F0.051948051948051951
sS'Condition2Norm'
p1483
F0.90909090909090906
sg114
F143.89610389610391
sS'GarageFinishDetchd'
p1484
F0.090909090909090912
sS'GarageCarsFin'
p1485
F0.25974025974025972
sg118
F12.415584415584416
sS'GarageTypeGd'
p1486
F0.40259740259740262
sS'NeighborhoodGtl'
p1487
F0.98701298701298701
sS'FoundationGd'
p1488
F0.012987012987012988
sS'Exterior1stWdShngl'
p1489
F0.012987012987012988
sg146
F5.7142857142857144
sS'BsmtFinType1No'
p1490
F0.61038961038961037
sg127
F1617.8831168831168
sS'MasVnrAreaBrkFace'
p1491
F0.44155844155844154
sS'Exterior2ndCemntBd'
p1492
F0.07792207792207792
sS'BsmtExposureTA'
p1493
F0.92207792207792205
sS'LandSlopeCorner'
p1494
F0.051948051948051951
sg134
F69.038961038961034
sS'SaleConditionCOD'
p1495
F0.064935064935064929
sS'MiscValNA'
p1496
F1
sS'FireplacesMin2'
p1497
F0.025974025974025976
sS'NeighborhoodMod'
p1498
F0.012987012987012988
sS'GarageCondNA'
p1499
F0.025974025974025976
sS'ExterCondGd'
p1500
F0.66233766233766234
sS'LandSlopeFR2'
p1501
F0.03896103896103896
sg145
F5.0649350649350646
sS'HouseAgePartial'
p1502
F0.27272727272727271
sg148
F0
sS'OverallQual1Story'
p1503
F0.89610389610389607
sS'Condition1Somerst'
p1504
F0.19480519480519481
sg152
F14.129870129870129
sS'Condition1NridgHt'
p1505
F0.07792207792207792
sS'CentralAirEx'
p1506
F0.74025974025974028
sS'LandSlopeCulDSac'
p1507
F0.025974025974025976
sg157
F2007.8311688311687
sS'BsmtCondTA'
p1508
F0.23376623376623376
sg160
F1518.2597402597403
sg161
F0.46753246753246752
sg162
F1.1038961038961039
sS'X1stFlrSFSBrkr'
p1509
F0.97402597402597402
sS'Condition1NWAmes'
p1510
F0.064935064935064929
sS'BsmtCondEx'
p1511
F0.14285714285714285
sS'TotRmsAbvGrdTA'
p1512
F0.23376623376623376
sS'BsmtFinSF2Rec'
p1513
F0.012987012987012988
sS'MasVnrTypeStucco'
p1514
F0.012987012987012988
sS'SaleConditionConLI'
p1515
F0.012987012987012988
sS'TotRmsAbvGrdEx'
p1516
F0.12987012987012986
sS'MasVnrTypeVinylSd'
p1517
F0.63636363636363635
sS'Condition2RRAn'
p1518
F0.012987012987012988
sg175
F15.064935064935066
sS'HouseAgeNormal'
p1519
F0.67532467532467533
sS'MasVnrTypeWd Sdng'
p1520
F0.03896103896103896
sS'LotFrontageRL'
p1521
F0.88311688311688308
sS'BsmtFinType1Av'
p1522
F0.33766233766233766
sS'MiscFeatureNA'
p1523
F0.90909090909090906
sg182
F99.623376623376629
sS'LandContourReg'
p1524
F0.64935064935064934
sS'BldgTypeNorm'
p1525
F1
sS'BsmtFinSF1GLQ'
p1526
F0.33766233766233766
sS'Condition2RRAe'
p1527
F0.012987012987012988
sg187
F601.07792207792204
sS'Exterior2ndVinylSd'
p1528
F0.63636363636363635
sg190
F1.8701298701298701
sS'HouseStyle1Fam'
p1529
F0.88311688311688308
sS'Condition1OldTown'
p1530
F0.025974025974025976
sS'Condition1Mitchel'
p1531
F0.012987012987012988
sS'Condition1SawyerW'
p1532
F0.025974025974025976
sS'BsmtFinSF1ALQ'
p1533
F0.025974025974025976
sS'LotShapePave'
p1534
F0.012987012987012988
sS'Exterior2ndBrkComm'
p1535
F0.012987012987012988
sg200
F1325.0519480519481
sS'Condition2PosN'
p1536
F0.025974025974025976
sS'Exterior2ndBrkFace'
p1537
F0.03896103896103896
sS'UtilitiesHLS'
p1538
F0.03896103896103896
sg120
F2.1818181818181817
sS'TotRmsAbvGrdGd'
p1539
F0.63636363636363635
sS'BsmtFinSF2Unf'
p1540
F0.96103896103896103
sS'OverallQual2Story'
p1541
F0.1038961038961039
sS'HeatingQCGasW'
p1542
F0.012987012987012988
sS'GarageCarsUnf'
p1543
F0.19480519480519481
sg218
F0.29870129870129869
sg219
F0.19480519480519481
sS'CentralAirTA'
p1544
F0.16883116883116883
sS'Condition1Edwards'
p1545
F0.025974025974025976
sS'Condition1NAmes'
p1546
F0.11688311688311688
sS'HeatingQCGasA'
p1547
F0.98701298701298701
sS'MasVnrTypePlywood'
p1548
F0.07792207792207792
sS'BsmtFinSF1Unf'
p1549
F0.55844155844155841
sS'FenceNA'
p1550
F1
sS'GarageFinishBuiltIn'
p1551
F0.03896103896103896
sS'LotShapeNA'
p1552
F0.97402597402597402
sS'HouseAgeFamily'
p1553
F0.012987012987012988
sg231
F753.03896103896102
sa(dp1554
S'BsmtFinType1NA'
p1555
F0.0061349693251533744
sS'GarageCarsNA'
p1556
F0.012269938650306749
sg5
F1
sS'BsmtCondNA'
p1557
F0.0061349693251533744
sS'GarageFinish2Types'
p1558
F0.0061349693251533744
sg8
F114.4601226993865
sS'MasVnrAreaStone'
p1559
F0.12883435582822086
sS'BsmtCondFa'
p1560
F0.012269938650306749
sS'SaleConditionCOD'
p1561
F0.042944785276073622
sS'MasVnrAreaBrkCmn'
p1562
F0.0061349693251533744
sS'UtilitiesLow'
p1563
F0.024539877300613498
sS'BsmtFinType1Gd'
p1564
F0.1165644171779141
sS'MasVnrTypeHdBoard'
p1565
F0.12269938650306748
sg16
F51.920245398773005
sS'UtilitiesLvl'
p1566
F0.91411042944785281
sS'X1stFlrSFFuseA'
p1567
F0.049079754601226995
sS'X1stFlrSFFuseF'
p1568
F0.012269938650306749
sS'BsmtFinSF2LwQ'
p1569
F0.018404907975460124
sS'HouseAgeAbnorml'
p1570
F0.061349693251533742
sg23
F3.0429447852760738
sS'MiscFeatureMnPrv'
p1571
F0.055214723926380369
sS'FoundationTA'
p1572
F0.94478527607361962
sS'HouseAgeAlloca'
p1573
F0.012269938650306749
sS'FireplacesMod'
p1574
F0.018404907975460124
sS'Condition1NoRidge'
p1575
F0.061349693251533742
sS'Condition1Gilbert'
p1576
F0.049079754601226995
sS'GarageCarsRFn'
p1577
F0.34355828220858897
sS'PavedDriveFa'
p1578
F0.012269938650306749
sS'Condition1Mitchel'
p1579
F0.049079754601226995
sg33
F0.049079754601226995
sS'BsmtFinType1Mn'
p1580
F0.079754601226993863
sS'BsmtFinSF1Rec'
p1581
F0.085889570552147243
sg36
F1
sS'MasVnrAreaNone'
p1582
F0.42944785276073622
sS'LotFrontageFV'
p1583
F0.024539877300613498
sS'BsmtFinSF1BLQ'
p1584
F0.09202453987730061
sg40
F542.30061349693256
sS'BsmtQualCBlock'
p1585
F0.42331288343558282
sg42
F22.736196319018404
sS'Exterior2ndWd Sdng'
p1586
F0.10429447852760736
sg44
F24.122699386503069
sS'MiscFeatureGdWo'
p1587
F0.030674846625766871
sS'MiscFeatureGdPrv'
p1588
F0.036809815950920248
sS'LandSlopeInside'
p1589
F0.66257668711656437
sS'GarageTypeEx'
p1590
F0.036809815950920248
sg49
F7.0061349693251538
sg50
F11987.920245398773
sS'Condition2Feedr'
p1591
F0.055214723926380369
sS'BsmtQualBrkTil'
p1592
F0.055214723926380369
sg53
F44.263803680981596
sg54
F0
sS'SaleConditionWD'
p1593
F0.81595092024539873
sS'MasVnrTypeCmentBd'
p1594
F0.030674846625766871
sS'SaleConditionConLD'
p1595
F0.0061349693251533744
sS'WoodDeckSFN'
p1596
F0.0061349693251533744
sS'CentralAirFa'
p1597
F0.024539877300613498
sS'GarageTypeNA'
p1598
F0.28834355828220859
sS'LotShapeGrvl'
p1599
F0.018404907975460124
sS'ElectricalY'
p1600
F0.96319018404907975
sS'Condition1NridgHt'
p1601
F0.1165644171779141
sS'GarageCondFa'
p1602
F0.024539877300613498
sS'Condition1Sawyer'
p1603
F0.067484662576687116
sg68
F6.6625766871165641
sS'RoofMatlGable'
p1604
F0.69938650306748462
sS'SaleConditionNew'
p1605
F0.12883435582822086
sS'ExterCondTA'
p1606
F0.51533742331288346
sS'CentralAirGd'
p1607
F0.14723926380368099
sS'MasVnrTypeBrkFace'
p1608
F0.030674846625766871
sS'BsmtQualPConc'
p1609
F0.51533742331288346
sS'ExterCondEx'
p1610
F0.079754601226993863
sS'ExterCondGd'
p1611
F0.40490797546012269
sS'ElectricalN'
p1612
F0.036809815950920248
sS'LandContourIR1'
p1613
F0.5214723926380368
sS'LandContourIR2'
p1614
F0.036809815950920248
sS'Condition1CollgCr'
p1615
F0.09815950920245399
sS'GarageTypeTA'
p1616
F0.2822085889570552
sS'FireplacesTyp'
p1617
F0.93865030674846628
sS'LotFrontageRM'
p1618
F0.042944785276073622
sS'Exterior2ndPlywood'
p1619
F0.10429447852760736
sS'GarageFinishCarPort'
p1620
F0.0061349693251533744
sS'PavedDriveTA'
p1621
F0.97546012269938653
sg85
F0.41717791411042943
sS'MasVnrTypeAsphShn'
p1622
F0.0061349693251533744
sS'Condition2Artery'
p1623
F0.012269938650306749
sS'MasVnrTypeMetalSd'
p1624
F0.085889570552147243
sS'BsmtCondGd'
p1625
F0.46625766871165641
sS'FoundationFa'
p1626
F0.0061349693251533744
sS'LotFrontageRH'
p1627
F0.0061349693251533744
sS'BsmtFinSF2BLQ'
p1628
F0.0061349693251533744
sS'Condition1Crawfor'
p1629
F0.024539877300613498
sS'RoofMatlHip'
p1630
F0.28834355828220859
sS'MasVnrTypeWd Shng'
p1631
F0.018404907975460124
sS'BsmtExposureGd'
p1632
F0.049079754601226995
sS'GarageFinishAttchd'
p1633
F0.71779141104294475
sS'Condition1Timber'
p1634
F0.049079754601226995
sS'GarageCondTA'
p1635
F0.95705521472392641
sg100
F6.3926380368098163
sS'UtilitiesBnk'
p1636
F0.018404907975460124
sg102
F1266.0858895705521
sS'Exterior2ndWdShing'
p1637
F0.018404907975460124
sS'OverallQualSLvl'
p1638
F0.049079754601226995
sS'NeighborhoodSev'
p1639
F0.0061349693251533744
sS'WoodDeckSFY'
p1640
F0.98773006134969321
sS'BsmtFinSF1LwQ'
p1641
F0.049079754601226995
sS'HouseStyleTwnhsE'
p1642
F0.0061349693251533744
sS'GarageFinishNA'
p1643
F0.012269938650306749
sS'BsmtQualWood'
p1644
F0.0061349693251533744
sS'BsmtFinSF2NA'
p1645
F0.0061349693251533744
sS'WoodDeckSFP'
p1646
F0.0061349693251533744
sS'Exterior2ndHdBoard'
p1647
F0.12269938650306748
sS'MasVnrTypeOther'
p1648
F0.0061349693251533744
sS'HouseStyle2fmCon'
p1649
F0.012269938650306749
sS'Exterior2ndMetalSd'
p1650
F0.09815950920245399
sS'Condition2Norm'
p1651
F0.87116564417177911
sg114
F151.15337423312883
sS'GarageFinishDetchd'
p1652
F0.13496932515337423
sS'Exterior2ndStucco'
p1653
F0.0061349693251533744
sS'GarageCarsFin'
p1654
F0.32515337423312884
sg118
F18.773006134969325
sS'PavedDriveNA'
p1655
F0.012269938650306749
sS'GarageTypeGd'
p1656
F0.34355828220858897
sS'Condition1BrkSide'
p1657
F0.0061349693251533744
sS'NeighborhoodGtl'
p1658
F0.95092024539877296
sS'FoundationGd'
p1659
F0.049079754601226995
sS'MiscValOthr'
p1660
F0.0061349693251533744
sS'HouseAgePartial'
p1661
F0.13496932515337423
sS'BsmtFinType1No'
p1662
F0.60122699386503065
sg127
F1688.0920245398772
sS'MasVnrAreaBrkFace'
p1663
F0.42944785276073622
sS'Condition2RRNn'
p1664
F0.0061349693251533744
sS'Exterior2ndCemntBd'
p1665
F0.030674846625766871
sS'BsmtExposureTA'
p1666
F0.90797546012269936
sS'LandSlopeCorner'
p1667
F0.23312883435582821
sg134
F65.165644171779135
sS'MiscValNA'
p1668
F0.95705521472392641
sS'FireplacesMin2'
p1669
F0.036809815950920248
sS'Exterior1stWdShake'
p1670
F0.0061349693251533744
sS'NeighborhoodMod'
p1671
F0.042944785276073622
sS'FireplacesMin1'
p1672
F0.0061349693251533744
sS'BsmtExposureFa'
p1673
F0.036809815950920248
sg76
F4.6625766871165641
sS'BsmtExposureNA'
p1674
F0.0061349693251533744
sS'LandSlopeFR2'
p1675
F0.042944785276073622
sg145
F5.3926380368098163
sg146
F18
sS'MasVnrTypeImStucc'
p1676
F0.012269938650306749
sg148
F33.742331288343557
sS'Exterior2ndImStucc'
p1677
F0.0061349693251533744
sS'OverallQualSFoyer'
p1678
F0.024539877300613498
sS'OverallQual1Story'
p1679
F0.54601226993865026
sS'Condition1Somerst'
p1680
F0.049079754601226995
sS'Condition1Veenker'
p1681
F0.0061349693251533744
sg152
F19.668711656441719
sS'Exterior1stCompShg'
p1682
F0.99386503067484666
sS'CentralAirEx'
p1683
F0.57668711656441718
sS'LandSlopeCulDSac'
p1684
F0.061349693251533742
sS'Condition1SWISU'
p1685
F0.0061349693251533744
sg157
F2007.9447852760736
sS'BsmtCondTA'
p1686
F0.33742331288343558
sg160
F1351.9141104294479
sg161
F0.80368098159509205
sS'Condition1ClearCr'
p1687
F0.012269938650306749
sg162
F1.0368098159509203
sS'X1stFlrSFSBrkr'
p1688
F0.93865030674846628
sS'Condition1NWAmes'
p1689
F0.1165644171779141
sS'GarageFinishBasment'
p1690
F0.018404907975460124
sS'BsmtCondEx'
p1691
F0.17791411042944785
sS'TotRmsAbvGrdTA'
p1692
F0.3987730061349693
sS'BldgTypeRRAn'
p1693
F0.0061349693251533744
sS'BsmtFinSF2Rec'
p1694
F0.012269938650306749
sS'MiscValShed'
p1695
F0.036809815950920248
sS'MasVnrTypeStucco'
p1696
F0.0061349693251533744
sS'SaleConditionConLI'
p1697
F0.0061349693251533744
sS'TotRmsAbvGrdEx'
p1698
F0.14723926380368099
sS'MasVnrTypeVinylSd'
p1699
F0.46012269938650308
sS'Condition2RRAn'
p1700
F0.024539877300613498
sg175
F27.05521472392638
sS'HouseAgeNormal'
p1701
F0.76073619631901845
sS'MasVnrTypeWd Sdng'
p1702
F0.09815950920245399
sS'LotFrontageRL'
p1703
F0.92638036809815949
sS'BsmtFinType1Av'
p1704
F0.19631901840490798
sS'GarageTypeFa'
p1705
F0.030674846625766871
sS'MiscFeatureNA'
p1706
F0.87116564417177911
sg182
F331.51533742331287
sS'LandContourReg'
p1707
F0.43558282208588955
sS'BldgTypeNorm'
p1708
F0.99386503067484666
sS'BsmtFinSF1GLQ'
p1709
F0.33742331288343558
sg187
F566.34355828220862
sS'Exterior2ndVinylSd'
p1710
F0.4785276073619632
sS'TotRmsAbvGrdFa'
p1711
F0.036809815950920248
sg190
F1.6993865030674846
sS'OverallQual1.5Fin'
p1712
F0.079754601226993863
sS'HouseStyle1Fam'
p1713
F0.93865030674846628
sS'Condition1OldTown'
p1714
F0.042944785276073622
sS'HouseStyleDuplex'
p1715
F0.042944785276073622
sS'MiscFeatureMnWw'
p1716
F0.0061349693251533744
sS'Condition2PosA'
p1717
F0.012269938650306749
sS'Condition1SawyerW'
p1718
F0.030674846625766871
sS'BsmtFinSF1ALQ'
p1719
F0.1411042944785276
sS'BsmtFinSF1NA'
p1720
F0.0061349693251533744
sS'BsmtFinSF2ALQ'
p1721
F0.018404907975460124
sS'LotShapePave'
p1722
F0.0061349693251533744
sg200
F704.11656441717787
sS'Condition2PosN'
p1723
F0.018404907975460124
sS'Exterior2ndBrkFace'
p1724
F0.030674846625766871
sS'GarageTypePo'
p1725
F0.018404907975460124
sS'UtilitiesHLS'
p1726
F0.042944785276073622
sS'Condition1StoneBr'
p1727
F0.024539877300613498
sg120
F2.0920245398773005
sS'TotRmsAbvGrdGd'
p1728
F0.41717791411042943
sS'GarageCondGd'
p1729
F0.0061349693251533744
sS'LandContourIR3'
p1730
F0.0061349693251533744
sS'BsmtFinSF2Unf'
p1731
F0.93865030674846628
sS'OverallQual2Story'
p1732
F0.29447852760736198
sS'RoofMatlMansard'
p1733
F0.012269938650306749
sS'MasVnrAreaNA'
p1734
F0.0061349693251533744
sS'GarageCarsUnf'
p1735
F0.31901840490797545
sS'HeatingQCGrav'
p1736
F0.0061349693251533744
sg218
F7.4785276073619631
sg219
F0.44785276073619634
sS'CentralAirTA'
p1737
F0.25153374233128833
sS'Condition1Edwards'
p1738
F0.061349693251533742
sS'Condition1NAmes'
p1739
F0.12883435582822086
sS'HeatingQCGasA'
p1740
F0.99386503067484666
sS'MasVnrTypePlywood'
p1741
F0.12269938650306748
sS'BsmtFinSF1Unf'
p1742
F0.28834355828220859
sS'GarageCondNA'
p1743
F0.012269938650306749
sS'FenceNA'
p1744
F1
sS'GarageFinishBuiltIn'
p1745
F0.10429447852760736
sS'OverallQual2.5Unf'
p1746
F0.0061349693251533744
sS'LotShapeNA'
p1747
F0.97546012269938653
sS'HouseAgeFamily'
p1748
F0.030674846625766871
sg231
F704.01226993865032
sa(dp1749
S'MasVnrAreaBrkCmn'
p1750
F0.25
sg5
F1
sg8
F262.5
sS'MasVnrAreaStone'
p1751
F0.25
sS'UtilitiesLow'
p1752
F0.75
sg16
F36.5
sg23
F3
sS'FoundationTA'
p1753
F1
sS'GarageCarsRFn'
p1754
F0.25
sg33
F0.25
sS'BsmtFinSF1Rec'
p1755
F0.25
sg36
F1
sS'MasVnrAreaNone'
p1756
F0.5
sg40
F1100.25
sS'BsmtQualCBlock'
p1757
F1
sg42
F0
sS'Exterior2ndWd Sdng'
p1758
F0.25
sg44
F43
sS'LandSlopeInside'
p1759
F0.25
sg49
F6.75
sg50
F163513.5
sg53
F70
sg54
F0
sS'SaleConditionWD'
p1760
F1
sS'ElectricalY'
p1761
F1
sS'Exterior1stCompShg'
p1762
F1
sg68
F6.25
sS'RoofMatlGable'
p1763
F0.75
sS'ExterCondTA'
p1764
F0.75
sS'GarageFinishAttchd'
p1765
F1
sS'MasVnrTypeBrkFace'
p1766
F0.25
sS'BsmtFinSF1ALQ'
p1767
F0.5
sg76
F0
sS'LandContourIR1'
p1768
F0.25
sS'LandContourIR2'
p1769
F0.5
sS'LandContourIR3'
p1770
F0.25
sS'GarageCondTA'
p1771
F1
sS'FireplacesTyp'
p1772
F1
sS'Exterior2ndPlywood'
p1773
F0.5
sS'PavedDriveTA'
p1774
F1
sg85
F1.25
sS'MasVnrTypeHdBoard'
p1775
F0.25
sS'BsmtCondGd'
p1776
F0.75
sS'BsmtFinSF2BLQ'
p1777
F0.25
sS'RoofMatlHip'
p1778
F0.25
sS'CentralAirGd'
p1779
F0.25
sS'Condition1Timber'
p1780
F0.5
sS'GarageTypeTA'
p1781
F0.5
sg100
F6.5
sg102
F1680.5
sS'NeighborhoodSev'
p1782
F1
sS'WoodDeckSFY'
p1783
F1
sS'Condition2Norm'
p1784
F1
sg114
F205.75
sS'GarageCarsFin'
p1785
F0.5
sg118
F23.25
sS'HouseStyle2fmCon'
p1786
F0.25
sg120
F2
sg127
F1947.5
sS'BsmtExposureTA'
p1787
F1
sS'LandSlopeCorner'
p1788
F0.25
sg134
F37.5
sS'MiscValNA'
p1789
F0.5
sS'ExterCondGd'
p1790
F0.25
sg145
F5.75
sg146
F0
sg148
F300
sS'OverallQual1Story'
p1791
F0.5
sg152
F241.75
sS'CentralAirEx'
p1792
F0.25
sS'LandSlopeCulDSac'
p1793
F0.5
sg157
F2007.75
sS'BsmtCondTA'
p1794
F0.25
sg160
F1730.75
sg161
F2
sS'Condition1ClearCr'
p1795
F0.5
sg162
F1
sS'X1stFlrSFSBrkr'
p1796
F1
sg218
F0
sS'TotRmsAbvGrdTA'
p1797
F0.5
sS'BsmtFinSF2Rec'
p1798
F0.25
sS'MiscValShed'
p1799
F0.5
sg175
F43
sS'HouseAgeNormal'
p1800
F1
sS'LotFrontageRL'
p1801
F1
sS'MiscFeatureNA'
p1802
F1
sg182
F216.75
sS'BldgTypeNorm'
p1803
F1
sS'BsmtFinSF1GLQ'
p1804
F0.25
sg187
F542.5
sg190
F2
sS'OverallQual1.5Fin'
p1805
F0.5
sS'HouseStyle1Fam'
p1806
F0.75
sg200
F338.5
sS'Exterior2ndBrkFace'
p1807
F0.25
sS'UtilitiesHLS'
p1808
F0.25
sS'GarageTypeGd'
p1809
F0.5
sS'TotRmsAbvGrdGd'
p1810
F0.5
sS'BsmtFinSF2Unf'
p1811
F0.5
sS'HeatingQCGasW'
p1812
F0.25
sS'GarageCarsUnf'
p1813
F0.25
sS'BsmtFinType1Gd'
p1814
F1
sg219
F0
sS'CentralAirTA'
p1815
F0.5
sS'HeatingQCGasA'
p1816
F0.75
sS'MasVnrTypePlywood'
p1817
F0.5
sS'FenceNA'
p1818
F1
sS'LotShapeNA'
p1819
F1
sg231
F401.75
sa(dp1820
S'MasVnrAreaBrkCmn'
p1821
F0.012048192771084338
sS'GarageCarsNA'
p1822
F0.076305220883534142
sg5
F1
sS'PavedDriveGd'
p1823
F0.016064257028112448
sS'OverallQualSFoyer'
p1824
F0.032128514056224897
sg8
F74.622489959839356
sS'MasVnrAreaStone'
p1825
F0.028112449799196786
sS'BsmtCondFa'
p1826
F0.028112449799196786
sS'MasVnrTypeMetalSd'
p1827
F0.15261044176706828
sS'SaleConditionCon'
p1828
F0.0040160642570281121
sS'HouseStyleTwnhsE'
p1829
F0.0040160642570281121
sS'BsmtFinType1Gd'
p1830
F0.040160642570281124
sS'Exterior2ndAsbShng'
p1831
F0.016064257028112448
sg16
F36.835341365461851
sS'X1stFlrSFMix'
p1832
F0.0040160642570281121
sS'UtilitiesLvl'
p1833
F0.91566265060240959
sS'X1stFlrSFFuseA'
p1834
F0.092369477911646583
sS'X1stFlrSFFuseF'
p1835
F0.040160642570281124
sS'MasVnrTypeStone'
p1836
F0.0040160642570281121
sS'RoofMatlGambrel'
p1837
F0.016064257028112448
sS'BsmtCondNA'
p1838
F0.040160642570281124
sS'BsmtExposurePo'
p1839
F0.0040160642570281121
sS'HouseAgeAbnorml'
p1840
F0.080321285140562249
sg23
F2.8514056224899598
sS'MiscFeatureMnPrv'
p1841
F0.18473895582329317
sS'MasVnrTypeAsbShng'
p1842
F0.020080321285140562
sS'FoundationTA'
p1843
F0.85140562248995988
sS'FireplacesMod'
p1844
F0.0040160642570281121
sS'PavedDriveNA'
p1845
F0.076305220883534142
sS'Condition1Gilbert'
p1846
F0.084337349397590355
sS'BsmtQualStone'
p1847
F0.016064257028112448
sS'GarageCarsRFn'
p1848
F0.27309236947791166
sS'PavedDriveFa'
p1849
F0.03614457831325301
sS'HouseStyleDuplex'
p1850
F0.03614457831325301
sg33
F0.076305220883534142
sS'BsmtFinType1Mn'
p1851
F0.080321285140562249
sS'BsmtFinSF1Rec'
p1852
F0.15261044176706828
sg36
F1
sS'MasVnrAreaNone'
p1853
F0.72289156626506024
sS'BsmtFinSF2Rec'
p1854
F0.040160642570281124
sS'LotFrontageFV'
p1855
F0.03614457831325301
sS'BsmtFinSF1BLQ'
p1856
F0.080321285140562249
sg40
F340.54618473895584
sS'BsmtQualCBlock'
p1857
F0.45381526104417669
sg42
F10.208835341365463
sS'Exterior2ndWd Sdng'
p1858
F0.14056224899598393
sg44
F32.028112449799195
sS'MiscFeatureGdWo'
p1859
F0.052208835341365459
sS'MiscFeatureGdPrv'
p1860
F0.048192771084337352
sS'LandSlopeInside'
p1861
F0.75502008032128509
sS'Exterior1stTar&Grv'
p1862
F0.0040160642570281121
sg49
F6.2771084337349397
sg50
F8817.2088353413656
sS'Condition2Feedr'
p1863
F0.088353413654618476
sS'BsmtQualBrkTil'
p1864
F0.12449799196787148
sg53
F46.987951807228917
sg54
F0
sS'SaleConditionWD'
p1865
F0.89959839357429716
sS'MasVnrTypeCmentBd'
p1866
F0.016064257028112448
sS'SaleConditionConLD'
p1867
F0.0040160642570281121
sS'BldgTypeFeedr'
p1868
F0.0080321285140562242
sS'RoofMatlHip'
p1869
F0.15662650602409639
sS'CentralAirFa'
p1870
F0.032128514056224897
sS'GarageTypeNA'
p1871
F0.63453815261044177
sS'BldgTypeRRNn'
p1872
F0.0040160642570281121
sS'LotShapeGrvl'
p1873
F0.052208835341365459
sS'ElectricalY'
p1874
F0.90763052208835338
sS'GarageCondEx'
p1875
F0.0040160642570281121
sS'Condition2RRNe'
p1876
F0.0080321285140562242
sS'Exterior1stCompShg'
p1877
F0.99196787148594379
sS'GarageCondFa'
p1878
F0.044176706827309238
sS'Condition1Sawyer'
p1879
F0.072289156626506021
sg68
F5.5983935742971891
sS'RoofMatlGable'
p1880
F0.82329317269076308
sS'GarageFinishCarPort'
p1881
F0.0080321285140562242
sS'ExterCondTA'
p1882
F0.75100401606425704
sS'CentralAirGd'
p1883
F0.19277108433734941
sS'MasVnrTypeBrkFace'
p1884
F0.028112449799196786
sS'BsmtQualPConc'
p1885
F0.37751004016064255
sS'BsmtFinSF1ALQ'
p1886
F0.12449799196787148
sg76
F4.8554216867469879
sS'ElectricalN'
p1887
F0.092369477911646583
sS'LandContourIR1'
p1888
F0.27309236947791166
sS'LandContourIR2'
p1889
F0.012048192771084338
sS'Condition1CollgCr'
p1890
F0.14056224899598393
sS'GarageTypeTA'
p1891
F0.15662650602409639
sS'FireplacesTyp'
p1892
F0.95582329317269077
sS'LotFrontageRM'
p1893
F0.11244979919678715
sS'PavedDriveEx'
p1894
F0.0040160642570281121
sS'Exterior2ndPlywood'
p1895
F0.044176706827309238
sS'BsmtFinSF2GLQ'
p1896
F0.012048192771084338
sS'PavedDriveTA'
p1897
F0.84337349397590367
sg85
F0.3493975903614458
sS'HouseAgeAlloca'
p1898
F0.0040160642570281121
sS'Condition2Artery'
p1899
F0.060240963855421686
sS'MasVnrTypeHdBoard'
p1900
F0.1606425702811245
sS'BsmtCondGd'
p1901
F0.36546184738955823
sS'FoundationFa'
p1902
F0.03614457831325301
sS'LotFrontageRH'
p1903
F0.020080321285140562
sS'BsmtFinSF2BLQ'
p1904
F0.024096385542168676
sS'Condition1Crawfor'
p1905
F0.012048192771084338
sS'WoodDeckSFN'
p1906
F0.11646586345381527
sS'MasVnrTypeWd Shng'
p1907
F0.040160642570281124
sS'BsmtExposureGd'
p1908
F0.044176706827309238
sS'BsmtQualSlab'
p1909
F0.028112449799196786
sS'GarageFinishAttchd'
p1910
F0.48995983935742971
sS'Condition1Timber'
p1911
F0.0080321285140562242
sS'GarageCondTA'
p1912
F0.85943775100401609
sg100
F6.5261044176706831
sS'UtilitiesBnk'
p1913
F0.056224899598393573
sg102
F863.58232931726911
sS'Exterior2ndHdBoard'
p1914
F0.17269076305220885
sS'FoundationEx'
p1915
F0.0080321285140562242
sS'OverallQualSLvl'
p1916
F0.048192771084337352
sS'WoodDeckSFY'
p1917
F0.84738955823293172
sS'BsmtFinSF1LwQ'
p1918
F0.072289156626506021
sS'SaleConditionCWD'
p1919
F0.0080321285140562242
sS'GarageFinishNA'
p1920
F0.076305220883534142
sS'BsmtFinSF2NA'
p1921
F0.040160642570281124
sS'WoodDeckSFP'
p1922
F0.03614457831325301
sS'Exterior2ndWdShing'
p1923
F0.028112449799196786
sS'Exterior2ndMetalSd'
p1924
F0.1606425702811245
sS'Condition2Norm'
p1925
F0.81526104417670686
sg114
F55.140562248995984
sS'GarageTypePo'
p1926
F0.012048192771084338
sS'GarageFinishDetchd'
p1927
F0.3534136546184739
sS'X1stFlrSFNA'
p1928
F0.0040160642570281121
sS'Exterior2ndStucco'
p1929
F0.028112449799196786
sS'LandSlopeCorner'
p1930
F0.18473895582329317
sg118
F26.871485943775099
sS'HouseStyle2fmCon'
p1931
F0.0040160642570281121
sg120
F1.5341365461847389
sS'BsmtFinSF2LwQ'
p1932
F0.020080321285140562
sS'NeighborhoodGtl'
p1933
F0.95983935742971882
sS'FoundationGd'
p1934
F0.10441767068273092
sS'Exterior1stWdShngl'
p1935
F0.0040160642570281121
sS'HouseAgePartial'
p1936
F0.048192771084337352
sS'BsmtFinType1No'
p1937
F0.73493975903614461
sg127
F1354.1204819277109
sS'MasVnrAreaBrkFace'
p1938
F0.23293172690763053
sS'Condition2RRNn'
p1939
F0.0080321285140562242
sS'Exterior2ndCemntBd'
p1940
F0.016064257028112448
sS'HeatingQCWall'
p1941
F0.012048192771084338
sS'BsmtExposureTA'
p1942
F0.85943775100401609
sg134
F58.610441767068274
sS'SaleConditionCOD'
p1943
F0.020080321285140562
sS'MiscValNA'
p1944
F0.94779116465863456
sS'FireplacesMin2'
p1945
F0.020080321285140562
sS'FireplacesMin1'
p1946
F0.012048192771084338
sS'BsmtExposureFa'
p1947
F0.052208835341365459
sS'ExterCondGd'
p1948
F0.21686746987951808
sS'UtilitiesLow'
p1949
F0.0080321285140562242
sS'BsmtExposureNA'
p1950
F0.040160642570281124
sS'LandSlopeFR2'
p1951
F0.028112449799196786
sg145
F5.6345381526104417
sg146
F27.734939759036145
sS'MasVnrTypeImStucc'
p1952
F0.0040160642570281121
sS'X1stFlrSFFuseP'
p1953
F0.0040160642570281121
sg148
F43.710843373493979
sS'LotFrontageC (all)'
p1954
F0.020080321285140562
sS'OverallQual1Story'
p1955
F0.43373493975903615
sS'TotRmsAbvGrdEx'
p1956
F0.020080321285140562
sS'Condition1Somerst'
p1957
F0.03614457831325301
sS'Condition1Veenker'
p1958
F0.0040160642570281121
sg152
F42.377510040160644
sS'Condition1NridgHt'
p1959
F0.0080321285140562242
sS'GarageFinish2Types'
p1960
F0.0040160642570281121
sS'CentralAirEx'
p1961
F0.45783132530120479
sS'LandSlopeCulDSac'
p1962
F0.032128514056224897
sS'Condition1SWISU'
p1963
F0.020080321285140562
sg157
F2007.9236947791164
sS'HouseAgeAdjLand'
p1964
F0.0080321285140562242
sS'BsmtCondTA'
p1965
F0.55020080321285136
sg160
F983.7429718875502
sg161
F0.41767068273092367
sS'Condition1ClearCr'
p1966
F0.0040160642570281121
sg162
F1.0441767068273093
sS'X1stFlrSFSBrkr'
p1967
F0.85542168674698793
sS'ExterCondFa'
p1968
F0.016064257028112448
sS'SaleConditionConLw'
p1969
F0.0080321285140562242
sS'BsmtFinType1NA'
p1970
F0.040160642570281124
sS'GarageFinishBasment'
p1971
F0.016064257028112448
sS'GarageCarsFin'
p1972
F0.14457831325301204
sS'TotRmsAbvGrdTA'
p1973
F0.61445783132530118
sS'NeighborhoodMod'
p1974
F0.040160642570281124
sS'MiscValShed'
p1975
F0.052208835341365459
sS'MasVnrTypeStucco'
p1976
F0.024096385542168676
sS'SaleConditionConLI'
p1977
F0.0040160642570281121
sS'Condition1IDOTRR'
p1978
F0.048192771084337352
sS'MasVnrTypeVinylSd'
p1979
F0.36144578313253012
sS'Condition2RRAn'
p1980
F0.012048192771084338
sg175
F42.991967871485947
sS'HouseAgeNormal'
p1981
F0.84738955823293172
sS'MasVnrTypeWd Sdng'
p1982
F0.13253012048192772
sS'LotFrontageRL'
p1983
F0.8112449799196787
sS'BsmtFinType1Av'
p1984
F0.10441767068273092
sS'GarageTypeFa'
p1985
F0.016064257028112448
sS'MiscFeatureNA'
p1986
F0.70682730923694781
sg182
F365.52208835341366
sS'OverallQual2.5Fin'
p1987
F0.0040160642570281121
sS'SaleConditionOth'
p1988
F0.0040160642570281121
sS'LandContourReg'
p1989
F0.71485943775100402
sS'BldgTypeNorm'
p1990
F0.98795180722891562
sS'BsmtFinSF1GLQ'
p1991
F0.20481927710843373
sS'Condition2RRAe'
p1992
F0.0080321285140562242
sg187
F403.24899598393574
sS'Exterior2ndVinylSd'
p1993
F0.35742971887550201
sS'TotRmsAbvGrdFa'
p1994
F0.032128514056224897
sg190
F1.4216867469879517
sS'OverallQual1.5Fin'
p1995
F0.14457831325301204
sS'HouseStyle1Fam'
p1996
F0.95582329317269077
sS'Condition1OldTown'
p1997
F0.072289156626506021
sS'Condition1Mitchel'
p1998
F0.028112449799196786
sS'MiscFeatureMnWw'
p1999
F0.0080321285140562242
sS'Condition1SawyerW'
p2000
F0.060240963855421686
sS'BsmtCondEx'
p2001
F0.016064257028112448
sS'ExterCondEx'
p2002
F0.016064257028112448
sS'BsmtFinSF1NA'
p2003
F0.040160642570281124
sS'BsmtFinSF2ALQ'
p2004
F0.020080321285140562
sS'LotShapePave'
p2005
F0.016064257028112448
sS'FireplacesMaj2'
p2006
F0.0040160642570281121
sS'FireplacesMaj1'
p2007
F0.0040160642570281121
sg200
F480.65863453815263
sS'PavedDrivePo'
p2008
F0.024096385542168676
sS'Exterior2ndBrkFace'
p2009
F0.03614457831325301
sS'GarageCondPo'
p2010
F0.0080321285140562242
sS'UtilitiesHLS'
p2011
F0.020080321285140562
sS'OverallQual1.5Unf'
p2012
F0.0080321285140562242
sS'GarageTypeGd'
p2013
F0.18072289156626506
sS'TotRmsAbvGrdGd'
p2014
F0.33333333333333331
sS'Condition1BrkSide'
p2015
F0.032128514056224897
sS'GarageCondGd'
p2016
F0.0080321285140562242
sS'BsmtFinSF2Unf'
p2017
F0.84337349397590367
sS'OverallQual2Story'
p2018
F0.32128514056224899
sS'HeatingQCGasW'
p2019
F0.012048192771084338
sS'SaleConditionNew'
p2020
F0.048192771084337352
sS'MasVnrAreaNA'
p2021
F0.0040160642570281121
sS'GarageCarsUnf'
p2022
F0.50602409638554213
sS'HeatingQCGrav'
p2023
F0.0080321285140562242
sS'RoofMatlMansard'
p2024
F0.0040160642570281121
sg218
F4.618473895582329
sg219
F0.40562248995983935
sS'CentralAirTA'
p2025
F0.31726907630522089
sS'Condition1Edwards'
p2026
F0.12449799196787148
sS'Condition1NAmes'
p2027
F0.2289156626506024
sS'Condition1NWAmes'
p2028
F0.016064257028112448
sS'HeatingQCGasA'
p2029
F0.96787148594377514
sS'MasVnrTypePlywood'
p2030
F0.056224899598393573
sS'BsmtFinSF1Unf'
p2031
F0.3253012048192771
sS'GarageCondNA'
p2032
F0.076305220883534142
sS'FenceNA'
p2033
F1
sS'GarageFinishBuiltIn'
p2034
F0.052208835341365459
sS'OverallQual2.5Unf'
p2035
F0.0080321285140562242
sS'LotShapeNA'
p2036
F0.93172690763052213
sS'HouseAgeFamily'
p2037
F0.012048192771084338
sg231
F718.42971887550198
sa(dp2038
S'GarageCarsNA'
p2039
F0.1038961038961039
sg5
F1
sS'PavedDriveNA'
p2040
F0.1038961038961039
sg8
F81.922077922077918
sS'MasVnrAreaStone'
p2041
F0.11688311688311688
sS'BsmtCondFa'
p2042
F0.025974025974025976
sS'MasVnrTypeMetalSd'
p2043
F0.20779220779220781
sS'UtilitiesLow'
p2044
F0.012987012987012988
sS'BsmtFinType1Gd'
p2045
F0.11688311688311688
sS'Exterior2ndAsbShng'
p2046
F0.025974025974025976
sg16
F53.935064935064936
sS'UtilitiesLvl'
p2047
F0.8571428571428571
sS'X1stFlrSFFuseA'
p2048
F0.03896103896103896
sS'X1stFlrSFFuseF'
p2049
F0.012987012987012988
sS'BsmtFinSF2LwQ'
p2050
F0.025974025974025976
sS'HouseAgeAbnorml'
p2051
F0.090909090909090912
sg23
F1.974025974025974
sS'MiscFeatureMnPrv'
p2052
F0.051948051948051951
sS'FoundationTA'
p2053
F0.93506493506493504
sS'OverallQualSFoyer'
p2054
F0.025974025974025976
sS'BsmtCondEx'
p2055
F0.15584415584415584
sS'GarageCarsRFn'
p2056
F0.31168831168831168
sS'PavedDriveFa'
p2057
F0.012987012987012988
sS'Condition1Mitchel'
p2058
F0.051948051948051951
sg33
F0.07792207792207792
sS'BsmtFinType1Mn'
p2059
F0.07792207792207792
sS'BsmtFinSF1Rec'
p2060
F0.03896103896103896
sg36
F1
sS'MasVnrAreaNone'
p2061
F0.54545454545454541
sS'LotFrontageFV'
p2062
F0.12987012987012986
sS'BsmtFinSF1BLQ'
p2063
F0.012987012987012988
sg40
F561.36363636363637
sS'BsmtQualCBlock'
p2064
F0.20779220779220781
sg42
F14.857142857142858
sS'Exterior2ndWd Sdng'
p2065
F0.03896103896103896
sg44
F14.792207792207792
sS'MiscFeatureGdPrv'
p2066
F0.012987012987012988
sS'LandSlopeInside'
p2067
F0.83116883116883122
sg49
F5.1298701298701301
sg50
F4405.5064935064938
sS'Condition2Feedr'
p2068
F0.064935064935064929
sS'BsmtQualBrkTil'
p2069
F0.1038961038961039
sg53
F106.49350649350649
sg54
F0
sS'SaleConditionWD'
p2070
F0.76623376623376627
sS'GarageFinishBasment'
p2071
F0.03896103896103896
sS'Condition1IDOTRR'
p2072
F0.03896103896103896
sS'RoofMatlHip'
p2073
F0.15584415584415584
sS'CentralAirFa'
p2074
F0.03896103896103896
sS'GarageTypeNA'
p2075
F0.51948051948051943
sS'LotShapeGrvl'
p2076
F0.03896103896103896
sS'ElectricalY'
p2077
F0.93506493506493504
sS'Exterior1stCompShg'
p2078
F1
sS'GarageCondFa'
p2079
F0.012987012987012988
sg68
F6.220779220779221
sS'RoofMatlGable'
p2080
F0.8441558441558441
sS'SaleConditionNew'
p2081
F0.15584415584415584
sS'ExterCondTA'
p2082
F0.44155844155844154
sS'CentralAirGd'
p2083
F0.12987012987012986
sS'BsmtQualPConc'
p2084
F0.68831168831168832
sS'BsmtFinSF1ALQ'
p2085
F0.12987012987012986
sS'Condition1OldTown'
p2086
F0.1038961038961039
sS'ElectricalN'
p2087
F0.064935064935064929
sS'FireplacesMin1'
p2088
F0.012987012987012988
sS'LandContourIR1'
p2089
F0.27272727272727271
sS'LandContourIR2'
p2090
F0.03896103896103896
sS'Condition1CollgCr'
p2091
F0.12987012987012986
sS'GarageCondTA'
p2092
F0.87012987012987009
sS'FireplacesTyp'
p2093
F0.96103896103896103
sS'BsmtFinType1Av'
p2094
F0.24675324675324675
sS'Exterior2ndPlywood'
p2095
F0.051948051948051951
sS'PavedDriveTA'
p2096
F0.88311688311688308
sg85
F0.58441558441558439
sS'Condition2Artery'
p2097
F0.025974025974025976
sS'MasVnrTypeHdBoard'
p2098
F0.051948051948051951
sS'BsmtCondGd'
p2099
F0.59740259740259738
sS'LotFrontageRH'
p2100
F0.051948051948051951
sS'MasVnrTypeCmentBd'
p2101
F0.12987012987012986
sS'WoodDeckSFN'
p2102
F0.07792207792207792
sS'MasVnrTypeWd Shng'
p2103
F0.012987012987012988
sS'BsmtExposureGd'
p2104
F0.051948051948051951
sS'GarageFinishAttchd'
p2105
F0.67532467532467533
sS'GarageTypeTA'
p2106
F0.15584415584415584
sg100
F6.4285714285714288
sS'UtilitiesBnk'
p2107
F0.064935064935064929
sg102
F1040.4155844155844
sS'Exterior2ndWdShing'
p2108
F0.03896103896103896
sS'OverallQualSLvl'
p2109
F0.025974025974025976
sS'WoodDeckSFY'
p2110
F0.90909090909090906
sS'BsmtFinSF1LwQ'
p2111
F0.064935064935064929
sS'HouseStyleTwnhsE'
p2112
F0.66233766233766234
sS'GarageFinishNA'
p2113
F0.1038961038961039
sS'WoodDeckSFP'
p2114
F0.012987012987012988
sS'Exterior2ndHdBoard'
p2115
F0.051948051948051951
sS'BsmtExposureFa'
p2116
F0.012987012987012988
sS'Condition1Blmngtn'
p2117
F0.07792207792207792
sS'Exterior2ndMetalSd'
p2118
F0.20779220779220781
sS'Condition1MeadowV'
p2119
F0.03896103896103896
sS'Condition2Norm'
p2120
F0.89610389610389607
sg114
F78.766233766233768
sS'SaleConditionConLD'
p2121
F0.012987012987012988
sS'GarageFinishDetchd'
p2122
F0.18181818181818182
sS'Exterior2ndStucco'
p2123
F0.012987012987012988
sS'LandSlopeCorner'
p2124
F0.07792207792207792
sg118
F15.35064935064935
sS'HouseStyle2fmCon'
p2125
F0.012987012987012988
sg120
F1.7922077922077921
sS'Condition1BrkSide'
p2126
F0.03896103896103896
sS'NeighborhoodGtl'
p2127
F0.90909090909090906
sS'FoundationGd'
p2128
F0.064935064935064929
sS'HouseAgePartial'
p2129
F0.15584415584415584
sS'BsmtFinType1No'
p2130
F0.55844155844155841
sg127
F1221.4805194805194
sS'MasVnrAreaBrkFace'
p2131
F0.32467532467532467
sS'MasVnrTypeAsbShng'
p2132
F0.025974025974025976
sS'Exterior2ndCemntBd'
p2133
F0.12987012987012986
sS'BsmtExposureTA'
p2134
F0.93506493506493504
sg134
F36.298701298701296
sS'Condition1NPkVill'
p2135
F0.051948051948051951
sS'MiscValNA'
p2136
F1
sS'SaleConditionCOD'
p2137
F0.03896103896103896
sS'GarageCondNA'
p2138
F0.1038961038961039
sg76
F0
sS'SaleConditionCWD'
p2139
F0.012987012987012988
sS'LandSlopeFR2'
p2140
F0.051948051948051951
sS'LandSlopeFR3'
p2141
F0.012987012987012988
sg145
F5.3636363636363633
sg146
F21.935064935064936
sS'MasVnrAreaNA'
p2142
F0.012987012987012988
sg148
F0
sS'OverallQual1Story'
p2143
F0.74025974025974028
sS'Condition1Somerst'
p2144
F0.12987012987012986
sg152
F4.1688311688311686
sS'Condition1NridgHt'
p2145
F0.051948051948051951
sS'CentralAirEx'
p2146
F0.66233766233766234
sS'LandSlopeCulDSac'
p2147
F0.025974025974025976
sS'Condition1SWISU'
p2148
F0.025974025974025976
sg157
F2007.7142857142858
sS'BsmtCondTA'
p2149
F0.22077922077922077
sg160
F1099.2727272727273
sg161
F0.4935064935064935
sS'Condition1ClearCr'
p2150
F0.012987012987012988
sg162
F1.025974025974026
sS'X1stFlrSFSBrkr'
p2151
F0.94805194805194803
sS'SaleConditionConLw'
p2152
F0.012987012987012988
sS'GarageCarsFin'
p2153
F0.40259740259740262
sS'TotRmsAbvGrdTA'
p2154
F0.37662337662337664
sS'NeighborhoodMod'
p2155
F0.090909090909090912
sS'MasVnrTypeStucco'
p2156
F0.03896103896103896
sS'Condition2RRAe'
p2157
F0.012987012987012988
sS'TotRmsAbvGrdEx'
p2158
F0.03896103896103896
sS'MasVnrTypeVinylSd'
p2159
F0.41558441558441561
sg175
F25.805194805194805
sS'HouseAgeNormal'
p2160
F0.74025974025974028
sS'MasVnrTypeWd Sdng'
p2161
F0.064935064935064929
sS'LotFrontageRL'
p2162
F0.36363636363636365
sS'LotFrontageRM'
p2163
F0.45454545454545453
sS'GarageTypeFa'
p2164
F0.012987012987012988
sS'MiscFeatureNA'
p2165
F0.93506493506493504
sg182
F122.20779220779221
sS'LandContourReg'
p2166
F0.68831168831168832
sS'BldgTypeNorm'
p2167
F1
sS'BsmtFinSF1GLQ'
p2168
F0.54545454545454541
sg187
F435.79220779220782
sS'Exterior2ndVinylSd'
p2169
F0.42857142857142855
sS'TotRmsAbvGrdFa'
p2170
F0.012987012987012988
sg190
F1.5064935064935066
sS'OverallQual1.5Fin'
p2171
F0.07792207792207792
sS'HouseStyle1Fam'
p2172
F0.25974025974025972
sS'Condition1Crawfor'
p2173
F0.051948051948051951
sS'ExterCondEx'
p2174
F0.025974025974025976
sS'LotShapePave'
p2175
F0.11688311688311688
sS'FireplacesMaj2'
p2176
F0.012987012987012988
sS'FireplacesMaj1'
p2177
F0.012987012987012988
sg200
F474.88311688311688
sS'Exterior2ndBrkFace'
p2178
F0.012987012987012988
sS'ExterCondGd'
p2179
F0.53246753246753242
sS'UtilitiesHLS'
p2180
F0.064935064935064929
sS'Condition1StoneBr'
p2181
F0.1038961038961039
sS'OverallQual1.5Unf'
p2182
F0.025974025974025976
sS'GarageTypeGd'
p2183
F0.29870129870129869
sS'TotRmsAbvGrdGd'
p2184
F0.5714285714285714
sS'HouseStyleTwnhs'
p2185
F0.064935064935064929
sS'GarageCondGd'
p2186
F0.012987012987012988
sS'BsmtFinSF2Unf'
p2187
F0.97402597402597402
sS'OverallQual2Story'
p2188
F0.1038961038961039
sS'CentralAirPo'
p2189
F0.012987012987012988
sS'GarageCarsUnf'
p2190
F0.18181818181818182
sS'HeatingQCGrav'
p2191
F0.012987012987012988
sg218
F4.1688311688311686
sg219
F0.19480519480519481
sS'CentralAirTA'
p2192
F0.15584415584415584
sS'Condition1Edwards'
p2193
F0.064935064935064929
sS'Condition1NAmes'
p2194
F0.025974025974025976
sS'HeatingQCGasA'
p2195
F0.98701298701298701
sS'MasVnrTypePlywood'
p2196
F0.051948051948051951
sS'BsmtFinSF1Unf'
p2197
F0.20779220779220781
sS'FenceNA'
p2198
F1
sS'GarageTypePo'
p2199
F0.012987012987012988
sS'LotShapeNA'
p2200
F0.8441558441558441
sS'HouseAgeFamily'
p2201
F0.012987012987012988
sg231
F782.2467532467532
sa(dp2202
S'BsmtFinType1NA'
p2203
F0.015384615384615385
sS'GarageCarsNA'
p2204
F0.030769230769230771
sg5
F1
sS'BsmtCondNA'
p2205
F0.015384615384615385
sS'OverallQualSFoyer'
p2206
F0.015384615384615385
sg8
F113.72307692307692
sS'MasVnrAreaStone'
p2207
F0.092307692307692313
sS'MasVnrTypeMetalSd'
p2208
F0.076923076923076927
sS'MasVnrAreaBrkCmn'
p2209
F0.015384615384615385
sS'UtilitiesLow'
p2210
F0.061538461538461542
sg16
F75.15384615384616
sS'UtilitiesLvl'
p2211
F0.90769230769230769
sS'X1stFlrSFFuseA'
p2212
F0.030769230769230771
sS'Exterior2ndStone'
p2213
F0.015384615384615385
sS'BsmtFinSF2LwQ'
p2214
F0.046153846153846156
sS'PavedDriveGd'
p2215
F0.015384615384615385
sS'HouseAgeAbnorml'
p2216
F0.12307692307692308
sg23
F3.0615384615384613
sS'MiscFeatureMnPrv'
p2217
F0.076923076923076927
sS'FoundationTA'
p2218
F0.84615384615384615
sS'FireplacesMod'
p2219
F0.015384615384615385
sS'Condition1NoRidge'
p2220
F0.061538461538461542
sS'Condition1Gilbert'
p2221
F0.076923076923076927
sS'BsmtCondEx'
p2222
F0.12307692307692308
sS'GarageCarsRFn'
p2223
F0.30769230769230771
sS'RoofMatlShed'
p2224
F0.015384615384615385
sS'HouseStyleDuplex'
p2225
F0.015384615384615385
sS'RoofMatlFlat'
p2226
F0.046153846153846156
sg33
F0.076923076923076927
sS'MiscValGar2'
p2227
F0.015384615384615385
sS'BsmtFinType1Mn'
p2228
F0.092307692307692313
sS'BsmtFinSF1Rec'
p2229
F0.061538461538461542
sg36
F1
sS'MasVnrAreaNone'
p2230
F0.63076923076923075
sS'BsmtFinSF1BLQ'
p2231
F0.16923076923076924
sg40
F590.63076923076926
sS'BsmtQualCBlock'
p2232
F0.52307692307692311
sg42
F25.723076923076924
sS'Exterior2ndWd Sdng'
p2233
F0.15384615384615385
sg44
F28.523076923076925
sS'MiscFeatureGdWo'
p2234
F0.030769230769230771
sS'MiscFeatureGdPrv'
p2235
F0.015384615384615385
sS'PavedDriveNA'
p2236
F0.030769230769230771
sS'LandSlopeInside'
p2237
F0.52307692307692311
sS'GarageTypeEx'
p2238
F0.015384615384615385
sg49
F7.4923076923076923
sg50
F16819.061538461538
sS'Condition2Feedr'
p2239
F0.046153846153846156
sS'BsmtQualBrkTil'
p2240
F0.076923076923076927
sg53
F46.384615384615387
sg54
F27.876923076923077
sS'SaleConditionWD'
p2241
F0.86153846153846159
sS'MasVnrTypeCmentBd'
p2242
F0.046153846153846156
sS'SaleConditionConLD'
p2243
F0.015384615384615385
sS'WoodDeckSFN'
p2244
F0.030769230769230771
sS'CentralAirFa'
p2245
F0.046153846153846156
sS'BsmtExposureFa'
p2246
F0.015384615384615385
sS'ElectricalY'
p2247
F1
sS'Exterior1stTar&Grv'
p2248
F0.046153846153846156
sS'Exterior1stCompShg'
p2249
F0.92307692307692313
sS'GarageTypeFa'
p2250
F0.030769230769230771
sS'Condition1NWAmes'
p2251
F0.1076923076923077
sg68
F6.476923076923077
sS'RoofMatlGable'
p2252
F0.75384615384615383
sS'SaleConditionNew'
p2253
F0.1076923076923077
sS'ExterCondTA'
p2254
F0.52307692307692311
sS'GarageFinishAttchd'
p2255
F0.81538461538461537
sS'MasVnrTypeBrkFace'
p2256
F0.015384615384615385
sS'BsmtQualPConc'
p2257
F0.40000000000000002
sS'ExterCondEx'
p2258
F0.030769230769230771
sS'ExterCondGd'
p2259
F0.43076923076923079
sS'LandContourIR1'
p2260
F0.58461538461538465
sS'LandContourIR2'
p2261
F0.030769230769230771
sS'Condition1CollgCr'
p2262
F0.076923076923076927
sS'GarageTypeTA'
p2263
F0.32307692307692309
sS'FireplacesTyp'
p2264
F0.92307692307692313
sS'LotFrontageRM'
p2265
F0.030769230769230771
sS'Exterior2ndPlywood'
p2266
F0.12307692307692308
sS'BldgTypeRRAe'
p2267
F0.015384615384615385
sS'GarageFinishCarPort'
p2268
F0.015384615384615385
sS'PavedDriveTA'
p2269
F0.9538461538461539
sg85
F0.50769230769230766
sS'HouseAgeAlloca'
p2270
F0.015384615384615385
sS'Condition2Artery'
p2271
F0.046153846153846156
sS'MasVnrTypeHdBoard'
p2272
F0.1076923076923077
sS'BsmtCondGd'
p2273
F0.44615384615384618
sS'BsmtFinSF2BLQ'
p2274
F0.015384615384615385
sS'Condition1Crawfor'
p2275
F0.1076923076923077
sS'RoofMatlHip'
p2276
F0.18461538461538463
sS'LotShapeGrvl'
p2277
F0.015384615384615385
sS'BsmtExposureGd'
p2278
F0.046153846153846156
sS'CentralAirGd'
p2279
F0.092307692307692313
sS'Condition1Timber'
p2280
F0.046153846153846156
sS'GarageCondTA'
p2281
F0.93846153846153846
sg100
F6.0769230769230766
sS'UtilitiesBnk'
p2282
F0.015384615384615385
sg102
F1310.323076923077
sS'Exterior2ndHdBoard'
p2283
F0.1076923076923077
sS'OverallQualSLvl'
p2284
F0.061538461538461542
sS'WoodDeckSFY'
p2285
F0.92307692307692313
sS'BsmtFinSF1LwQ'
p2286
F0.046153846153846156
sS'GarageFinishNA'
p2287
F0.030769230769230771
sS'WoodDeckSFP'
p2288
F0.046153846153846156
sS'Exterior2ndWdShing'
p2289
F0.015384615384615385
sS'Exterior2ndMetalSd'
p2290
F0.076923076923076927
sS'Condition2Norm'
p2291
F0.81538461538461537
sg114
F97.200000000000003
sS'GarageFinishDetchd'
p2292
F0.061538461538461542
sS'GarageCarsFin'
p2293
F0.36923076923076925
sg118
F23.215384615384615
sS'HouseStyle2fmCon'
p2294
F0.015384615384615385
sS'GarageTypeGd'
p2295
F0.41538461538461541
sS'Condition1Sawyer'
p2296
F0.046153846153846156
sS'NeighborhoodGtl'
p2297
F0.9538461538461539
sS'FoundationGd'
p2298
F0.15384615384615385
sS'HouseAgePartial'
p2299
F0.1076923076923077
sS'BsmtFinType1No'
p2300
F0.50769230769230766
sg127
F1903.2615384615385
sS'MasVnrAreaBrkFace'
p2301
F0.26153846153846155
sS'MasVnrTypeAsbShng'
p2302
F0.015384615384615385
sS'Exterior2ndCemntBd'
p2303
F0.046153846153846156
sS'BsmtExposureTA'
p2304
F0.92307692307692313
sS'LandSlopeCorner'
p2305
F0.27692307692307694
sg134
F65.41538461538461
sS'SaleConditionCOD'
p2306
F0.015384615384615385
sS'MiscValNA'
p2307
F0.9538461538461539
sS'FireplacesMin2'
p2308
F0.030769230769230771
sS'Exterior1stWdShake'
p2309
F0.030769230769230771
sS'NeighborhoodMod'
p2310
F0.046153846153846156
sS'GarageTypeNA'
p2311
F0.20000000000000001
sg76
F13.476923076923077
sS'BsmtExposureNA'
p2312
F0.015384615384615385
sS'LandSlopeFR2'
p2313
F0.061538461538461542
sS'LandSlopeFR3'
p2314
F0.015384615384615385
sg145
F5.5846153846153843
sg146
F21.123076923076923
sS'MasVnrTypeImStucc'
p2315
F0.015384615384615385
sS'Condition1IDOTRR'
p2316
F0.015384615384615385
sg148
F167.07692307692307
sS'FenceGd'
p2317
F0.015384615384615385
sS'LotFrontageC (all)'
p2318
F0.015384615384615385
sS'OverallQual1Story'
p2319
F0.46153846153846156
sS'Condition1Veenker'
p2320
F0.030769230769230771
sg152
F129.66153846153847
sS'Condition1NridgHt'
p2321
F0.061538461538461542
sS'CentralAirEx'
p2322
F0.49230769230769234
sS'LandSlopeCulDSac'
p2323
F0.12307692307692308
sS'Condition1SWISU'
p2324
F0.015384615384615385
sg157
F2007.5076923076922
sS'BsmtCondTA'
p2325
F0.41538461538461541
sg160
F1430.9692307692308
sg161
F1.0153846153846153
sS'Condition1ClearCr'
p2326
F0.046153846153846156
sg162
F1.0153846153846153
sS'X1stFlrSFSBrkr'
p2327
F0.96923076923076923
sS'ExterCondFa'
p2328
F0.015384615384615385
sS'BsmtFinSF2NA'
p2329
F0.015384615384615385
sS'GarageFinishBasment'
p2330
F0.030769230769230771
sg218
F2.5846153846153848
sS'TotRmsAbvGrdTA'
p2331
F0.46153846153846156
sS'BsmtFinSF2Rec'
p2332
F0.1076923076923077
sS'MiscValShed'
p2333
F0.015384615384615385
sS'MiscValTenC'
p2334
F0.015384615384615385
sS'Condition2RRAe'
p2335
F0.015384615384615385
sS'TotRmsAbvGrdEx'
p2336
F0.12307692307692308
sS'MasVnrTypeVinylSd'
p2337
F0.36923076923076925
sS'Condition2RRAn'
p2338
F0.030769230769230771
sg175
F35.353846153846156
sS'HouseAgeNormal'
p2339
F0.75384615384615383
sS'MasVnrTypeWd Sdng'
p2340
F0.1076923076923077
sS'LotFrontageRL'
p2341
F0.9538461538461539
sS'BsmtFinType1Av'
p2342
F0.23076923076923078
sS'MiscFeatureNA'
p2343
F0.87692307692307692
sg182
F458.81538461538463
sS'OverallQual2.5Fin'
p2344
F0.030769230769230771
sS'FenceEx'
p2345
F0.015384615384615385
sS'LandContourReg'
p2346
F0.35384615384615387
sS'BldgTypeNorm'
p2347
F0.98461538461538467
sS'BsmtFinSF1GLQ'
p2348
F0.26153846153846155
sg187
F544.56923076923078
sS'Exterior2ndVinylSd'
p2349
F0.38461538461538464
sS'TotRmsAbvGrdFa'
p2350
F0.015384615384615385
sg190
F1.8153846153846154
sS'OverallQual1.5Fin'
p2351
F0.1076923076923077
sS'HouseStyle1Fam'
p2352
F0.96923076923076923
sS'Condition1OldTown'
p2353
F0.030769230769230771
sS'Condition1Mitchel'
p2354
F0.030769230769230771
sS'FireplacesSev'
p2355
F0.015384615384615385
sS'Condition2PosA'
p2356
F0.046153846153846156
sS'Condition1SawyerW'
p2357
F0.015384615384615385
sS'BsmtFinSF1ALQ'
p2358
F0.2153846153846154
sS'FenceFa'
p2359
F0.015384615384615385
sS'BsmtFinSF1NA'
p2360
F0.015384615384615385
sS'BsmtFinSF2ALQ'
p2361
F0.046153846153846156
sS'FireplacesMaj1'
p2362
F0.015384615384615385
sg200
F590.03076923076924
sS'Exterior2ndBrkFace'
p2363
F0.076923076923076927
sS'GarageTypePo'
p2364
F0.015384615384615385
sS'UtilitiesHLS'
p2365
F0.015384615384615385
sS'Condition1StoneBr'
p2366
F0.046153846153846156
sg120
F1.9538461538461538
sS'TotRmsAbvGrdGd'
p2367
F0.40000000000000002
sS'GarageCondGd'
p2368
F0.030769230769230771
sS'LandContourIR3'
p2369
F0.030769230769230771
sS'BsmtFinSF2Unf'
p2370
F0.76923076923076927
sS'OverallQual2Story'
p2371
F0.32307692307692309
sS'HeatingQCGasW'
p2372
F0.015384615384615385
sS'GarageCarsUnf'
p2373
F0.29230769230769232
sS'BsmtFinType1Gd'
p2374
F0.15384615384615385
sg219
F0.49230769230769234
sS'CentralAirTA'
p2375
F0.36923076923076925
sS'Condition1Edwards'
p2376
F0.061538461538461542
sS'Condition1NAmes'
p2377
F0.12307692307692308
sS'HeatingQCGasA'
p2378
F0.98461538461538467
sS'MasVnrTypePlywood'
p2379
F0.24615384615384617
sS'BsmtFinSF1Unf'
p2380
F0.23076923076923078
sS'GarageCondNA'
p2381
F0.030769230769230771
sS'FenceNA'
p2382
F0.9538461538461539
sS'GarageFinishBuiltIn'
p2383
F0.046153846153846156
sS'LotShapeNA'
p2384
F0.98461538461538467
sg231
F743.93846153846152
sa(dp2385
g5
F1
sg8
F357.44444444444446
sS'MasVnrAreaStone'
p2386
F0.1111111111111111
sS'UtilitiesLow'
p2387
F0.44444444444444442
sg16
F104.22222222222223
sS'UtilitiesLvl'
p2388
F0.1111111111111111
sS'SaleConditionNew'
p2389
F0.1111111111111111
sg23
F2.8888888888888888
sS'FoundationTA'
p2390
F1
sS'FireplacesMod'
p2391
F0.1111111111111111
sS'Condition1NoRidge'
p2392
F0.1111111111111111
sS'GarageCarsRFn'
p2393
F0.1111111111111111
sS'TotRmsAbvGrdTA'
p2394
F0.22222222222222221
sS'RoofMatlFlat'
p2395
F0.1111111111111111
sg33
F0
sg36
F1
sS'MasVnrAreaNone'
p2396
F0.66666666666666663
sS'BsmtFinSF2Rec'
p2397
F0.22222222222222221
sS'BsmtFinSF1BLQ'
p2398
F0.22222222222222221
sg40
F1482.2222222222222
sS'BsmtQualCBlock'
p2399
F0.44444444444444442
sg42
F42.777777777777779
sS'Exterior2ndWd Sdng'
p2400
F0.22222222222222221
sg44
F32.333333333333336
sS'LandSlopeInside'
p2401
F0.44444444444444442
sS'Exterior1stTar&Grv'
p2402
F0.1111111111111111
sg49
F8.2222222222222214
sg50
F54905.111111111109
sS'Condition2Feedr'
p2403
F0.22222222222222221
sS'BsmtQualBrkTil'
p2404
F0.1111111111111111
sg53
F41.111111111111114
sg54
F53.333333333333336
sS'SaleConditionWD'
p2405
F0.88888888888888884
sS'WoodDeckSFN'
p2406
F0.1111111111111111
sS'ElectricalY'
p2407
F1
sS'Exterior1stCompShg'
p2408
F0.55555555555555558
sS'GarageTypeFa'
p2409
F0.1111111111111111
sg68
F7
sS'RoofMatlGable'
p2410
F0.55555555555555558
sS'Condition1Veenker'
p2411
F0.1111111111111111
sS'ExterCondTA'
p2412
F0.44444444444444442
sS'GarageFinishAttchd'
p2413
F0.66666666666666663
sS'BsmtQualPConc'
p2414
F0.44444444444444442
sS'BsmtFinSF1ALQ'
p2415
F0.22222222222222221
sg76
F0
sS'LandContourIR1'
p2416
F0.44444444444444442
sS'LandContourIR2'
p2417
F0.44444444444444442
sS'LandContourIR3'
p2418
F0.1111111111111111
sS'GarageTypeTA'
p2419
F0.33333333333333331
sS'FireplacesTyp'
p2420
F0.66666666666666663
sS'Exterior2ndPlywood'
p2421
F0.22222222222222221
sS'PavedDriveTA'
p2422
F1
sg85
F1.1111111111111112
sS'MasVnrTypeHdBoard'
p2423
F0.1111111111111111
sS'BsmtCondGd'
p2424
F0.55555555555555558
sS'RoofMatlHip'
p2425
F0.33333333333333331
sS'MasVnrTypeWd Shng'
p2426
F0.22222222222222221
sS'BsmtExposureGd'
p2427
F0.1111111111111111
sS'CentralAirGd'
p2428
F0.1111111111111111
sS'Condition1Timber'
p2429
F0.1111111111111111
sS'GarageCondTA'
p2430
F0.88888888888888884
sg100
F6.7777777777777777
sS'UtilitiesBnk'
p2431
F0.33333333333333331
sg102
F1929.1111111111111
sS'Exterior2ndWdShing'
p2432
F0.1111111111111111
sS'NeighborhoodSev'
p2433
F0.1111111111111111
sS'WoodDeckSFY'
p2434
F0.88888888888888884
sS'Exterior2ndHdBoard'
p2435
F0.1111111111111111
sS'Condition2Norm'
p2436
F0.77777777777777779
sg114
F214.11111111111111
sS'GarageFinishDetchd'
p2437
F0.22222222222222221
sS'Exterior2ndStucco'
p2438
F0.1111111111111111
sS'GarageCarsFin'
p2439
F0.55555555555555558
sg118
F17.888888888888889
sS'GarageTypeGd'
p2440
F0.55555555555555558
sS'NeighborhoodGtl'
p2441
F0.44444444444444442
sS'HouseAgePartial'
p2442
F0.1111111111111111
sS'BsmtFinType1No'
p2443
F0.22222222222222221
sg127
F2489.4444444444443
sS'MasVnrAreaBrkFace'
p2444
F0.22222222222222221
sS'Exterior2ndCemntBd'
p2445
F0.1111111111111111
sS'BsmtExposureTA'
p2446
F0.88888888888888884
sS'LandSlopeCorner'
p2447
F0.22222222222222221
sg134
F68.555555555555557
sS'MiscValNA'
p2448
F1
sS'FireplacesMin1'
p2449
F0.22222222222222221
sS'ExterCondGd'
p2450
F0.33333333333333331
sS'Exterior1stClyTile'
p2451
F0.1111111111111111
sg145
F5.666666666666667
sg146
F5.5555555555555554
sg148
F0
sS'NeighborhoodMod'
p2452
F0.44444444444444442
sg152
F57.111111111111114
sS'CentralAirEx'
p2453
F0.55555555555555558
sS'LandSlopeCulDSac'
p2454
F0.33333333333333331
sg157
F2008
sg218
F0
sS'BsmtCondTA'
p2455
F0.22222222222222221
sg160
F1908.7777777777778
sg161
F1.6666666666666667
sS'Condition1ClearCr'
p2456
F0.44444444444444442
sg162
F1
sS'X1stFlrSFSBrkr'
p2457
F1
sS'BsmtCondEx'
p2458
F0.22222222222222221
sS'OverallQual1Story'
p2459
F0.44444444444444442
sS'Exterior1stWdShngl'
p2460
F0.22222222222222221
sS'MasVnrTypeStucco'
p2461
F0.1111111111111111
sS'TotRmsAbvGrdEx'
p2462
F0.22222222222222221
sS'MasVnrTypeVinylSd'
p2463
F0.1111111111111111
sg175
F34.333333333333336
sS'HouseAgeNormal'
p2464
F0.88888888888888884
sS'MasVnrTypeWd Sdng'
p2465
F0.22222222222222221
sS'LotFrontageRL'
p2466
F1
sS'BsmtFinType1Av'
p2467
F0.22222222222222221
sS'GarageCondFa'
p2468
F0.1111111111111111
sS'MiscFeatureNA'
p2469
F1
sg182
F580.66666666666663
sS'Condition1Edwards'
p2470
F0.1111111111111111
sS'BldgTypeNorm'
p2471
F1
sS'BsmtFinSF1GLQ'
p2472
F0.44444444444444442
sg187
F711.33333333333337
sS'Exterior2ndVinylSd'
p2473
F0.1111111111111111
sg190
F1.7777777777777777
sS'OverallQual1.5Fin'
p2474
F0.1111111111111111
sS'HouseStyle1Fam'
p2475
F1
sS'ExterCondEx'
p2476
F0.22222222222222221
sg200
F389.77777777777777
sS'UtilitiesHLS'
p2477
F0.1111111111111111
sS'Condition1StoneBr'
p2478
F0.1111111111111111
sg120
F2.3333333333333335
sS'TotRmsAbvGrdGd'
p2479
F0.55555555555555558
sS'BsmtFinSF2Unf'
p2480
F0.77777777777777779
sS'OverallQual2Story'
p2481
F0.44444444444444442
sS'GarageCarsUnf'
p2482
F0.33333333333333331
sS'BsmtFinType1Gd'
p2483
F0.55555555555555558
sg219
F0.55555555555555558
sS'CentralAirTA'
p2484
F0.33333333333333331
sS'FenceGd'
p2485
F0.1111111111111111
sS'HeatingQCGasA'
p2486
F1
sS'MasVnrTypePlywood'
p2487
F0.22222222222222221
sS'BsmtFinSF1Unf'
p2488
F0.1111111111111111
sS'FenceNA'
p2489
F0.88888888888888884
sS'GarageFinishBuiltIn'
p2490
F0.1111111111111111
sS'LotShapeNA'
p2491
F1
sg231
F702.88888888888891
sa(lp2492
I11
aI1
aI5
aI11
aI4
aI4
aI1
aI5
aI0
aI7
aI1
aI9
aI9
aI8
aI1
aI0
aI1
aI1
aI4
aI7
aI4
aI7
aI8
aI12
aI11
aI4
aI7
aI9
aI13
aI0
aI11
aI11
aI1
aI1
aI7
aI4
aI1
aI11
aI7
aI0
aI11
aI13
aI11
aI11
aI7
aI7
aI9
aI9
aI12
aI7
aI4
aI0
aI11
aI14
aI7
aI1
aI6
aI9
aI4
aI7
aI4
aI7
aI0
aI5
aI11
aI5
aI3
aI1
aI12
aI13
aI4
aI7
aI5
aI1
aI0
aI6
aI11
aI11
aI8
aI1
aI4
aI12
aI8
aI11
aI11
aI13
aI9
aI12
aI11
aI7
aI7
aI11
aI4
aI7
aI11
aI11
aI1
aI1
aI1
aI11
aI1
aI11
aI7
aI1
aI7
aI8
aI1
aI0
aI11
aI9
aI11
aI7
aI5
aI3
aI7
aI6
aI9
aI11
aI9
aI11
aI3
aI0
aI1
aI7
aI13
aI7
aI12
aI12
aI7
aI11
aI4
aI9
aI7
aI7
aI1
aI8
aI1
aI9
aI11
aI13
aI1
aI9
aI11
aI1
aI8
aI6
aI0
aI5
aI7
aI0
aI1
aI4
aI4
aI4
aI9
aI11
aI7
aI9
aI9
aI13
aI1
aI4
aI9
aI0
aI0
aI1
aI1
aI5
aI11
aI13
aI9
aI2
aI0
aI1
aI9
aI9
aI5
aI4
aI13
aI11
aI6
aI7
aI11
aI9
aI7
aI3
aI1
aI5
aI7
aI12
aI5
aI7
aI8
aI6
aI7
aI6
aI8
aI3
aI0
aI8
aI11
aI1
aI7
aI12
aI6
aI9
aI4
aI9
aI4
aI11
aI0
aI1
aI11
aI4
aI5
aI1
aI11
aI1
aI13
aI6
aI8
aI11
aI9
aI1
aI4
aI6
aI5
aI6
aI11
aI6
aI8
aI4
aI6
aI1
aI7
aI6
aI8
aI11
aI9
aI11
aI8
aI12
aI0
aI5
aI11
aI1
aI11
aI9
aI5
aI10
aI0
aI12
aI11
aI11
aI11
aI11
aI11
aI11
aI9
aI9
aI13
aI8
aI11
aI0
aI0
aI9
aI5
aI11
aI7
aI7
aI5
aI2
aI9
aI1
aI11
aI7
aI8
aI13
aI4
aI5
aI5
aI7
aI12
aI8
aI7
aI12
aI1
aI7
aI1
aI11
aI13
aI0
aI9
aI13
aI1
aI7
aI4
aI7
aI9
aI4
aI13
aI13
aI4
aI1
aI13
aI1
aI4
aI7
aI9
aI9
aI7
aI7
aI7
aI10
aI11
aI7
aI4
aI8
aI5
aI4
aI13
aI9
aI5
aI0
aI5
aI12
aI1
aI9
aI9
aI0
aI8
aI7
aI8
aI7
aI11
aI10
aI4
aI8
aI4
aI9
aI4
aI11
aI11
aI8
aI6
aI0
aI4
aI13
aI6
aI3
aI8
aI12
aI11
aI11
aI11
aI1
aI11
aI12
aI7
aI9
aI7
aI11
aI7
aI6
aI13
aI5
aI8
aI11
aI7
aI1
aI11
aI13
aI7
aI1
aI11
aI1
aI11
aI5
aI9
aI11
aI12
aI7
aI11
aI11
aI14
aI6
aI11
aI7
aI8
aI9
aI11
aI9
aI11
aI7
aI1
aI1
aI7
aI7
aI11
aI7
aI4
aI8
aI1
aI9
aI5
aI1
aI1
aI13
aI4
aI5
aI8
aI2
aI12
aI11
aI5
aI8
aI7
aI3
aI11
aI11
aI7
aI13
aI3
aI5
aI11
aI6
aI9
aI11
aI7
aI9
aI6
aI0
aI6
aI5
aI6
aI5
aI12
aI0
aI12
aI9
aI13
aI9
aI0
aI12
aI11
aI8
aI13
aI5
aI11
aI0
aI0
aI14
aI11
aI11
aI1
aI1
aI12
aI14
aI0
aI7
aI7
aI7
aI11
aI9
aI11
aI6
aI1
aI11
aI9
aI11
aI7
aI9
aI12
aI4
aI12
aI11
aI4
aI4
aI1
aI0
aI13
aI9
aI6
aI12
aI7
aI1
aI1
aI9
aI5
aI6
aI6
aI11
aI13
aI7
aI0
aI7
aI9
aI11
aI7
aI7
aI6
aI5
aI11
aI13
aI6
aI7
aI11
aI7
aI11
aI1
aI4
aI7
aI11
aI11
aI1
aI9
aI5
aI5
aI11
aI5
aI5
aI9
aI12
aI2
aI9
aI7
aI4
aI4
aI11
aI2
aI1
aI0
aI7
aI0
aI11
aI7
aI11
aI9
aI9
aI9
aI4
aI5
aI1
aI12
aI13
aI4
aI11
aI7
aI11
aI11
aI12
aI0
aI9
aI11
aI5
aI0
aI4
aI1
aI3
aI6
aI9
aI1
aI4
aI3
aI4
aI7
aI5
aI8
aI9
aI7
aI4
aI7
aI4
aI1
aI1
aI11
aI0
aI9
aI6
aI9
aI4
aI9
aI9
aI4
aI0
aI9
aI1
aI11
aI3
aI11
aI11
aI4
aI7
aI12
aI7
aI9
aI6
aI12
aI4
aI6
aI5
aI11
aI5
aI6
aI9
aI4
aI9
aI7
aI9
aI7
aI5
aI1
aI9
aI11
aI6
aI11
aI7
aI7
aI9
aI9
aI11
aI5
aI7
aI6
aI5
aI1
aI9
aI1
aI9
aI11
aI11
aI12
aI9
aI11
aI7
aI5
aI0
aI0
aI11
aI12
aI9
aI7
aI4
aI5
aI8
aI1
aI7
aI1
aI7
aI6
aI11
aI11
aI11
aI5
aI1
aI6
aI1
aI7
aI13
aI1
aI9
aI14
aI4
aI1
aI3
aI9
aI13
aI7
aI4
aI9
aI11
aI0
aI9
aI4
aI11
aI6
aI8
aI11
aI9
aI1
aI7
aI12
aI6
aI9
aI13
aI12
aI5
aI0
aI7
aI7
aI12
aI3
aI3
aI0
aI0
aI4
aI0
aI0
aI11
aI12
aI4
aI8
aI9
aI7
aI11
aI0
aI10
aI0
aI11
aI7
aI12
aI11
aI12
aI1
aI4
aI1
aI5
aI1
aI5
aI1
aI7
aI12
aI7
aI11
aI4
aI7
aI3
aI7
aI9
aI0
aI12
aI1
aI5
aI1
aI11
aI5
aI11
aI5
aI1
aI11
aI11
aI7
aI8
aI9
aI12
aI11
aI11
aI5
aI1
aI11
aI11
aI7
aI1
aI5
aI7
aI6
aI5
aI9
aI6
aI9
aI11
aI7
aI11
aI5
aI1
aI4
aI5
aI9
aI8
aI14
aI7
aI11
aI7
aI1
aI4
aI12
aI9
aI4
aI11
aI1
aI7
aI7
aI13
aI11
aI0
aI1
aI5
aI5
aI0
aI9
aI6
aI9
aI5
aI8
aI5
aI11
aI11
aI7
aI4
aI7
aI9
aI12
aI11
aI4
aI11
aI9
aI1
aI3
aI4
aI11
aI1
aI12
aI11
aI1
aI11
aI9
aI9
aI4
aI11
aI0
aI7
aI0
aI9
aI1
aI9
aI4
aI0
aI8
aI2
aI6
aI9
aI6
aI11
aI8
aI7
aI1
aI8
aI6
aI8
aI9
aI9
aI5
aI11
aI8
aI9
aI13
aI11
aI13
aI14
aI11
aI12
aI6
aI7
aI9
aI13
aI7
aI1
aI11
aI1
aI5
aI7
aI9
aI1
aI7
aI8
aI11
aI8
aI7
aI4
aI5
aI0
aI11
aI11
aI9
aI0
aI8
aI3
aI11
aI9
aI7
aI7
aI4
aI11
aI0
aI7
aI12
aI8
aI13
aI13
aI9
aI11
aI5
aI11
aI4
aI7
aI7
aI11
aI7
aI4
aI7
aI7
aI11
aI7
aI4
aI0
aI1
aI4
aI5
aI11
aI9
aI5
aI8
aI0
aI0
aI6
aI6
aI11
aI13
aI4
aI1
aI11
aI11
aI8
aI7
aI1
aI13
aI9
aI5
aI9
aI4
aI8
aI11
aI9
aI8
aI3
aI0
aI1
aI5
aI8
aI3
aI9
aI11
aI7
aI3
aI4
aI11
aI7
aI4
aI4
aI1
aI7
aI7
aI7
aI5
aI1
aI7
aI6
aI7
aI11
aI6
aI7
aI9
aI6
aI9
aI5
aI5
aI11
aI7
aI0
aI1
aI1
aI6
aI7
aI9
aI5
aI6
aI0
aI12
aI11
aI11
aI9
aI9
aI6
aI5
aI5
aI1
aI0
aI1
aI9
aI11
aI5
aI13
aI5
aI11
aI9
aI12
aI1
aI9
aI1
aI7
aI1
aI0
aI9
aI9
aI6
aI11
aI9
aI6
aI9
aI0
aI3
aI1
aI5
aI7
aI9
aI11
aI9
aI0
aI5
aI6
aI7
aI7
aI11
aI6
aI13
aI7
aI11
aI1
aI11
aI6
aI7
aI13
aI4
aI7
aI0
aI1
aI9
aI8
aI6
aI6
aI4
aI11
aI12
aI9
aI8
aI4
aI13
aI11
aI3
aI1
aI8
aI9
aI11
aI11
aI5
aI9
aI7
aI2
aI5
aI5
aI12
aI13
aI4
aI0
aI1
aI4
aI7
aI5
aI12
aI1
aI1
aI9
aI7
aI7
aI8
aI4
aI1
aI13
aI12
aI11
aI1
aI7
aI8
aI11
aI4
aI11
aI6
aI5
aI6
aI12
aI11
aI6
aI11
aI11
aI0
aI8
aI7
aI12
aI0
aI9
aI11
aI1
aI7
aI11
aI6
aI9
aI1
aI3
aI11
aI9
aI7
aI5
aI7
aI11
aI0
aI9
aI7
aI1
aI4
aI7
aI11
aI8
aI11
aI11
aI11
aI1
aI12
aI4
aI9
aI7
aI7
aI1
aI5
aI5
aI11
aI0
aI1
aI0
aI1
aI11
aI7
aI5
aI5
aI11
aI9
aI0
aI1
aI9
aI0
aI11
aI11
aI13
aI4
aI0
aI4
aI1
aI11
aI12
aI9
aI11
aI6
aI4
aI11
aI9
aI13
aI8
aI8
aI5
aI4
aI2
aI1
aI11
aI12
aI13
aI13
aI5
aI7
aI12
aI7
aI11
aI5
aI12
aI13
aI1
aI2
aI1
aI5
aI9
aI11
aI7
aI2
aI6
aI11
aI12
aI11
aI11
aI4
aI11
aI8
aI9
aI11
aI5
aI0
aI8
aI1
aI4
aI11
aI8
aI7
aI1
aI5
aI9
aI11
aI1
aI1
aI7
aI11
aI11
aI0
aI6
aI7
aI11
aI5
aI8
aI13
aI1
aI4
aI11
aI11
aI7
aI13
aI7
aI1
aI9
aI11
aI4
aI6
aI9
aI4
aI8
aI11
aI8
aI1
aI4
aI5
aI9
aI11
aI9
aI5
aI7
aI9
aI6
aI1
aI13
aI7
aI0
aI4
aI12
aI1
aI1
aI3
aI1
aI5
aI4
aI12
aI12
aI5
aI4
aI4
aI5
aI3
aI8
aI4
aI9
aI0
aI5
aI9
aI13
aI5
aI7
aI8
aI7
aI11
aI11
aI5
aI0
aI1
aI2
aI0
aI5
aI4
aI6
aI0
aI5
aI11
aI11
aI11
aI12
aI14
aI7
aI5
aI7
aI5
aI8
aI6
aI4
aI7
aI7
aI9
aI7
aI13
aI11
aI5
aI4
aI7
aI5
aI8
aI12
aI4
aI1
aI11
aI0
aI5
aI0
aI8
aI12
aI12
aI0
aI5
aI11
aI8
aI1
aI11
aI7
aI6
aI1
aI8
aI12
aI4
aI1
aI11
aI4
aI8
aI7
aI5
aI0
aI3
aI4
aI13
aI0
aI5
aI11
aI0
aI4
aI5
aI5
aI11
aI9
aI6
aI13
aI5
aI13
aI9
aI11
aI6
aI7
aI11
aI6
aI12
aI1
aI0
aI1
aI5
aI9
aI5
aI9
aI0
aI5
aI6
aI11
aI11
aI4
aI7
aI3
aI11
aI0
aI13
aI11
aI4
aI0
aI11
aI8
aI7
aI5
aI12
aI9
aI14
aI0
aI7
aI0
aI0
aI7
aI0
aI4
aI5
aI12
aI11
aI11
aI7
aI3
aI9
aI11
aI7
aI9
aI4
aI12
aI5
aI13
aI11
aI13
aI9
aI12
aI12
aI13
aI1
aI1
aI5
aI5
aI7
aI9
aI3
aI12
aI1
aI5
aI13
aI8
aI11
aI9
aI7
aI5
aI5
aI12
aI5
aI11
aI8
aI11
aI3
aI5
aI9
aI6
aI11
aI8
aI12
aI13
aI7
aI7
aI4
aI11
aI1
aI1
aF8338254144.523921
(lp2493
F58.078771084337262
aF24.114141025640976
aF7.3466439393938856
aF-10.421228915662738
aF-1.323635593220331
aF-108.32363559322033
aF149.61414102564098
aF-16.153356060606114
aF11.909132653061235
aF-33.608404145077799
aF-27.885858974359024
aF129.81977300613482
aF-71.180226993865176
aF73.054337662337645
aF-0.38585897435902439
aF14.009132653061229
aF-8.3858589743590244
aF-67.385858974359024
aF-92.323635593220331
aF-12.608404145077799
aF73.97636440677968
aF-12.208404145077793
aF23.554337662337645
aF-34.091870129870074
aF3.5787710843372622
aF4.9763644067796804
aF-16.808404145077787
aF90.819773006134824
aF-25.920661538461502
aF-49.490867346938771
aF-110.42122891566274
aF-1.0712289156627435
aF22.514141025640981
aF8.1141410256409756
aF125.8915958549222
aF57.676364406779669
aF-12.385858974359024
aF2.5787710843372622
aF-42.608404145077799
aF-35.990867346938771
aF9.5787710843372622
aF-63.420661538461502
aF-6.4212289156627378
aF-20.171228915662738
aF-10.608404145077799
aF168.29159585492218
aF24.505773006134802
aF34.519773006134812
aF-50.99187012987008
aF-24.608404145077799
aF-74.323635593220331
aF-3.4908673469387708
aF-40.421228915662738
aF89.333333333333314
aF-21.608404145077799
aF23.114141025640976
aF35.097384615384613
aF-18.680226993865176
aF187.45636440677964
aF-26.708404145077793
aF-93.323635593220331
aF-50.608404145077799
aF84.509132653061229
aF-76.153356060606114
aF69.078771084337262
aF100.84664393939389
aF-60.152300000000025
aF68.614141025640976
aF-83.99187012987008
aF-8.420661538461502
aF-7.323635593220331
aF-22.108404145077799
aF-31.153356060606114
aF-12.485858974359019
aF-10.590867346938765
aF-46.402615384615387
aF-14.671228915662738
aF-23.421228915662738
aF-69.945662337662355
aF-47.385858974359024
aF-57.823635593220331
aF-10.49187012987008
aF38.554337662337645
aF-23.921228915662738
aF18.078771084337262
aF26.579338461538498
aF-41.180226993865176
aF0.50812987012992039
aF-65.421228915662738
aF-28.008404145077805
aF-41.708404145077793
aF-51.821228915662743
aF-87.823635593220331
aF-17.708404145077793
aF54.328771084337262
aF34.578771084337262
aF56.614141025640976
aF-62.635858974359024
aF-74.385858974359024
aF-21.471228915662749
aF47.614141025640976
aF27.578771084337262
aF-32.6444041450778
aF41.514141025640981
aF17.891595854922201
aF43.554337662337645
aF-57.385858974359024
aF-2.9908673469387708
aF-35.421228915662738
aF-25.180226993865176
aF-13.521228915662732
aF28.391595854922201
aF167.81664393939391
aF-23.152300000000025
aF107.8915958549222
aF38.597384615384613
aF-76.180226993865176
aF4.5787710843372622
aF104.81977300613482
aF13.568771084337271
aF-60.152300000000025
aF-17.990867346938771
aF-21.385858974359024
aF2.2915958549222069
aF-52.420661538461502
aF-67.108404145077799
aF-35.99187012987008
aF-76.99187012987008
aF3.3915958549222012
aF-0.42122891566273779
aF-25.323635593220331
aF28.819773006134824
aF-0.85840414507779883
aF68.391595854922201
aF22.614141025640976
aF-32.445662337662355
aF-14.385858974359024
aF-44.180226993865176
aF79.578771084337262
aF-1.920661538461502
aF-42.385858974359024
aF44.819773006134824
aF15.578771084337262
aF46.614141025640976
aF-81.445662337662355
aF-7.4026153846153875
aF-12.990867346938771
aF6.3466439393938856
aF-10.608404145077799
aF-2.9908673469387708
aF-35.385858974359024
aF121.07836440677966
aF-61.323635593220331
aF-16.323635593220331
aF-90.180226993865176
aF-71.421228915662738
aF-42.108404145077799
aF54.319773006134824
aF39.71977300613483
aF86.579338461538498
aF5.1141410256409756
aF161.17636440677967
aF4.8197730061348238
aF-14.790867346938768
aF34.009132653061229
aF-29.885858974359024
aF32.614141025640976
aF109.47064393939391
aF33.078771084337262
aF-5.420661538461502
aF-86.680226993865176
aF-20.415818181818196
aF121.00913265306123
aF5.6141410256409756
aF-31.180226993865176
aF27.819773006134824
aF-5.1533560606061144
aF-78.823635593220331
aF268.41633846153849
aF-50.421228915662738
aF39.597384615384613
aF48.491595854922195
aF-30.421228915662738
aF-15.180226993865176
aF-24.608404145077799
aF234.84769999999997
aF15.614141025640976
aF-81.153356060606114
aF1.7285958549222187
aF122.00812987012992
aF98.846643939393886
aF32.391595854922201
aF-14.445662337662355
aF-7.4026153846153875
aF-24.608404145077799
aF11.097384615384613
aF105.42633766233766
aF-5.1523000000000252
aF-13.990867346938771
aF68.454337662337622
aF-10.421228915662738
aF14.114141025640976
aF-39.608404145077799
aF-14.99187012987008
aF-27.402615384615387
aF-34.680226993865176
aF-107.42363559322033
aF-74.180226993865176
aF25.676364406779669
aF-5.4212289156627378
aF-19.990867346938771
aF28.614141025640976
aF102.25677108433726
aF-95.323635593220331
aF-54.403356060606114
aF-22.935858974359036
aF59.578771084337262
aF-50.385858974359024
aF78.079338461538498
aF29.837384615384622
aF-1.5456623376623497
aF49.578771084337262
aF-35.28022699386517
aF-60.385858974359024
aF134.92636440677967
aF-25.402615384615387
aF73.846643939393886
aF-31.402615384615387
aF-25.421228915662738
aF55.097384615384613
aF-58.445662337662355
aF151.67636440677967
aF-42.902615384615387
aF-29.185858974359036
aF64.891595854922201
aF-47.902615384615387
aF-20.945662337662355
aF44.078771084337262
aF102.81977300613482
aF-37.421228915662738
aF56.054337662337645
aF-53.49187012987008
aF-38.990867346938771
aF-96.153356060606114
aF54.578771084337262
aF84.114141025640976
aF-13.421228915662738
aF-75.180226993865176
aF-36.153356060606114
aF-18.737500000000011
aF-41.490867346938771
aF71.00812987012992
aF22.578771084337262
aF7.5787710843372622
aF-5.4212289156627378
aF79.578771084337262
aF57.078771084337262
aF69.578771084337262
aF16.319773006134824
aF-118.18022699386518
aF-57.420661538461502
aF69.554337662337645
aF0.57877108433726221
aF12.009132653061229
aF-44.990867346938771
aF-39.680226993865176
aF-31.153356060606114
aF29.078771084337262
aF-31.108404145077799
aF-3.6084041450777988
aF49.846643939393886
aF6.0841818181818041
aF74.819773006134824
aF-18.385858974359024
aF-25.921228915662738
aF53.391595854922201
aF-5.4456623376623554
aF-92.420661538461502
aF163.97436440677967
aF-24.153356060606114
aF12.346643939393886
aF33.391595854922201
aF43.50812987012992
aF38.154337662337639
aF27.59159585492219
aF0.70812987012990902
aF1.6141410256409756
aF-63.608404145077799
aF-35.385858974359024
aF3.1537710843372508
aF-0.19066153846151224
aF17.909132653061235
aF-84.180226993865176
aF1.579338461538498
aF9.6141410256409756
aF-9.1084041450777988
aF-99.323635593220331
aF87.391595854922201
aF-40.180226993865176
aF-92.823635593220331
aF-76.420661538461502
aF33.579338461538498
aF-46.323635593220331
aF-7.4858589743590187
aF61.579338461538498
aF148.51414102564095
aF-26.323635593220331
aF-62.108404145077799
aF-132.68022699386518
aF144.81977300613482
aF13.991595854922195
aF-19.608404145077799
aF-31.708404145077793
aF79.262499999999989
aF27.578771084337262
aF36.891595854922201
aF8.676364406779669
aF63.554337662337645
aF43.846643939393886
aF-63.823635593220331
aF109.22233846153853
aF138.81977300613482
aF84.846643939393886
aF8.1841326530612264
aF25.846643939393886
aF-76.99187012987008
aF166.61414102564098
aF-69.930226993865176
aF-0.68022699386517615
aF-39.990867346938771
aF-87.445662337662355
aF-12.608404145077799
aF77.554337662337645
aF55.391595854922201
aF41.578771084337262
aF-66.787500000000023
aF126.10236440677966
aF7.5543376623376446
aF-48.823635593220331
aF-60.180226993865176
aF-48.423635593220325
aF-68.421228915662738
aF-62.921228915662738
aF59.554337662337645
aF-52.402615384615387
aF22.209132653061218
aF-99.823635593220331
aF-75.920661538461502
aF16.597384615384613
aF197.00169999999997
aF111.61533766233762
aF26.00812987012992
aF-55.421228915662738
aF-44.521228915662732
aF-10.421228915662738
aF20.114141025640976
aF22.578771084337262
aF-29.99187012987008
aF-21.608404145077799
aF64.819773006134824
aF4.3915958549222012
aF-5.4212289156627378
aF46.891595854922201
aF-19.402615384615387
aF-43.420661538461502
aF-69.153356060606114
aF-47.445662337662355
aF14.578771084337262
aF-19.608404145077799
aF4.6141410256409756
aF21.978771084337268
aF-98.988661538461486
aF-26.608404145077799
aF-34.385858974359024
aF69.078771084337262
aF-96.385858974359024
aF-2.4212289156627378
aF123.84664393939389
aF179.25177300613478
aF28.578771084337262
aF-36.99187012987008
aF36.141595854922201
aF63.078771084337262
aF-74.421228915662738
aF-55.666666666666686
aF54.597384615384613
aF-69.421228915662738
aF-26.608404145077799
aF-15.445662337662355
aF210.81977300613482
aF-31.421228915662738
aF-0.18022699386517615
aF-43.921228915662738
aF-51.608404145077799
aF-48.385858974359024
aF-28.385858974359024
aF-28.608404145077799
aF17.891595854922201
aF-83.421228915662738
aF89.391595854922201
aF-5.823635593220331
aF-41.455662337662346
aF-49.385858974359024
aF42.819773006134824
aF-48.153356060606114
aF-7.3858589743590244
aF-42.385858974359024
aF-56.420661538461502
aF28.676364406779669
aF123.59664393939389
aF-146.44566233766236
aF-90.415818181818196
aF58.00812987012992
aF-35.421228915662738
aF11.846643939393886
aF-25.311662337662341
aF-2.1084041450777988
aF-1.1523000000000252
aF-24.421228915662738
aF-8.4212289156627378
aF54.691595854922213
aF-18.420661538461502
aF-127.15230000000003
aF98.846643939393886
aF-11.421228915662738
aF-2.4026153846153875
aF59.819773006134824
aF-41.413228915662742
aF43.791595854922207
aF-40.180226993865176
aF-52.002615384615382
aF-38.090867346938765
aF-14.902615384615387
aF-35.153356060606114
aF-56.402615384615387
aF-4.1533560606061144
aF-47.99187012987008
aF1.0091326530612292
aF-73.641870129870085
aF-105.18022699386518
aF321.5793384615385
aF-97.180226993865176
aF44.909132653061235
aF8.5081298701299204
aF59.578771084337262
aF-78.945662337662355
aF-43.420661538461502
aF-16.253356060606109
aF-30.921228915662738
aF2.0091326530612292
aF-7.9908673469387708
aF-15.666666666666686
aF53.578771084337262
aF59.578771084337262
aF30.614141025640976
aF18.114141025640976
aF-65.99187012987008
aF-39.666666666666686
aF43.009132653061229
aF-41.608404145077799
aF111.8265958549222
aF3.3915958549222012
aF-88.038228915662728
aF-26.480226993865188
aF-26.421228915662738
aF41.337384615384622
aF9.6141410256409756
aF-3.9212289156627378
aF34.819773006134824
aF36.578771084337262
aF60.391595854922201
aF-25.180226993865176
aF-15.99187012987008
aF188.67636440677967
aF87.00812987012992
aF-17.921228915662738
aF-42.423635593220325
aF128.67636440677967
aF139.61414102564098
aF-28.519867346938767
aF92.579338461538498
aF158.81977300613482
aF17.597384615384613
aF0.0081298701299203913
aF-19.108404145077799
aF-10.385858974359024
aF-1.3858589743590244
aF-40.180226993865176
aF-56.153356060606114
aF-51.402615384615387
aF-22.402615384615387
aF-17.421228915662738
aF-60.635661538461505
aF3.3915958549222012
aF-26.690867346938774
aF-116.70840414507779
aF214.81977300613482
aF33.578771084337262
aF-21.608404145077799
aF-31.608404145077799
aF-24.402615384615387
aF10.546643939393874
aF-10.421228915662738
aF55.579338461538498
aF9.5973846153846125
aF-27.108404145077799
aF64.578771084337262
aF56.691595854922213
aF10.578771084337262
aF-32.885858974359024
aF-86.423635593220325
aF51.056595854922193
aF-20.521228915662732
aF-16.421228915662738
aF-60.885858974359024
aF187.68077300613481
aF-58.153356060606114
aF48.846643939393886
aF60.578771084337262
aF17.846643939393886
aF-109.90335606060611
aF-65.180226993865176
aF-4.9918701298700796
aF-50.665818181818196
aF100.56977300613482
aF24.391595854922201
aF-119.32363559322033
aF194.93736440677964
aF-64.421228915662738
aF-34.791818181818172
aF17.614141025640976
aF10.009132653061229
aF-44.108404145077799
aF-78.690867346938774
aF27.578771084337262
aF-44.108404145077799
aF37.578771084337262
aF-103.93022699386518
aF-57.180226993865176
aF56.819773006134824
aF63.676364406779669
aF31.846643939393886
aF55.864141025640976
aF-30.99187012987008
aF-53.75566153846151
aF-22.323635593220331
aF59.578771084337262
aF-22.108404145077799
aF-25.421228915662738
aF112.57877108433726
aF-23.99187012987008
aF-5.4908673469387708
aF40.319773006134824
aF-42.421228915662738
aF67.846643939393886
aF-4.9908673469387708
aF-110.32363559322033
aF-49.385858974359024
aF-65.152300000000025
aF96.597384615384613
aF-93.680226993865176
aF12.614141025640976
aF-143.32363559322033
aF-55.152300000000025
aF16.676364406779669
aF-23.608404145077799
aF108.84664393939389
aF7.5543376623376446
aF101.41977300613485
aF-15.648404145077791
aF-108.72363559322034
aF-31.608404145077799
aF-26.823635593220331
aF12.614141025640976
aF-18.385858974359024
aF-31.921228915662738
aF27.009132653061229
aF-50.680226993865176
aF8.5973846153846125
aF-83.680226993865176
aF-69.423635593220325
aF38.11277300613483
aF-96.680226993865176
aF73.676364406779669
aF15.009132653061229
aF154.7197730061348
aF-27.385858974359024
aF-13.421228915662738
aF-97.152300000000025
aF-70.921228915662738
aF35.478771084337268
aF200.62636440677966
aF-13.608404145077799
aF-23.99187012987008
aF-41.608404145077799
aF103.81977300613482
aF-22.898615384615397
aF30.209129870129914
aF-33.823635593220331
aF13.597384615384613
aF58.846643939393886
aF-9.4212289156627378
aF3.8466439393938856
aF13.597384615384613
aF5.8197730061348238
aF-46.323635593220331
aF-63.180226993865176
aF73.391595854922201
aF143.91977300613485
aF-33.108404145077799
aF96.846643939393886
aF-9.3858589743590244
aF46.319773006134824
aF-3.4212289156627378
aF-61.902615384615387
aF-12.921228915662738
aF31.59159585492219
aF-46.108404145077799
aF99.632773006134812
aF89.819773006134824
aF-83.421228915662738
aF23.846643939393886
aF-16.608404145077799
aF31.097384615384613
aF-51.003356060606109
aF2.6141410256409756
aF-75.28022699386517
aF-4.3858589743590244
aF-80.180226993865176
aF18.078771084337262
aF-26.421228915662738
aF45.50812987012992
aF-132.68022699386518
aF-11.021228915662732
aF-7.6084041450777988
aF-16.153356060606114
aF-57.990867346938771
aF-24.990867346938771
aF-65.421228915662738
aF100.5691298701299
aF58.819773006134824
aF74.391595854922201
aF93.676364406779669
aF-64.153356060606114
aF164.43233766233769
aF-14.135858974359024
aF-53.308404145077802
aF-2.3858589743590244
aF3.3915958549222012
aF-52.902615384615387
aF55.528771084337251
aF-42.421228915662738
aF40.578771084337262
aF-81.153356060606114
aF192.61414102564098
aF-49.402615384615387
aF-11.885858974359024
aF-2.6084041450777988
aF-135.9206615384615
aF9.6141410256409756
aF-17.28022699386517
aF106.33333333333331
aF-141.32363559322033
aF-19.885858974359024
aF182.84769999999997
aF15.319773006134824
aF-104.4206615384615
aF41.891595854922201
aF-83.323635593220331
aF-77.680226993865176
aF23.078771084337262
aF-14.390867346938776
aF-50.180226993865176
aF6.176364406779669
aF-10.421228915662738
aF11.097384615384613
aF-119.44566233766236
aF-40.921228915662738
aF157.31977300613482
aF-28.885858974359024
aF-8.6084041450777988
aF-4.5578701298700821
aF35.597384615384613
aF69.819773006134824
aF-12.420661538461502
aF43.50812987012992
aF11.721643939393886
aF30.809132653061241
aF240.3915958549222
aF43.09159585492219
aF-22.99187012987008
aF514.84770000000003
aF94.847699999999975
aF-9.5108673469387668
aF23.509132653061229
aF-75.323635593220331
aF-28.990867346938771
aF5.5091326530612292
aF-11.921228915662738
aF32.00812987012992
aF61.176364406779669
aF-66.445662337662355
aF146.73877300613486
aF-11.608404145077799
aF62.578771084337262
aF-62.990867346938771
aF6.2624999999999886
aF136.00913265306122
aF29.118771084337254
aF-41.708404145077793
aF-111.99187012987008
aF-47.645228915662727
aF25.00812987012992
aF-28.385858974359024
aF-120.82363559322033
aF7.6141410256409756
aF-56.653356060606114
aF-0.38585897435902439
aF124.84664393939389
aF-28.885858974359024
aF123.3915958549222
aF-20.99187012987008
aF-27.108404145077799
aF-15.421228915662738
aF68.676364406779669
aF-31.108404145077799
aF-18.152300000000025
aF42.891595854922201
aF-105.18022699386518
aF-14.990867346938771
aF72.50812987012992
aF30.114141025640976
aF6.3466439393938856
aF-25.985858974359019
aF-42.421228915662738
aF-53.153356060606114
aF-56.921228915662738
aF23.746643939393891
aF21.614141025640976
aF39.578771084337262
aF-18.421228915662738
aF-9.6084041450777988
aF-27.445662337662355
aF-40.180226993865176
aF16.00812987012992
aF149.37877108433727
aF85.578771084337262
aF49.825643939393927
aF103.01414102564095
aF-52.421228915662738
aF-53.921228915662738
aF10.391595854922201
aF59.614141025640976
aF59.346643939393886
aF4.3915958549222012
aF35.097384615384613
aF-4.1533560606061144
aF-56.28022699386517
aF41.997384615384618
aF74.819773006134824
aF-22.921228915662738
aF-51.608404145077799
aF64.778771084337251
aF120.84664393939389
aF112.61414102564098
aF12.808364406779674
aF-19.653356060606114
aF-55.180226993865176
aF10.391337662337662
aF242.33333333333331
aF-16.708404145077793
aF-48.421228915662738
aF-44.608404145077799
aF-42.885858974359024
aF143.67636440677967
aF-1.9918701298700796
aF6.3197730061348238
aF-108.82363559322033
aF-6.4212289156627378
aF-22.385858974359024
aF24.391595854922201
aF24.291595854922207
aF-46.320661538461508
aF15.078771084337262
aF10.009132653061229
aF4.1141410256409756
aF-77.153356060606114
aF16.846643939393886
aF-10.090867346938765
aF-27.680226993865176
aF22.797384615384601
aF-68.380226993865165
aF53.636643939393906
aF18.554337662337645
aF-21.653356060606114
aF20.578771084337262
aF-6.9212289156627378
aF-41.608404145077799
aF233.67636440677967
aF23.391595854922201
aF-15.180226993865176
aF-54.091870129870074
aF38.578771084337262
aF331.60936440677966
aF-32.421228915662738
aF12.499773006134831
aF-21.885858974359024
aF-16.652300000000025
aF-91.373635593220342
aF-44.421228915662738
aF23.614141025640976
aF-19.49187012987008
aF-94.428228915662743
aF0.5141410256409813
aF-34.421228915662738
aF9.7197730061348295
aF-78.180226993865176
aF19.676364406779669
aF4.5787710843372622
aF106.00913265306123
aF31.391595854922201
aF-24.990867346938771
aF9.8197730061348238
aF-17.885858974359024
aF17.419773006134818
aF133.67636440677967
aF-8.4908673469387708
aF-17.445662337662355
aF-50.415818181818196
aF9.9973846153846182
aF-49.180226993865176
aF13.597384615384613
aF86.578771084337262
aF-39.445662337662355
aF-11.65840414507781
aF-29.385858974359024
aF-52.945662337662355
aF-37.402615384615387
aF-62.445662337662355
aF-84.680226993865176
aF-75.180226993865176
aF-58.653356060606114
aF24.478771084337268
aF-65.445662337662355
aF-61.28022699386517
aF-62.420661538461502
aF62.578771084337262
aF-99.920661538461502
aF-55.666666666666686
aF36.578771084337262
aF-32.49187012987008
aF77.597384615384613
aF12.391595854922201
aF-57.180226993865176
aF-63.420661538461502
aF-24.608404145077799
aF-10.385858974359024
aF23.578771084337262
aF-5.3858589743590244
aF33.846643939393886
aF38.34159585492219
aF-83.680226993865176
aF-5.3858589743590244
aF-19.108404145077799
aF44.134337662337657
aF-1.9212289156627378
aF42.45433766233765
aF-22.608404145077799
aF-82.323635593220331
aF19.846643939393886
aF-8.4908673469387708
aF50.078771084337262
aF-34.421228915662738
aF-82.180226993865176
aF-51.490867346938771
aF97.031337662337677
aF-107.90230000000003
aF199.57877108433726
aF-67.180226993865176
aF-15.108404145077799
aF5.3915958549222012
aF-63.823635593220331
aF27.578771084337262
aF0.50913265306122923
aF-51.608404145077799
aF164.9081298701299
aF-61.445662337662355
aF-97.920661538461502
aF34.579338461538498
aF-65.680226993865176
aF-27.521228915662732
aF-43.653356060606114
aF4.0787710843372622
aF-86.323635593220331
aF-32.750404145077809
aF-11.608404145077799
aF-43.921228915662738
aF-8.6554041450777959
aF360.33336440677959
aF-16.608404145077799
aF-41.608404145077799
aF2.5787710843372622
aF28.391595854922201
aF-11.323635593220331
aF7.5091326530612292
aF-29.385858974359024
aF3.676364406779669
aF33.846643939393886
aF-19.421228915662738
aF-41.180226993865176
aF-61.853356060606103
aF-62.945662337662355
aF-29.990867346938771
aF27.009132653061229
aF36.330384615384617
aF-62.402615384615387
aF-115.11022891566273
aF-98.420661538461502
aF-13.323635593220331
aF19.114141025640976
aF50.578771084337262
aF-4.5212289156627321
aF-36.455662337662346
aF41.391595854922201
aF50.114141025640976
aF-58.420661538461502
aF69.819773006134824
aF-40.153356060606114
aF21.319773006134824
aF-29.323635593220331
aF-5.4456623376623554
aF-32.921228915662738
aF104.81977300613482
aF-16.445662337662355
aF1.8476999999999748
aF-38.090867346938765
aF27.514141025640981
aF36.846643939393886
aF33.353337662337651
aF4.2476999999999805
aF-64.28022699386517
aF63.578771084337262
aF-1.6084041450777988
aF-97.152300000000025
aF-113.82363559322033
aF-25.521228915662732
aF-8.6084041450777988
aF18.676364406779669
aF-58.823635593220331
aF40.114141025640976
aF-22.608404145077799
aF-31.708404145077793
aF-17.708404145077793
aF-44.153356060606114
aF-29.885858974359024
aF-6.6084041450777988
aF-13.402615384615387
aF-19.608404145077799
aF34.578771084337262
aF17.597384615384613
aF-35.108404145077799
aF56.819773006134824
aF17.597384615384613
aF23.819773006134824
aF-1.2533560606061087
aF-37.253356060606109
aF9.5787710843372622
aF-16.608404145077799
aF-80.090867346938779
aF-17.385858974359024
aF-22.385858974359024
aF35.597384615384613
aF-52.108404145077799
aF-33.180226993865176
aF-48.653356060606114
aF27.597384615384613
aF-32.490867346938771
aF35.908129870129926
aF-40.421228915662738
aF-11.421228915662738
aF-36.78022699386517
aF120.81977300613482
aF22.492384615384623
aF39.746643939393891
aF-90.153356060606114
aF-32.385858974359024
aF-0.99086734693877077
aF237.80614102564093
aF-20.180226993865176
aF46.578771084337262
aF131.84664393939389
aF-65.420661538461502
aF-29.153356060606114
aF23.478771084337268
aF122.31977300613482
aF-42.391870129870085
aF-20.885858974359024
aF-30.180226993865176
aF-66.385858974359024
aF54.391595854922201
aF-75.385858974359024
aF-31.990867346938771
aF16.819773006134824
aF-78.275226993865175
aF43.597384615384613
aF-0.52122891566273211
aF-51.680226993865176
aF-49.402615384615387
aF24.819773006134824
aF-15.990867346938771
aF-105.15230000000003
aF-57.385858974359024
aF-51.153356060606114
aF-66.608404145077799
aF-95.980226993865173
aF76.578771084337262
aF-12.180226993865176
aF69.509132653061229
aF-56.153356060606114
aF76.087384615384622
aF24.391595854922201
aF42.391595854922201
aF-63.421228915662738
aF53.597384615384613
aF53.579338461538498
aF-39.108404145077799
aF17.078771084337262
aF135.69114102564097
aF-45.421228915662738
aF-19.402615384615387
aF8.3915958549222012
aF-36.420661538461502
aF58.676364406779669
aF78.391595854922201
aF1.7591326530612292
aF-73.385858974359024
aF100.31977300613482
aF80.554337662337645
aF-40.402615384615387
aF-57.402615384615387
aF-96.323635593220331
aF22.578771084337262
aF32.00812987012992
aF47.099773006134797
aF71.554337662337645
aF-111.72363559322034
aF323.16033846153852
aF-5.4212289156627378
aF-125.15230000000003
aF-72.485858974359019
aF-29.960662337662342
aF-15.039226993865185
aF14.578771084337262
aF-5.9212289156627378
aF38.846643939393886
aF-35.180226993865176
aF34.241595854922195
aF12.584181818181804
aF118.84664393939389
aF3.8466439393938856
aF49.50812987012992
aF-152.4206615384615
aF-161.32363559322033
aF-7.4908673469387708
aF-3.3858589743590244
aF76.676364406779669
aF26.391595854922201
aF-48.253356060606109
aF-12.591870129870074
aF-22.385858974359024
aF-22.385858974359024
aF-61.180226993865176
aF-60.108404145077799
aF7.8915958549222012
aF-12.445662337662355
aF-31.823635593220331
aF12.614141025640976
aF-94.620661538461491
aF-8.0918701298700739
aF-24.421228915662738
aF-12.385858974359024
aF-18.608404145077799
aF-14.445662337662355
aF9.5787710843372622
aF-63.823635593220331
aF-3.4212289156627378
aF-53.902615384615387
aF35.846643939393886
aF0.097384615384612516
aF33.00812987012992
aF-57.521228915662732
aF22.597384615384613
aF-13.921228915662738
aF-4.4212289156627378
aF11.009132653061229
aF-30.013662337662339
aF-24.608404145077799
aF6.0081298701299204
aF10.009132653061229
aF-58.180226993865176
aF-90.421228915662738
aF-37.885858974359024
aF-16.608404145077799
aF9.0787710843372622
aF-31.402615384615387
aF109.81977300613482
aF22.514141025640981
aF34.572699999999998
aF30.578771084337262
aF64.819773006134824
aF36.391595854922201
aF-11.153356060606114
aF-21.708404145077793
aF-15.921228915662738
aF-0.99086734693877077
aF102.81977300613482
aF32.491595854922195
aF-27.385858974359024
aF-111.32363559322033
aF-17.90840414507781
aF-32.021228915662732
aF6.4543376623376503
aF-38.421228915662738
aF-32.421228915662738
aF13.478771084337268
aF-42.385858974359024
aF10.00812987012992
aF7.676364406779669
aF-0.18022699386517615
aF-11.608404145077799
aF-16.608404145077799
aF-63.885858974359024
aF-98.653356060606114
aF23.346643939393886
aF18.578771084337262
aF-15.990867346938771
aF-38.385858974359024
aF-23.990867346938771
aF38.614141025640976
aF-6.4212289156627378
aF-12.608404145077799
aF-18.653356060606114
aF208.71664393939389
aF-70.421228915662738
aF-135.18022699386518
aF31.009132653061229
aF22.614141025640976
aF-40.680226993865176
aF-1.0908673469387651
aF-7.4212289156627378
aF-26.421228915662738
aF-83.520661538461496
aF-21.323635593220331
aF2.5091326530612292
aF-49.52363559322032
aF60.614141025640976
aF29.478771084337268
aF66.00812987012992
aF19.94777300613481
aF34.578771084337262
aF8.5973846153846125
aF-27.323635593220331
aF-21.421228915662738
aF-106.22122699386517
aF-39.420661538461502
aF26.724337662337632
aF38.904337662337639
aF-43.153356060606114
aF-16.323635593220331
aF389.58418181818183
aF13.614141025640976
aF12.578771084337262
aF7.9081298701299261
aF-32.920661538461502
aF5.579338461538498
aF68.846643939393886
aF-32.108404145077799
aF-48.99187012987008
aF3.2915958549222069
aF-57.421228915662738
aF33.846643939393886
aF228.50812987012992
aF511.5793384615385
aF-37.385858974359024
aF-48.715818181818207
aF-52.485858974359019
aF-121.15335606060611
aF46.819773006134824
aF44.578771084337262
aF37.391595854922201
aF-67.415818181818196
aF36.597384615384613
aF-25.421228915662738
aF1.0081298701299204
aF7.5787710843372622
aF25.578771084337262
aF-32.113635593220323
aF-6.4212289156627378
aF-28.445662337662355
aF-67.180226993865176
aF-34.371228915662741
aF-18.253356060606109
aF-0.99086734693877077
aF6.5543376623376446
aF-3.8858589743590244
aF20.576364406779646
aF-43.421228915662738
aF-6.4456623376623554
aF-11.608404145077799
aF132.61414102564098
aF-27.153356060606114
aF-51.180226993865176
aF-37.421228915662738
aF-12.385858974359024
aF-22.885858974359024
aF-26.608404145077799
aF-38.421228915662738
aF79.034771084337251
aF-37.490867346938771
aF-45.902615384615387
aF-36.608404145077799
aF-16.421228915662738
aF-73.153356060606114
aF-68.54566233766235
aF-49.420661538461502
aF-12.385858974359024
aF-37.323635593220331
aF-3.4212289156627378
aF216.8727710843373
aF-24.608404145077799
aF-43.420661538461502
aF-19.108404145077799
aF-55.585858974359027
aF-73.180226993865176
aF-20.421228915662738
aF-112.43663559322033
aF38.097384615384613
aF-20.180226993865176
aF-108.82363559322033
aF59.454337662337622
aF74.478771084337268
aF41.882337662337648
aF12.614141025640976
aF213.67636440677967
aF13.846643939393886
aF-37.180226993865176
aF36.078771084337262
aF-45.28022699386517
aF-86.653356060606114
aF-32.608404145077799
aF28.819773006134824
aF34.347384615384613
aF-27.385858974359024
aF60.579338461538498
aF13.791595854922207
aF9.5091326530612292
aF50.176364406779669
aF-64.091870129870074
aF32.614141025640976
aF-6.3858589743590244
aF-59.152300000000025
aF-28.485858974359019
aF-54.653356060606114
aF-70.823635593220331
aF17.00812987012992
aF19.908129870129926
aF-94.153356060606114
aF127.17636440677967
aF129.67636440677967
aF-72.153356060606114
aF19.847699999999975
aF-20.695662337662355
aF-114.32363559322033
aF-38.180226993865176
aF21.009132653061229
aF-79.153356060606114
aF-53.180226993865176
aF-35.520661538461496
aF20.846643939393886
aF-83.208404145077793
aF20.554337662337645
aF28.391595854922201
aF0.078771084337262209
aF-11.421228915662738
aF-47.153356060606114
aF14.509132653061229
aF-14.385858974359024
aF-45.415818181818196
aF160.00913265306122
aF64.846643939393886
aF-70.823635593220331
aF-17.902615384615387
aF-10.490867346938771
aF-53.253356060606109
aF-35.421228915662738
aF-11.921228915662738
aF4.5787710843372622
aF-23.99187012987008
aF-135.66666666666669
aF2.3915958549222012
aF8.8466439393938856
aF25.891595854922201
aF73.846643939393886
aF25.554337662337645
aF-7.4026153846153875
aF73.676364406779669
aF50.891595854922201
aF-13.608404145077799
aF-68.180226993865176
aF27.59159585492219
aF101.5793384615385
aF52.578771084337262
aF85.846643939393886
aF81.844364406779675
aF-32.608404145077799
aF-9.2533560606061087
aF89.04733766233764
aF44.908129870129926
aF23.676364406779669
aF-46.385858974359024
aF6.0787710843372622
aF-45.490867346938771
aF-26.153356060606114
aF-35.490867346938771
aF-59.445662337662355
aF-108.99187012987008
aF-84.99187012987008
aF12.509132653061229
aF39.846643939393886
aF26.078771084337262
aF20.554337662337645
aF-24.885858974359024
aF-50.421228915662738
aF-26.108404145077799
aF-12.402615384615387
aF10.514141025640981
aF-71.445662337662355
aF-111.49187012987008
aF-51.323635593220331
aF-28.885858974359024
aF-27.421228915662738
aF-96.323635593220331
aF22.054337662337645
aF25.391595854922201
aF-60.318356060606106
aF-9.4908673469387708
aF22.347699999999975
aF32.139364406779634
aF-18.420661538461502
aF4.0091326530612292
aF-16.153356060606114
aF20.578771084337262
aF16.909132653061235
aF158.67636440677967
aF18.846643939393886
aF-46.153356060606114
aF-40.421228915662738
aF-65.28022699386517
aF40.097384615384613
aF81.579338461538498
aF-27.153356060606114
aF26.579338461538498
aF-110.28022699386517
aF6.5107710843372786
aF6.7493846153846278
aF64.391595854922201
aF42.578771084337262
aF-10.402615384615387
aF-19.99187012987008
aF74.614141025640976
aF-12.990867346938771
aF8.1141410256409756
aF58.146643939393897
aF251.31977300613482
aF33.846643939393886
aF23.819773006134824
aF-26.990867346938771
aF-99.153356060606114
aF-54.402615384615387
aF17.078771084337262
aF-91.921228915662738
aF-13.823635593220331
aF5.3915958549222012
aF-128.15230000000003
aF-45.421228915662738
aF7.5091326530612292
aF16.579338461538498
aF-14.421228915662738
aF126.17636440677967
aF13.009132653061229
aF84.578771084337262
aF-82.445662337662355
aF-28.608404145077799
aF-53.153356060606114
aF82.586129870129923
aF66.032773006134789
aF-135.66666666666669
aF19.509132653061229
aF-13.608404145077799
aF19.459132653061218
aF2.0091326530612292
aF41.391595854922201
aF75.888132653061248
aF31.598364406779694
aF-111.15335606060611
aF111.00812987012992
aF-17.421228915662738
aF-38.421228915662738
aF-26.108404145077799
aF-25.152300000000025
aF14.819773006134824
aF-10.421228915662738
aF-61.608404145077799
aF41.819773006134824
aF-44.323635593220331
aF11.908129870129926
aF-93.653356060606114
aF106.5793384615385
aF-26.421228915662738
aF-10.420661538461502
aF-35.28022699386517
aF-36.49187012987008
aF-27.49187012987008
aF41.549338461538525
aF-13.385858974359024
aF-15.385858974359024
aF54.846643939393886
aF-76.153356060606114
aF-32.608404145077799
aF-32.28022699386517
aF-48.012300000000039
aF-20.24187012987008
aF-92.885858974359024
aF-29.653356060606114
aF-73.420661538461502
aF-32.445662337662355
aF-29.921228915662738
aF179.43677300613479
aF-1.9084041450778102
aF-19.153356060606114
aF-25.153356060606114
aF-14.691870129870068
aF93.846643939393886
aF-29.421228915662738
aF-26.845662337662361
aF-21.421228915662738
aF-82.25230000000002
aF23.846643939393886
aF-103.18022699386518
aF-45.402615384615387
aF-14.421228915662738
aF80.64433766233762
aF-18.99187012987008
aF-148.9206615384615
aF33.391595854922201
aF23.391595854922201
aF-41.323635593220331
aF116.07877108433726
aF-15.260858974359024
aF-9.8858589743590244
a(lp2494
F117.99086734693877
aF157.38585897435902
aF235.4158181818182
aF240.15230000000003
aF251.32363559322033
aF216.15335606060611
aF137.40261538461539
aF151.6084041450778
aF206.44566233766236
aF215.18022699386518
aF295.73750000000001
aF150.42122891566274
aF163.99187012987008
aF233.4206615384615
aF295.66666666666669
at.