((lp1
(dp2
S'MasVnrAreaBrkCmn'
p3
F0.055555555555555552
sS'LotConfig'
p4
F1
sS'NeighborhoodMod'
p5
F0.3888888888888889
sS'OpenPorchSF'
p6
F274.88888888888891
sS'MasVnrAreaStone'
p7
F0.22222222222222221
sS'MasVnrTypeMetalSd'
p8
F0.1111111111111111
sS'UtilitiesLow'
p9
F0.3888888888888889
sS'EnclosedPorch'
p10
F107.94444444444444
sS'UtilitiesLvl'
p11
F0.27777777777777779
sS'MasVnrTypeStone'
p12
F0.055555555555555552
sS'SaleConditionNew'
p13
F0.1111111111111111
sS'KitchenAbvGr'
p14
F3.0555555555555554
sS'FoundationTA'
p15
F0.83333333333333337
sS'FireplacesMod'
p16
F0.1111111111111111
sS'Condition1NoRidge'
p17
F0.1111111111111111
sS'Condition1Gilbert'
p18
F0.055555555555555552
sS'MasVnrTypeWd Sdng'
p19
F0.22222222222222221
sS'Condition1Mitchel'
p20
F0.055555555555555552
sS'RoofMatlFlat'
p21
F0.1111111111111111
sS'FullBath'
p22
F0.055555555555555552
sS'BsmtFinType1Mn'
p23
F0.055555555555555552
sS'BsmtFinSF1Rec'
p24
F0.22222222222222221
sS'MSSubClass'
p25
F1
sS'MasVnrAreaNone'
p26
F0.44444444444444442
sS'BsmtFinSF2Rec'
p27
F0.1111111111111111
sS'BsmtFinSF1BLQ'
p28
F0.22222222222222221
sS'BsmtFinType2'
p29
F1292.0555555555557
sS'BsmtQualCBlock'
p30
F0.55555555555555558
sS'PoolArea'
p31
F36
sS'Exterior2ndWd Sdng'
p32
F0.27777777777777779
sS'RemodAddAge'
p33
F33.722222222222221
sS'LandSlopeInside'
p34
F0.5
sS'Exterior1stTar&Grv'
p35
F0.055555555555555552
sS'Functional'
p36
F7.7777777777777777
sS'Alley'
p37
F45127.111111111109
sS'Condition2Feedr'
p38
F0.1111111111111111
sS'BsmtQualBrkTil'
p39
F0.055555555555555552
sS'MSZoning'
p40
F53.888888888888886
sS'PoolQC'
p41
F26.666666666666668
sS'SaleConditionWD'
p42
F0.88888888888888884
sS'WoodDeckSFN'
p43
F0.1111111111111111
sS'CentralAirFa'
p44
F0.1111111111111111
sS'GarageTypeNA'
p45
F0.1111111111111111
sS'ElectricalY'
p46
F0.94444444444444442
sS'Exterior1stCompShg'
p47
F0.72222222222222221
sS'GarageTypeFa'
p48
F0.055555555555555552
sS'OverallCond'
p49
F6.7222222222222223
sS'RoofMatlGable'
p50
F0.3888888888888889
sS'Condition1Veenker'
p51
F0.055555555555555552
sS'ExterCondTA'
p52
F0.55555555555555558
sS'GarageFinishAttchd'
p53
F0.66666666666666663
sS'BsmtQualPConc'
p54
F0.3888888888888889
sS'BsmtFinSF1ALQ'
p55
F0.1111111111111111
sS'GrLivArea'
p56
F0
sS'Exterior1stMembran'
p57
F0.055555555555555552
sS'ElectricalN'
p58
F0.055555555555555552
sS'LandContourIR1'
p59
F0.55555555555555558
sS'LandContourIR2'
p60
F0.22222222222222221
sS'LandContourIR3'
p61
F0.055555555555555552
sS'GarageTypeTA'
p62
F0.44444444444444442
sS'FireplacesTyp'
p63
F0.72222222222222221
sS'BldgTypePosN'
p64
F0.055555555555555552
sS'Exterior2ndPlywood'
p65
F0.16666666666666666
sS'BsmtFinSF2GLQ'
p66
F0.055555555555555552
sS'PavedDriveTA'
p67
F1
sS'BsmtHalfBath'
p68
F1
sS'HouseAgeAlloca'
p69
F0.055555555555555552
sS'MasVnrTypeHdBoard'
p70
F0.1111111111111111
sS'BsmtCondGd'
p71
F0.33333333333333331
sS'MasVnrTypeCmentBd'
p72
F0.055555555555555552
sS'RoofMatlHip'
p73
F0.5
sS'MasVnrTypeWd Shng'
p74
F0.1111111111111111
sS'BsmtExposureGd'
p75
F0.1111111111111111
sS'CentralAirGd'
p76
F0.1111111111111111
sS'Condition1Timber'
p77
F0.1111111111111111
sS'GarageCondTA'
p78
F0.94444444444444442
sS'YrSold'
p79
F5.833333333333333
sS'UtilitiesBnk'
p80
F0.27777777777777779
sS'Heating'
p81
F1801.7222222222222
sS'Exterior2ndWdShing'
p82
F0.055555555555555552
sS'NeighborhoodSev'
p83
F0.1111111111111111
sS'WoodDeckSFY'
p84
F0.83333333333333337
sS'BsmtFinSF1LwQ'
p85
F0.055555555555555552
sS'WoodDeckSFP'
p86
F0.055555555555555552
sS'Exterior2ndHdBoard'
p87
F0.1111111111111111
sS'Exterior2ndMetalSd'
p88
F0.1111111111111111
sS'Condition2Norm'
p89
F0.83333333333333337
sS'ExterQual'
p90
F287.5
sS'GarageFinishDetchd'
p91
F0.1111111111111111
sS'Exterior2ndStucco'
p92
F0.055555555555555552
sS'GarageCarsFin'
p93
F0.55555555555555558
sS'SalePriceThousands'
p94
F23.555555555555557
sS'HouseStyle2fmCon'
p95
F0.1111111111111111
sS'GarageTypeGd'
p96
F0.3888888888888889
sS'NeighborhoodGtl'
p97
F0.5
sS'FoundationGd'
p98
F0.16666666666666666
sS'HouseAgePartial'
p99
F0.1111111111111111
sS'BsmtFinType1No'
p100
F0.16666666666666666
sS'BsmtFullBath'
p101
F2337.4444444444443
sS'MasVnrAreaBrkFace'
p102
F0.22222222222222221
sS'Exterior2ndCemntBd'
p103
F0.1111111111111111
sS'BsmtExposureTA'
p104
F0.88888888888888884
sS'LandSlopeCorner'
p105
F0.16666666666666666
sS'LotArea'
p106
F68.277777777777771
sS'MiscValNA'
p107
F1
sS'FireplacesMin1'
p108
F0.1111111111111111
sS'ExterCondGd'
p109
F0.27777777777777779
sS'Exterior1stClyTile'
p110
F0.055555555555555552
sS'RoofStyle'
p111
F5.2222222222222223
sS'X3SsnPorch'
p112
F13.888888888888889
sS'MoSold'
p113
F0
sS'Exterior1stWdShngl'
p114
F0.1111111111111111
sS'BsmtUnfSF'
p115
F87.611111111111114
sS'GarageFinish2Types'
p116
F0.1111111111111111
sS'CentralAirEx'
p117
F0.5
sS'LandSlopeCulDSac'
p118
F0.33333333333333331
sS'SaleType'
p119
F2007.5555555555557
sS'ScreenPorch'
p120
F0
sS'BsmtCondTA'
p121
F0.44444444444444442
sS'X2ndFlrSF'
p122
F1861.8888888888889
sS'FireplaceQu'
p123
F1.4444444444444444
sS'Condition1ClearCr'
p124
F0.33333333333333331
sS'KitchenQual'
p125
F1.0555555555555556
sS'X1stFlrSFSBrkr'
p126
F1
sS'BsmtCondEx'
p127
F0.22222222222222221
sS'TotRmsAbvGrdTA'
p128
F0.5
sS'OverallQual1Story'
p129
F0.61111111111111116
sS'MasVnrTypeStucco'
p130
F0.055555555555555552
sS'TotRmsAbvGrdEx'
p131
F0.16666666666666666
sS'MasVnrTypeVinylSd'
p132
F0.055555555555555552
sS'GarageAge'
p133
F36.5
sS'HouseAgeNormal'
p134
F0.83333333333333337
sS'GarageCarsRFn'
p135
F0.16666666666666666
sS'LotFrontageRL'
p136
F1
sS'BsmtFinType1Av'
p137
F0.22222222222222221
sS'GarageCondFa'
p138
F0.055555555555555552
sS'MiscFeatureNA'
p139
F1
sS'LowQualFinSF'
p140
F475.55555555555554
sS'FenceGd'
p141
F0.055555555555555552
sS'LandContourReg'
p142
F0.16666666666666666
sS'BldgTypeNorm'
p143
F0.94444444444444442
sS'BsmtFinSF1GLQ'
p144
F0.33333333333333331
sS'GarageQual'
p145
F714.27777777777783
sS'Exterior2ndVinylSd'
p146
F0.055555555555555552
sS'HalfBath'
p147
F1.7777777777777777
sS'OverallQual1.5Fin'
p148
F0.055555555555555552
sS'HouseStyle1Fam'
p149
F0.88888888888888884
sS'Condition1Crawfor'
p150
F0.055555555555555552
sS'ExterCondEx'
p151
F0.16666666666666666
sS'FireplacesMaj1'
p152
F0.055555555555555552
sS'TotalBsmtSF'
p153
F422.05555555555554
sS'Condition2PosN'
p154
F0.055555555555555552
sS'Exterior2ndBrkFace'
p155
F0.055555555555555552
sS'UtilitiesHLS'
p156
F0.055555555555555552
sS'Condition1StoneBr'
p157
F0.055555555555555552
sS'GarageArea'
p158
F2.4444444444444446
sS'TotRmsAbvGrdGd'
p159
F0.33333333333333331
sS'BsmtFinSF2Unf'
p160
F0.83333333333333337
sS'OverallQual2Story'
p161
F0.33333333333333331
sS'MasVnrAreaNA'
p162
F0.055555555555555552
sS'GarageCarsUnf'
p163
F0.27777777777777779
sS'BsmtFinType1Gd'
p164
F0.55555555555555558
sS'BedroomAbvGr'
p165
F0.44444444444444442
sS'CentralAirTA'
p166
F0.27777777777777779
sS'Condition1Edwards'
p167
F0.1111111111111111
sS'Condition1NAmes'
p168
F0.055555555555555552
sS'HeatingQCGasA'
p169
F1
sS'MasVnrTypePlywood'
p170
F0.22222222222222221
sS'BsmtFinSF1Unf'
p171
F0.055555555555555552
sS'FenceNA'
p172
F0.94444444444444442
sS'GarageFinishBuiltIn'
p173
F0.1111111111111111
sS'LotShapeNA'
p174
F1
sS'Id'
p175
F726.11111111111109
sa(dp176
S'MasVnrAreaBrkCmn'
p177
F0.0092699884125144842
sS'GarageCarsNA'
p178
F0.044032444959443799
sg4
F1
sS'BsmtCondNA'
p179
F0.0220162224797219
sS'OverallQualSFoyer'
p180
F0.02085747392815759
sg6
F93.475086906141371
sS'MasVnrAreaStone'
p181
F0.081112398609501743
sS'BsmtCondFa'
p182
F0.02085747392815759
sS'HeatingQCOthW'
p183
F0.0011587485515643105
sS'MasVnrTypeMetalSd'
p184
F0.12977983777520277
sS'UtilitiesLow'
p185
F0.012746234067207415
sS'Exterior2ndAsphShn'
p186
F0.0011587485515643105
sS'Exterior1stRoll'
p187
F0.0011587485515643105
sS'Exterior2ndAsbShng'
p188
F0.012746234067207415
sg10
F46.465816917728851
sS'X1stFlrSFMix'
p189
F0.0011587485515643105
sS'UtilitiesLvl'
p190
F0.92468134414831982
sS'BsmtFinSF2NA'
p191
F0.023174971031286212
sS'X1stFlrSFFuseF'
p192
F0.019698725376593278
sS'MasVnrTypeStone'
p193
F0.0011587485515643105
sS'RoofMatlGambrel'
p194
F0.0081112398609501733
sS'PavedDriveGd'
p195
F0.0081112398609501733
sS'BsmtExposurePo'
p196
F0.0023174971031286211
sS'HouseAgeAbnorml'
p197
F0.062572421784472768
sg14
F3.0011587485515645
sS'MiscFeatureMnPrv'
p198
F0.11935110081112399
sS'MasVnrTypeAsbShng'
p199
F0.013904982618771726
sS'FoundationTA'
p200
F0.89339513325608344
sS'HouseAgeAlloca'
p201
F0.0046349942062572421
sS'FireplacesMod'
p202
F0.010428736964078795
sS'PavedDriveNA'
p203
F0.044032444959443799
sS'Condition1Gilbert'
p204
F0.069524913093858637
sS'BsmtCondEx'
p205
F0.076477404403244492
sS'GarageCarsRFn'
p206
F0.32792584009269987
sS'PavedDriveFa'
p207
F0.030127462340672075
sS'HouseStyleDuplex'
p208
F0.04287369640787949
sS'RoofMatlFlat'
p209
F0.0034762456546929316
sg22
F0.055619930475086905
sS'MiscValGar2'
p210
F0.0011587485515643105
sS'BsmtFinType1Mn'
p211
F0.083429895712630361
sS'BsmtFinSF1Rec'
p212
F0.1100811123986095
sg25
F1
sS'BldgTypeArtery'
p213
F0.0011587485515643105
sS'MasVnrAreaNone'
p214
F0.57705677867902661
sS'BsmtFinSF2Rec'
p215
F0.031286210892236384
sS'LotFrontageFV'
p216
F0.034762456546929318
sS'BsmtFinSF1BLQ'
p217
F0.10312862108922363
sg29
F431.98261877172655
sS'BsmtQualCBlock'
p218
F0.44959443800695248
sg31
F16.0162224797219
sS'Exterior2ndWd Sdng'
p219
F0.12398609501738123
sg33
F27.460023174971031
sS'MiscFeatureGdWo'
p220
F0.045191193511008108
sS'MiscFeatureGdPrv'
p221
F0.046349942062572425
sS'LandSlopeInside'
p222
F0.73580533024333716
sS'GarageTypeEx'
p223
F0.012746234067207415
sg36
F6.6662804171494789
sg37
F10024.016222479722
sS'SaleConditionOth'
p224
F0.0034762456546929316
sS'OverallQual2.5Fin'
p225
F0.0034762456546929316
sS'BsmtQualBrkTil'
p226
F0.079953650057937434
sg40
F47.468134414831979
sg41
F1.418308227114716
sS'SaleConditionWD'
p227
F0.86210892236384706
sS'GarageFinishBasment'
p228
F0.011587485515643106
sS'Condition1IDOTRR'
p229
F0.0220162224797219
sS'BldgTypeFeedr'
p230
F0.0046349942062572421
sS'WoodDeckSFN'
p231
F0.056778679026651215
sS'CentralAirFa'
p232
F0.030127462340672075
sS'GarageTypeNA'
p233
F0.47276940903823872
sS'BldgTypeRRNn'
p234
F0.0011587485515643105
sS'LotShapeGrvl'
p235
F0.038238702201622246
sS'ElectricalY'
p236
F0.93858632676709153
sS'Exterior1stTar&Grv'
p237
F0.0046349942062572421
sS'Condition2RRNe'
p238
F0.0023174971031286211
sS'Exterior1stCompShg'
p239
F0.98957126303592124
sS'GarageTypeFa'
p240
F0.025492468134414831
sS'Condition1NWAmes'
p241
F0.069524913093858637
sg49
F6.0973348783314023
sS'RoofMatlGable'
p242
F0.7705677867902665
sS'SaleConditionConLI'
p243
F0.0046349942062572421
sS'Condition1Veenker'
p244
F0.0081112398609501733
sS'ExterCondTA'
p245
F0.6292004634994206
sS'CentralAirGd'
p246
F0.16685979142526072
sS'MasVnrTypeBrkFace'
p247
F0.023174971031286212
sS'BsmtQualPConc'
p248
F0.44959443800695248
sS'BsmtFinSF1ALQ'
p249
F0.14484356894553882
sg56
F4.038238702201622
sS'ElectricalN'
p250
F0.061413673232908458
sS'LandContourIR1'
p251
F0.35689455388180763
sS'LandContourIR2'
p252
F0.017381228273464659
sS'Condition1CollgCr'
p253
F0.13673232908458866
sS'GarageTypeTA'
p254
F0.23174971031286212
sS'FireplacesTyp'
p255
F0.93742757821552725
sS'LotFrontageRM'
p256
F0.070683661645422946
sS'PavedDriveEx'
p257
F0.0011587485515643105
sS'Exterior2ndPlywood'
p258
F0.081112398609501743
sS'BsmtFinSF2GLQ'
p259
F0.010428736964078795
sS'GarageFinishCarPort'
p260
F0.0081112398609501733
sS'PavedDriveTA'
p261
F0.90845886442641943
sg68
F0.40903823870220163
sS'MasVnrTypeAsphShn'
p262
F0.0034762456546929316
sS'Condition2Artery'
p263
F0.030127462340672075
sS'BsmtFinSF2LwQ'
p264
F0.037079953650057937
sS'MasVnrTypeHdBoard'
p265
F0.15990730011587487
sS'BsmtCondGd'
p266
F0.43684820393974505
sS'FoundationFa'
p267
F0.019698725376593278
sS'LotFrontageRH'
p268
F0.0092699884125144842
sS'BsmtFinSF2BLQ'
p269
F0.024333719582850522
sS'Condition1Crawfor'
p270
F0.02085747392815759
sS'RoofMatlHip'
p271
F0.20973348783314022
sS'MasVnrTypeWd Shng'
p272
F0.019698725376593278
sS'BsmtExposureGd'
p273
F0.04287369640787949
sS'GarageFinishAttchd'
p274
F0.63499420625724223
sS'Condition1Timber'
p275
F0.023174971031286212
sS'GarageCondTA'
p276
F0.91193511008111239
sg79
F6.3789107763615291
sS'UtilitiesBnk'
p277
F0.035921205098493628
sg81
F1070.334878331402
sS'Exterior2ndHdBoard'
p278
F0.16801853997682503
sS'FoundationEx'
p279
F0.0023174971031286211
sS'OverallQualSLvl'
p280
F0.055619930475086905
sS'X1stFlrSFFuseA'
p281
F0.062572421784472768
sS'NeighborhoodSev'
p282
F0.0023174971031286211
sS'WoodDeckSFY'
p283
F0.9258400926998841
sS'BsmtFinSF1LwQ'
p284
F0.050984936268829661
sS'HouseStyleTwnhsE'
p285
F0.016222479721900347
sS'GarageFinishNA'
p286
F0.044032444959443799
sS'BsmtQualWood'
p287
F0.0023174971031286211
sS'WoodDeckSFP'
p288
F0.017381228273464659
sS'Exterior2ndWdShing'
p289
F0.016222479721900347
sS'BsmtExposureFa'
p290
F0.033603707995365009
sS'MasVnrTypeBrk Cmn'
p291
F0.0023174971031286211
sS'Exterior2ndMetalSd'
p292
F0.13557358053302435
sS'Condition2Norm'
p293
F0.86095017381228278
sg90
F100.86906141367324
sS'SaleConditionConLD'
p294
F0.0057937427578215531
sS'GarageFinishDetchd'
p295
F0.23406720741599074
sS'Exterior2ndBrkComm'
p296
F0.0023174971031286211
sS'Exterior2ndStucco'
p297
F0.015063731170336037
sS'Condition2Feedr'
p298
F0.05909617612977984
sg94
F22.873696407879489
sS'HouseStyle2fmCon'
p299
F0.017381228273464659
sg158
F1.7960602549246814
sS'Condition1Sawyer'
p300
F0.056778679026651215
sS'NeighborhoodGtl'
p301
F0.95944380069524915
sS'FoundationGd'
p302
F0.084588644264194671
sS'MiscValOthr'
p303
F0.0011587485515643105
sS'Exterior1stWdShngl'
p304
F0.0023174971031286211
sS'HouseAgePartial'
p305
F0.084588644264194671
sS'BsmtFinType1No'
p306
F0.67207415990730013
sg101
F1528.4971031286211
sS'MasVnrAreaBrkFace'
p307
F0.32676709154113559
sS'Condition2RRNn'
p308
F0.0046349942062572421
sS'Exterior2ndCemntBd'
p309
F0.024333719582850522
sS'HeatingQCWall'
p310
F0.0034762456546929316
sS'HeatingQCGasW'
p311
F0.013904982618771726
sS'MasVnrTypeCmentBd'
p312
F0.024333719582850522
sS'BsmtExposureTA'
p313
F0.89918887601390496
sS'LandSlopeCorner'
p314
F0.18192352259559674
sg106
F61.949015063731167
sS'SaleConditionCOD'
p315
F0.031286210892236384
sS'MiscValNA'
p316
F0.95596755504055619
sS'FireplacesMin2'
p317
F0.025492468134414831
sS'Exterior1stWdShake'
p318
F0.0023174971031286211
sS'FireplacesMin1'
p319
F0.017381228273464659
sS'GarageCondNA'
p320
F0.044032444959443799
sS'ExterCondGd'
p321
F0.33140208574739283
sS'SaleConditionCWD'
p322
F0.0034762456546929316
sS'BsmtExposureNA'
p323
F0.0220162224797219
sS'LandSlopeFR2'
p324
F0.034762456546929318
sS'LandSlopeFR3'
p325
F0.0011587485515643105
sg111
F5.5202780996523755
sg112
F20.465816917728851
sS'MasVnrTypeImStucc'
p326
F0.0081112398609501733
sS'X1stFlrSFFuseP'
p327
F0.0011587485515643105
sg113
F47.953650057937431
sS'Exterior2ndImStucc'
p328
F0.0011587485515643105
sS'FenceGd'
p329
F0.0011587485515643105
sS'GarageCondPo'
p330
F0.0034762456546929316
sS'LotFrontageC (all)'
p331
F0.0081112398609501733
sS'SaleConditionCon'
p332
F0.0023174971031286211
sS'OverallQual1Story'
p333
F0.50637311703360366
sS'Condition1Somerst'
p334
F0.053302433371958287
sg115
F46.895712630359213
sS'Condition1NridgHt'
p335
F0.045191193511008108
sS'GarageFinish2Types'
p336
F0.0034762456546929316
sS'CentralAirEx'
p337
F0.50637311703360366
sS'LandSlopeCulDSac'
p338
F0.046349942062572425
sS'Condition1SWISU'
p339
F0.013904982618771726
sg119
F2007.8841251448437
sS'Condition1NoRidge'
p340
F0.030127462340672075
sS'MasVnrTypeOther'
p341
F0.0011587485515643105
sS'HouseAgeAdjLand'
p342
F0.0034762456546929316
sS'BsmtCondTA'
p343
F0.44380069524913096
sg122
F1174.1054461181923
sg123
F0.59559675550405566
sS'Condition1ClearCr'
p344
F0.0081112398609501733
sg125
F1.0486674391657009
sS'X1stFlrSFSBrkr'
p345
F0.91425260718424106
sS'ExterCondFa'
p346
F0.0081112398609501733
sS'SaleConditionConLw'
p347
F0.0034762456546929316
sS'BsmtFinType1NA'
p348
F0.0220162224797219
sS'BsmtFinType1Gd'
p349
F0.067207415990730018
sS'TotRmsAbvGrdTA'
p350
F0.51448435689455385
sS'BldgTypeRRAn'
p351
F0.0011587485515643105
sS'NeighborhoodMod'
p352
F0.038238702201622246
sS'MiscValShed'
p353
F0.041714947856315181
sS'MasVnrTypeStucco'
p354
F0.015063731170336037
sS'Condition2RRAe'
p355
F0.0057937427578215531
sS'TotRmsAbvGrdEx'
p356
F0.064889918887601386
sS'MasVnrTypeVinylSd'
p357
F0.38006952491309387
sS'Condition2RRAn'
p358
F0.02085747392815759
sg133
F34.902665121668598
sS'HouseAgeNormal'
p359
F0.82850521436848201
sS'MasVnrTypeWd Sdng'
p360
F0.12166859791425261
sS'LotFrontageRL'
p361
F0.87717265353418306
sS'BsmtFinType1Av'
p362
F0.1552723059096176
sS'GarageCondFa'
p363
F0.031286210892236384
sS'MiscFeatureNA'
p364
F0.78099652375434536
sg140
F350.35341830822711
sS'BsmtQualSlab'
p365
F0.012746234067207415
sS'LandContourReg'
p366
F0.62456546929316337
sS'BldgTypeNorm'
p367
F0.99188876013904981
sS'GarageCarsFin'
p368
F0.22943221320973348
sS'BsmtFinSF1GLQ'
p369
F0.27346465816917731
sg145
F483.31054461181924
sS'Exterior2ndVinylSd'
p370
F0.38354577056778677
sS'TotRmsAbvGrdFa'
p371
F0.024333719582850522
sg147
F1.5840092699884125
sS'OverallQual1.5Fin'
p372
F0.093858632676709158
sS'HouseStyle1Fam'
p373
F0.92352259559675554
sS'Condition1OldTown'
p374
F0.061413673232908458
sS'X1stFlrSFNA'
p375
F0.0011587485515643105
sS'Condition1Mitchel'
p376
F0.032444959443800693
sS'MiscFeatureMnWw'
p377
F0.0081112398609501733
sS'Condition2PosA'
p378
F0.0034762456546929316
sS'Condition1SawyerW'
p379
F0.052143684820393978
sS'ExterCondEx'
p380
F0.031286210892236384
sS'FenceFa'
p381
F0.0011587485515643105
sS'BsmtFinSF1NA'
p382
F0.0220162224797219
sS'BsmtFinSF2ALQ'
p383
F0.013904982618771726
sS'LotShapePave'
p384
F0.011587485515643106
sS'FireplacesMaj2'
p385
F0.0023174971031286211
sS'FireplacesMaj1'
p386
F0.0069524913093858632
sg153
F591.45654692931635
sS'PavedDrivePo'
p387
F0.0081112398609501733
sS'Condition2PosN'
p388
F0.012746234067207415
sS'Exterior2ndBrkFace'
p389
F0.034762456546929318
sS'GarageTypePo'
p390
F0.016222479721900347
sS'UtilitiesHLS'
p391
F0.026651216685979143
sS'BsmtQualStone'
p392
F0.0057937427578215531
sS'Condition1StoneBr'
p393
F0.0069524913093858632
sS'OverallQual1.5Unf'
p394
F0.0046349942062572421
sS'GarageTypeGd'
p395
F0.2410196987253766
sS'TotRmsAbvGrdGd'
p396
F0.3962920046349942
sS'Condition1BrkSide'
p397
F0.015063731170336037
sS'GarageCondGd'
p398
F0.0081112398609501733
sS'LandContourIR3'
p399
F0.0011587485515643105
sS'BsmtFinSF2Unf'
p400
F0.85979142526071839
sS'OverallQual2Story'
p401
F0.30822711471610659
sS'RoofMatlMansard'
p402
F0.0081112398609501733
sS'SaleConditionNew'
p403
F0.083429895712630361
sS'MasVnrAreaNA'
p404
F0.0057937427578215531
sS'GarageCarsUnf'
p405
F0.39860950173812282
sS'HeatingQCGrav'
p406
F0.0046349942062572421
sg120
F3.8829663962920047
sg165
F0.41251448435689453
sS'CentralAirTA'
p407
F0.29663962920046349
sS'Condition1Edwards'
p408
F0.079953650057937434
sS'Condition1NAmes'
p409
F0.19466975666280417
sS'HeatingQCGasA'
p410
F0.97682502896871382
sS'MasVnrTypePlywood'
p411
F0.096176129779837777
sS'BsmtFinSF1Unf'
p412
F0.29548088064889921
sS'FenceNA'
p413
F0.99768250289687133
sS'GarageFinishBuiltIn'
p414
F0.063731170336037077
sS'OverallQual2.5Unf'
p415
F0.0069524913093858632
sS'LotShapeNA'
p416
F0.95017381228273468
sS'HouseAgeFamily'
p417
F0.016222479721900347
sS'GarageCondEx'
p418
F0.0011587485515643105
sg175
F730.44495944380071
sa(dp419
S'MasVnrAreaBrkCmn'
p420
F0.25
sg4
F1
sg6
F262.5
sS'MasVnrAreaStone'
p421
F0.25
sS'UtilitiesLow'
p422
F0.75
sg10
F36.5
sg14
F3
sS'FoundationTA'
p423
F1
sS'GarageCarsRFn'
p424
F0.25
sg22
F0.25
sS'BsmtFinSF1Rec'
p425
F0.25
sg25
F1
sS'MasVnrAreaNone'
p426
F0.5
sg29
F1100.25
sS'BsmtQualCBlock'
p427
F1
sg31
F0
sS'Exterior2ndWd Sdng'
p428
F0.25
sg33
F43
sS'LandSlopeInside'
p429
F0.25
sg36
F6.75
sg37
F163513.5
sg40
F70
sg41
F0
sS'SaleConditionWD'
p430
F1
sS'ElectricalY'
p431
F1
sS'Exterior1stCompShg'
p432
F1
sg49
F6.25
sS'RoofMatlGable'
p433
F0.75
sS'ExterCondTA'
p434
F0.75
sS'GarageFinishAttchd'
p435
F1
sS'MasVnrTypeBrkFace'
p436
F0.25
sS'BsmtFinSF1ALQ'
p437
F0.5
sg56
F0
sS'LandContourIR1'
p438
F0.25
sS'LandContourIR2'
p439
F0.5
sS'LandContourIR3'
p440
F0.25
sS'GarageCondTA'
p441
F1
sS'FireplacesTyp'
p442
F1
sS'Exterior2ndPlywood'
p443
F0.5
sS'PavedDriveTA'
p444
F1
sg68
F1.25
sS'MasVnrTypeHdBoard'
p445
F0.25
sS'BsmtCondGd'
p446
F0.75
sS'BsmtFinSF2BLQ'
p447
F0.25
sS'RoofMatlHip'
p448
F0.25
sS'CentralAirGd'
p449
F0.25
sS'Condition1Timber'
p450
F0.5
sS'GarageTypeTA'
p451
F0.5
sg79
F6.5
sg81
F1680.5
sS'NeighborhoodSev'
p452
F1
sS'WoodDeckSFY'
p453
F1
sS'Condition2Norm'
p454
F1
sg90
F205.75
sS'GarageCarsFin'
p455
F0.5
sg94
F23.25
sS'HouseStyle2fmCon'
p456
F0.25
sg158
F2
sg101
F1947.5
sS'BsmtExposureTA'
p457
F1
sS'LandSlopeCorner'
p458
F0.25
sg106
F37.5
sS'MiscValNA'
p459
F0.5
sS'ExterCondGd'
p460
F0.25
sg111
F5.75
sg112
F0
sg113
F300
sS'OverallQual1Story'
p461
F0.5
sg115
F241.75
sS'CentralAirEx'
p462
F0.25
sS'LandSlopeCulDSac'
p463
F0.5
sg119
F2007.75
sS'BsmtCondTA'
p464
F0.25
sg122
F1730.75
sg123
F2
sS'Condition1ClearCr'
p465
F0.5
sg125
F1
sS'X1stFlrSFSBrkr'
p466
F1
sg120
F0
sS'TotRmsAbvGrdTA'
p467
F0.5
sS'BsmtFinSF2Rec'
p468
F0.25
sS'MiscValShed'
p469
F0.5
sg133
F43
sS'HouseAgeNormal'
p470
F1
sS'LotFrontageRL'
p471
F1
sS'MiscFeatureNA'
p472
F1
sg140
F216.75
sS'BldgTypeNorm'
p473
F1
sS'BsmtFinSF1GLQ'
p474
F0.25
sg145
F542.5
sg147
F2
sS'OverallQual1.5Fin'
p475
F0.5
sS'HouseStyle1Fam'
p476
F0.75
sg153
F338.5
sS'Exterior2ndBrkFace'
p477
F0.25
sS'UtilitiesHLS'
p478
F0.25
sS'GarageTypeGd'
p479
F0.5
sS'TotRmsAbvGrdGd'
p480
F0.5
sS'BsmtFinSF2Unf'
p481
F0.5
sS'HeatingQCGasW'
p482
F0.25
sS'GarageCarsUnf'
p483
F0.25
sS'BsmtFinType1Gd'
p484
F1
sg165
F0
sS'CentralAirTA'
p485
F0.5
sS'HeatingQCGasA'
p486
F0.75
sS'MasVnrTypePlywood'
p487
F0.5
sS'FenceNA'
p488
F1
sS'LotShapeNA'
p489
F1
sg175
F401.75
sa(dp490
S'MasVnrAreaBrkCmn'
p491
F0.007874015748031496
sS'GarageCarsNA'
p492
F0.10498687664041995
sg4
F1
sS'BsmtCondNA'
p493
F0.036745406824146981
sS'PavedDriveNA'
p494
F0.10498687664041995
sg6
F65.590551181102356
sS'Condition2RRNn'
p495
F0.0026246719160104987
sS'MasVnrAreaStone'
p496
F0.081364829396325458
sS'BsmtCondFa'
p497
F0.041994750656167978
sS'HeatingQCOthW'
p498
F0.0026246719160104987
sS'MasVnrTypeMetalSd'
p499
F0.23359580052493439
sS'UtilitiesLow'
p500
F0.010498687664041995
sS'Exterior2ndCBlock'
p501
F0.0026246719160104987
sS'BsmtFinType1Gd'
p502
F0.049868766404199474
sS'Exterior2ndAsbShng'
p503
F0.023622047244094488
sg10
F34.296587926509183
sS'UtilitiesLvl'
p504
F0.89501312335958005
sS'X1stFlrSFFuseA'
p505
F0.081364829396325458
sS'X1stFlrSFFuseF'
p506
F0.026246719160104987
sS'MasVnrTypeStone'
p507
F0.0052493438320209973
sS'RoofMatlGambrel'
p508
F0.007874015748031496
sS'PavedDriveGd'
p509
F0.0026246719160104987
sS'HouseAgeAbnorml'
p510
F0.086614173228346455
sg14
F2.4488188976377954
sS'FoundationTA'
p511
F0.8582677165354331
sS'Condition1Crawfor'
p512
F0.041994750656167978
sS'FireplacesMod'
p513
F0.007874015748031496
sS'OverallQualSFoyer'
p514
F0.047244094488188976
sS'Condition1Gilbert'
p515
F0.007874015748031496
sS'Condition1NPkVill'
p516
F0.023622047244094488
sS'GarageCarsRFn'
p517
F0.20209973753280841
sS'PavedDriveFa'
p518
F0.023622047244094488
sS'HouseStyleDuplex'
p519
F0.034120734908136482
sg22
F0.049868766404199474
sS'BsmtFinType1Mn'
p520
F0.062992125984251968
sS'BsmtFinSF1Rec'
p521
F0.05774278215223097
sg25
F1
sS'FoundationFa'
p522
F0.026246719160104987
sS'MasVnrAreaNone'
p523
F0.67454068241469811
sS'HouseAgePartial'
p524
F0.060367454068241469
sS'LotFrontageFV'
p525
F0.091863517060367453
sS'BsmtFinSF1BLQ'
p526
F0.086614173228346455
sg29
F355.30971128608923
sS'BsmtQualCBlock'
p527
F0.39632545931758528
sg31
F7.9291338582677167
sS'Exterior2ndWd Sdng'
p528
F0.15748031496062992
sg33
F28.803149606299211
sS'MiscFeatureGdWo'
p529
F0.026246719160104987
sS'MiscFeatureGdPrv'
p530
F0.026246719160104987
sS'LandSlopeInside'
p531
F0.79265091863517056
sS'GarageCondEx'
p532
F0.0026246719160104987
sg36
F5.6325459317585302
sg37
F5340.1994750656168
sS'Condition2Feedr'
p533
F0.055118110236220472
sS'OverallQual2.5Fin'
p534
F0.0052493438320209973
sS'BsmtQualBrkTil'
p535
F0.16797900262467191
sg40
F84.580052493438316
sg41
F0
sS'SaleConditionWD'
p536
F0.89501312335958005
sS'GarageFinishBasment'
p537
F0.010498687664041995
sS'TotRmsAbvGrdEx'
p538
F0.023622047244094488
sS'BldgTypeFeedr'
p539
F0.0052493438320209973
sS'WoodDeckSFN'
p540
F0.083989501312335957
sS'CentralAirFa'
p541
F0.047244094488188976
sS'GarageTypeNA'
p542
F0.64041994750656173
sS'BldgTypeRRNn'
p543
F0.0026246719160104987
sS'LotShapeGrvl'
p544
F0.036745406824146981
sS'ElectricalY'
p545
F0.89763779527559051
sS'GarageTypeEx'
p546
F0.010498687664041995
sS'Exterior1stCompShg'
p547
F1
sS'GarageCondFa'
p548
F0.052493438320209973
sS'Condition1Sawyer'
p549
F0.031496062992125984
sg49
F5.7322834645669287
sS'RoofMatlGable'
p550
F0.87664041994750652
sS'SaleConditionNew'
p551
F0.05774278215223097
sS'ExterCondTA'
p552
F0.67716535433070868
sS'CentralAirGd'
p553
F0.18635170603674542
sS'MasVnrTypeBrkFace'
p554
F0.0052493438320209973
sS'BsmtQualPConc'
p555
F0.40682414698162728
sS'ExterCondEx'
p556
F0.007874015748031496
sg56
F8.2808398950131235
sS'ElectricalN'
p557
F0.10236220472440945
sS'LandContourIR1'
p558
F0.18372703412073491
sS'LandContourIR2'
p559
F0.010498687664041995
sS'Condition1CollgCr'
p560
F0.05774278215223097
sS'GarageCondTA'
p561
F0.83202099737532809
sS'FireplacesTyp'
p562
F0.93175853018372701
sS'BsmtFinType1Av'
p563
F0.12860892388451445
sS'PavedDriveEx'
p564
F0.0026246719160104987
sS'Exterior2ndPlywood'
p565
F0.03937007874015748
sS'BsmtFinSF2GLQ'
p566
F0.007874015748031496
sS'PavedDriveTA'
p567
F0.86614173228346458
sg68
F0.37532808398950129
sS'HouseAgeAlloca'
p568
F0.015748031496062992
sS'Condition2Artery'
p569
F0.03937007874015748
sS'BsmtFinSF2LwQ'
p570
F0.018372703412073491
sS'MasVnrTypeHdBoard'
p571
F0.10236220472440945
sS'MiscFeatureMnPrv'
p572
F0.11023622047244094
sS'BldgTypeArtery'
p573
F0.0026246719160104987
sS'LotFrontageRH'
p574
F0.020997375328083989
sS'Condition1BrDale'
p575
F0.041994750656167978
sS'BsmtFinSF2BLQ'
p576
F0.018372703412073491
sS'MasVnrTypeCmentBd'
p577
F0.070866141732283464
sS'RoofMatlHip'
p578
F0.11548556430446194
sS'MasVnrTypeWd Shng'
p579
F0.047244094488188976
sS'BsmtExposureGd'
p580
F0.03937007874015748
sS'GarageFinishAttchd'
p581
F0.41732283464566927
sS'Condition1Timber'
p582
F0.0026246719160104987
sS'GarageTypeTA'
p583
F0.13123359580052493
sg79
F6.2309711286089238
sS'UtilitiesBnk'
p584
F0.062992125984251968
sg81
F867.51443569553805
sS'Exterior2ndHdBoard'
p585
F0.11548556430446194
sS'OverallQualSLvl'
p586
F0.015748031496062992
sS'NeighborhoodSev'
p587
F0.0026246719160104987
sS'WoodDeckSFY'
p588
F0.89501312335958005
sS'BsmtFinSF1LwQ'
p589
F0.062992125984251968
sS'HouseStyleTwnhsE'
p590
F0.25984251968503935
sS'GarageFinishNA'
p591
F0.10498687664041995
sS'WoodDeckSFP'
p592
F0.020997375328083989
sS'Exterior2ndWdShing'
p593
F0.023622047244094488
sS'BsmtExposureFa'
p594
F0.036745406824146981
sS'MasVnrTypeBrk Cmn'
p595
F0.013123359580052493
sS'Condition1Blmngtn'
p596
F0.044619422572178477
sS'Exterior2ndMetalSd'
p597
F0.23622047244094488
sS'Condition1MeadowV'
p598
F0.044619422572178477
sS'Condition2Norm'
p599
F0.88713910761154857
sg90
F69.097112860892395
sS'SaleConditionConLD'
p600
F0.007874015748031496
sS'GarageFinishDetchd'
p601
F0.43832020997375326
sS'Exterior2ndStucco'
p602
F0.018372703412073491
sS'LandSlopeCorner'
p603
F0.14960629921259844
sg94
F25.083989501312335
sS'HouseStyle2fmCon'
p604
F0.028871391076115485
sg158
F1.4645669291338583
sS'Condition1BrkSide'
p605
F0.11286089238845144
sS'NeighborhoodGtl'
p606
F0.96062992125984248
sS'FoundationGd'
p607
F0.11286089238845144
sS'MiscValOthr'
p608
F0.0026246719160104987
sS'BsmtFinType1NA'
p609
F0.036745406824146981
sS'BsmtFinType1No'
p610
F0.72178477690288712
sg101
F1246.9501312335958
sS'MasVnrAreaBrkFace'
p611
F0.23359580052493439
sS'MasVnrTypeAsbShng'
p612
F0.018372703412073491
sS'Exterior2ndCemntBd'
p613
F0.070866141732283464
sS'HeatingQCWall'
p614
F0.0026246719160104987
sS'BsmtExposureTA'
p615
F0.88713910761154857
sS'FoundationPo'
p616
F0.0026246719160104987
sg106
F43.293963254593173
sS'SaleConditionCOD'
p617
F0.031496062992125984
sS'MiscValNA'
p618
F0.97900262467191601
sS'FireplacesMin2'
p619
F0.010498687664041995
sS'NeighborhoodMod'
p620
F0.036745406824146981
sS'FireplacesMin1'
p621
F0.028871391076115485
sS'GarageCondNA'
p622
F0.10498687664041995
sS'Condition1OldTown'
p623
F0.14435695538057744
sS'BsmtCondGd'
p624
F0.3884514435695538
sS'SaleConditionCWD'
p625
F0.0026246719160104987
sS'LandSlopeFR2'
p626
F0.026246719160104987
sS'LandSlopeFR3'
p627
F0.0052493438320209973
sg111
F5.7086614173228343
sg112
F27.120734908136484
sS'MasVnrTypeImStucc'
p628
F0.0052493438320209973
sS'X1stFlrSFFuseP'
p629
F0.0052493438320209973
sS'MasVnrAreaNA'
p630
F0.0026246719160104987
sg113
F18.241469816272964
sS'Condition1Blueste'
p631
F0.0052493438320209973
sS'LotFrontageC (all)'
p632
F0.0052493438320209973
sS'OverallQual1Story'
p633
F0.47769028871391078
sS'Condition1Somerst'
p634
F0.091863517060367453
sg115
F28.58530183727034
sS'Condition1NridgHt'
p635
F0.041994750656167978
sS'GarageFinish2Types'
p636
F0.0026246719160104987
sS'CentralAirEx'
p637
F0.45406824146981628
sS'LandSlopeCulDSac'
p638
F0.026246719160104987
sS'Condition1SWISU'
p639
F0.031496062992125984
sg119
F2007.7979002624672
sS'HouseAgeAdjLand'
p640
F0.0026246719160104987
sS'BsmtCondTA'
p641
F0.49081364829396323
sg122
F959.46981627296589
sg123
F0.3884514435695538
sS'Condition1ClearCr'
p642
F0.007874015748031496
sg125
F1.0577427821522309
sS'X1stFlrSFSBrkr'
p643
F0.88713910761154857
sS'ExterCondFa'
p644
F0.015748031496062992
sS'SaleConditionConLw'
p645
F0.0052493438320209973
sS'BsmtFinSF2NA'
p646
F0.036745406824146981
sS'BsmtCondEx'
p647
F0.041994750656167978
sS'TotRmsAbvGrdTA'
p648
F0.54068241469816269
sS'BsmtFinSF1ALQ'
p649
F0.16535433070866143
sS'BsmtFinSF2Rec'
p650
F0.031496062992125984
sS'MiscValShed'
p651
F0.018372703412073491
sS'MasVnrTypeStucco'
p652
F0.020997375328083989
sS'Condition2RRAe'
p653
F0.0026246719160104987
sS'Condition1IDOTRR'
p654
F0.041994750656167978
sS'MasVnrTypeVinylSd'
p655
F0.27034120734908135
sS'Condition2RRAn'
p656
F0.0052493438320209973
sg133
F42.99212598425197
sS'HouseAgeNormal'
p657
F0.8241469816272966
sS'MasVnrTypeWd Sdng'
p658
F0.15485564304461943
sS'LotFrontageRL'
p659
F0.48556430446194226
sS'LotFrontageRM'
p660
F0.39632545931758528
sS'GarageTypeFa'
p661
F0.015748031496062992
sS'MiscFeatureNA'
p662
F0.82939632545931763
sg140
F279.19947506561681
sS'BsmtQualSlab'
p663
F0.026246719160104987
sS'LandContourReg'
p664
F0.80314960629921262
sS'BldgTypeNorm'
p665
F0.98950131233595795
sS'GarageCarsFin'
p666
F0.18372703412073491
sS'BsmtFinSF1GLQ'
p667
F0.27296587926509186
sg145
F378.43832020997377
sS'Exterior2ndVinylSd'
p668
F0.28871391076115488
sS'TotRmsAbvGrdFa'
p669
F0.044619422572178477
sg147
F1.3937007874015748
sS'OverallQual1.5Fin'
p670
F0.14173228346456693
sS'HouseStyle1Fam'
p671
F0.56430446194225725
sS'Condition1Mitchel'
p672
F0.028871391076115485
sS'MiscFeatureMnWw'
p673
F0.007874015748031496
sS'HeatingQCFloor'
p674
F0.0026246719160104987
sS'Condition1SawyerW'
p675
F0.020997375328083989
sS'BsmtExposureNA'
p676
F0.036745406824146981
sS'BsmtFinSF1NA'
p677
F0.036745406824146981
sS'BsmtFinSF2ALQ'
p678
F0.0052493438320209973
sS'LotShapePave'
p679
F0.07874015748031496
sS'FireplacesMaj2'
p680
F0.0052493438320209973
sS'FireplacesMaj1'
p681
F0.015748031496062992
sg153
F483.61942257217845
sS'Condition2PosN'
p682
F0.007874015748031496
sS'Exterior2ndBrkFace'
p683
F0.023622047244094488
sS'GarageTypePo'
p684
F0.013123359580052493
sS'ExterCondGd'
p685
F0.29921259842519687
sS'UtilitiesHLS'
p686
F0.031496062992125984
sS'BsmtQualStone'
p687
F0.0026246719160104987
sS'Condition1StoneBr'
p688
F0.034120734908136482
sS'OverallQual1.5Unf'
p689
F0.026246719160104987
sS'GarageCondGd'
p690
F0.007874015748031496
sS'TotRmsAbvGrdGd'
p691
F0.39107611548556431
sS'HouseStyleTwnhs'
p692
F0.11286089238845144
sS'GarageTypeGd'
p693
F0.1889763779527559
sS'LandContourIR3'
p694
F0.0026246719160104987
sS'BsmtFinSF2Unf'
p695
F0.88188976377952755
sS'OverallQual2Story'
p696
F0.27559055118110237
sS'HeatingQCGasW'
p697
F0.007874015748031496
sS'CentralAirPo'
p698
F0.0026246719160104987
sS'GarageCarsUnf'
p699
F0.50918635170603677
sS'HeatingQCGrav'
p700
F0.007874015748031496
sS'MasVnrTypeCBlock'
p701
F0.0026246719160104987
sg120
F0.84251968503937003
sg165
F0.27559055118110237
sS'CentralAirTA'
p702
F0.30971128608923887
sS'Condition1Edwards'
p703
F0.052493438320209973
sS'Condition1NAmes'
p704
F0.089238845144356954
sS'HeatingQCGasA'
p705
F0.97637795275590555
sS'MasVnrTypePlywood'
p706
F0.049868766404199474
sS'BsmtFinSF1Unf'
p707
F0.31758530183727035
sS'FenceNA'
p708
F1
sS'GarageFinishBuiltIn'
p709
F0.026246719160104987
sS'OverallQual2.5Unf'
p710
F0.010498687664041995
sS'LotShapeNA'
p711
F0.884514435695538
sS'HouseAgeFamily'
p712
F0.010498687664041995
sg175
F737.33858267716539
sa(dp713
S'BsmtFinType1NA'
p714
F0.025773195876288658
sS'GarageCarsNA'
p715
F0.015463917525773196
sg4
F0.99484536082474229
sS'BsmtCondNA'
p716
F0.020618556701030927
sS'NeighborhoodMod'
p717
F0.056701030927835051
sg6
F133.71134020618555
sS'MasVnrAreaStone'
p718
F0.1134020618556701
sS'BsmtCondFa'
p719
F0.0051546391752577319
sS'MasVnrTypeMetalSd'
p720
F0.056701030927835051
sS'MasVnrAreaBrkCmn'
p721
F0.010309278350515464
sS'UtilitiesLow'
p722
F0.056701030927835051
sS'BsmtFinType1Gd'
p723
F0.22164948453608246
sg10
F66.329896907216494
sS'UtilitiesLvl'
p724
F0.86082474226804129
sS'X1stFlrSFFuseA'
p725
F0.046391752577319589
sS'Exterior2ndStone'
p726
F0.010309278350515464
sS'MasVnrTypeStone'
p727
F0.0051546391752577319
sS'BsmtFinSF2LwQ'
p728
F0.03608247422680412
sS'PavedDriveGd'
p729
F0.0051546391752577319
sS'HouseAgeAbnorml'
p730
F0.072164948453608241
sg14
F3.0670103092783507
sS'FoundationTA'
p731
F0.85051546391752575
sS'FireplacesMod'
p732
F0.0051546391752577319
sS'Condition1NoRidge'
p733
F0.067010309278350513
sS'Condition1Gilbert'
p734
F0.077319587628865982
sS'GarageCarsRFn'
p735
F0.29896907216494845
sS'RoofMatlShed'
p736
F0.010309278350515464
sS'Condition1Mitchel'
p737
F0.046391752577319589
sS'RoofMatlFlat'
p738
F0.041237113402061855
sg22
F0.077319587628865982
sS'MiscValGar2'
p739
F0.0051546391752577319
sS'BsmtFinType1Mn'
p740
F0.087628865979381437
sS'BsmtFinSF1Rec'
p741
F0.056701030927835051
sg25
F1
sS'MasVnrAreaNone'
p742
F0.51030927835051543
sS'BsmtFinSF1BLQ'
p743
F0.1134020618556701
sg29
F576.71134020618558
sS'BsmtQualCBlock'
p744
F0.4175257731958763
sg31
F23.185567010309278
sS'Exterior2ndWd Sdng'
p745
F0.17010309278350516
sg33
F25.577319587628867
sS'MiscFeatureGdWo'
p746
F0.025773195876288658
sS'MiscFeatureGdPrv'
p747
F0.046391752577319589
sS'PavedDriveNA'
p748
F0.015463917525773196
sS'LandSlopeInside'
p749
F0.54123711340206182
sS'GarageCondEx'
p750
F0.0051546391752577319
sg36
F7.4742268041237114
sg37
F16509.716494845361
sS'Condition2Feedr'
p751
F0.03608247422680412
sS'BsmtQualBrkTil'
p752
F0.061855670103092786
sg40
F44.484536082474229
sg41
F11.979381443298969
sS'BldgTypePosN'
p753
F0.0051546391752577319
sS'SaleConditionWD'
p754
F0.83505154639175261
sS'GarageFinishBasment'
p755
F0.025773195876288658
sS'Condition1IDOTRR'
p756
F0.010309278350515464
sS'WoodDeckSFN'
p757
F0.03608247422680412
sS'CentralAirFa'
p758
F0.015463917525773196
sS'GarageTypeNA'
p759
F0.18556701030927836
sS'MasVnrTypeWd Shng'
p760
F0.0051546391752577319
sS'ElectricalY'
p761
F0.98969072164948457
sS'GarageTypeEx'
p762
F0.046391752577319589
sS'Exterior1stCompShg'
p763
F0.93814432989690721
sS'GarageTypeFa'
p764
F0.020618556701030927
sS'Condition1NWAmes'
p765
F0.067010309278350513
sg49
F6.768041237113402
sS'Exterior1stTar&Grv'
p766
F0.030927835051546393
sS'RoofMatlGable'
p767
F0.68041237113402064
sS'SaleConditionConLI'
p768
F0.0051546391752577319
sS'SaleConditionNew'
p769
F0.13402061855670103
sS'ExterCondTA'
p770
F0.47422680412371132
sS'CentralAirGd'
p771
F0.11855670103092783
sS'MasVnrTypeBrkFace'
p772
F0.010309278350515464
sS'BsmtQualPConc'
p773
F0.5
sS'ExterCondEx'
p774
F0.097938144329896906
sg56
F9.7577319587628875
sS'ElectricalN'
p775
F0.010309278350515464
sS'LandContourIR1'
p776
F0.48969072164948452
sS'LandContourIR2'
p777
F0.08247422680412371
sS'Condition1CollgCr'
p778
F0.051546391752577317
sS'GarageTypeTA'
p779
F0.27319587628865977
sS'FireplacesTyp'
p780
F0.92268041237113407
sS'LotFrontageRM'
p781
F0.030927835051546393
sS'Exterior2ndPlywood'
p782
F0.092783505154639179
sS'BsmtFinSF2GLQ'
p783
F0.0051546391752577319
sS'GarageFinishCarPort'
p784
F0.010309278350515464
sS'PavedDriveTA'
p785
F0.97938144329896903
sg68
F0.52577319587628868
sS'HouseAgeAlloca'
p786
F0.0051546391752577319
sS'Condition2Artery'
p787
F0.03608247422680412
sS'MasVnrTypeHdBoard'
p788
F0.13917525773195877
sg79
F6.2886597938144329
sS'FoundationFa'
p789
F0.0051546391752577319
sS'BsmtFinSF2BLQ'
p790
F0.020618556701030927
sS'Condition1Crawfor'
p791
F0.08247422680412371
sS'RoofMatlHip'
p792
F0.26288659793814434
sS'LotShapeGrvl'
p793
F0.015463917525773196
sS'BsmtExposureGd'
p794
F0.056701030927835051
sS'BsmtQualSlab'
p795
F0.015463917525773196
sS'GarageFinishAttchd'
p796
F0.75773195876288657
sS'Condition1Timber'
p797
F0.067010309278350513
sS'GarageCondTA'
p798
F0.95876288659793818
sS'MiscFeatureMnPrv'
p799
F0.061855670103092786
sS'UtilitiesBnk'
p800
F0.015463917525773196
sg81
F1291.0927835051546
sS'Exterior2ndHdBoard'
p801
F0.15979381443298968
sS'FoundationEx'
p802
F0.0051546391752577319
sS'OverallQualSLvl'
p803
F0.056701030927835051
sS'NeighborhoodSev'
p804
F0.020618556701030927
sS'WoodDeckSFY'
p805
F0.9329896907216495
sS'BsmtFinSF1LwQ'
p806
F0.025773195876288658
sS'HouseStyleTwnhsE'
p807
F0.0051546391752577319
sS'GarageFinishNA'
p808
F0.015463917525773196
sS'BsmtQualWood'
p809
F0.0051546391752577319
sS'WoodDeckSFP'
p810
F0.030927835051546393
sS'Exterior2ndWdShing'
p811
F0.010309278350515464
sS'Exterior1stMetal'
p812
F0.0051546391752577319
sS'Exterior2ndMetalSd'
p813
F0.056701030927835051
sS'Condition2Norm'
p814
F0.82474226804123707
sg90
F160.70618556701032
sS'SaleConditionConLD'
p815
F0.0051546391752577319
sS'GarageFinishDetchd'
p816
F0.08247422680412371
sS'Exterior2ndStucco'
p817
F0.020618556701030927
sS'LandSlopeCorner'
p818
F0.23195876288659795
sg94
F19.036082474226806
sS'HouseStyle2fmCon'
p819
F0.010309278350515464
sg158
F2.1649484536082473
sS'Condition1Sawyer'
p820
F0.067010309278350513
sS'NeighborhoodGtl'
p821
F0.92268041237113407
sS'FoundationGd'
p822
F0.13917525773195877
sS'MasVnrTypeWd Sdng'
p823
F0.14948453608247422
sS'Exterior1stWdShngl'
p824
F0.010309278350515464
sS'HouseAgePartial'
p825
F0.13917525773195877
sS'BsmtFinType1No'
p826
F0.48969072164948452
sg101
F1899.6494845360826
sS'MasVnrAreaBrkFace'
p827
F0.36082474226804123
sS'MasVnrTypeAsbShng'
p828
F0.0051546391752577319
sS'Exterior2ndCemntBd'
p829
F0.056701030927835051
sS'MasVnrTypeCmentBd'
p830
F0.056701030927835051
sS'BsmtExposureTA'
p831
F0.91237113402061853
sg106
F65.948453608247419
sS'SaleConditionCOD'
p832
F0.020618556701030927
sS'MiscValNA'
p833
F0.96907216494845361
sS'FireplacesMin2'
p834
F0.041237113402061855
sS'Exterior1stWdShake'
p835
F0.015463917525773196
sS'FireplacesMin1'
p836
F0.015463917525773196
sS'BsmtExposureFa'
p837
F0.010309278350515464
sS'ExterCondGd'
p838
F0.42268041237113402
sS'BsmtExposureNA'
p839
F0.020618556701030927
sS'LandSlopeFR2'
p840
F0.03608247422680412
sS'LandSlopeFR3'
p841
F0.0051546391752577319
sg111
F5.5876288659793811
sg112
F19.628865979381445
sS'MasVnrTypeImStucc'
p842
F0.0051546391752577319
sg113
F71.958762886597938
sS'FenceGd'
p843
F0.0051546391752577319
sS'OverallQualSFoyer'
p844
F0.0051546391752577319
sS'LotFrontageC (all)'
p845
F0.0051546391752577319
sS'OverallQual1Story'
p846
F0.4845360824742268
sS'Condition1Somerst'
p847
F0.025773195876288658
sS'Condition1Veenker'
p848
F0.015463917525773196
sg115
F72.453608247422679
sS'Condition1NridgHt'
p849
F0.1134020618556701
sS'RoofMatlGambrel'
p850
F0.0051546391752577319
sS'CentralAirEx'
p851
F0.62371134020618557
sS'LandSlopeCulDSac'
p852
F0.18556701030927836
sS'Condition1SWISU'
p853
F0.0051546391752577319
sg119
F2007.5721649484535
sS'BsmtCondTA'
p854
F0.36082474226804123
sg122
F1433.9536082474226
sg123
F1.0257731958762886
sS'Condition1ClearCr'
p855
F0.051546391752577317
sg125
F1.0154639175257731
sS'X1stFlrSFSBrkr'
p856
F0.95360824742268047
sS'ExterCondFa'
p857
F0.0051546391752577319
sS'BsmtFinSF2NA'
p858
F0.020618556701030927
sS'BsmtCondEx'
p859
F0.18041237113402062
sS'TotRmsAbvGrdTA'
p860
F0.38144329896907214
sS'BsmtFinSF2Rec'
p861
F0.061855670103092786
sS'MiscValShed'
p862
F0.020618556701030927
sS'MiscValTenC'
p863
F0.0051546391752577319
sS'MasVnrTypeStucco'
p864
F0.020618556701030927
sS'Condition2RRAe'
p865
F0.025773195876288658
sS'TotRmsAbvGrdEx'
p866
F0.16494845360824742
sS'MasVnrTypeVinylSd'
p867
F0.37113402061855671
sS'Condition2RRAn'
p868
F0.030927835051546393
sg133
F31.082474226804123
sS'HouseAgeNormal'
p869
F0.77319587628865982
sS'BsmtCondGd'
p870
F0.4329896907216495
sS'LotFrontageRL'
p871
F0.96391752577319589
sS'BsmtFinType1Av'
p872
F0.17525773195876287
sS'MiscFeatureNA'
p873
F0.86082474226804129
sg140
F455.93814432989689
sS'OverallQual2.5Fin'
p874
F0.015463917525773196
sS'FenceEx'
p875
F0.010309278350515464
sS'LandContourReg'
p876
F0.39690721649484534
sS'BldgTypePosA'
p877
F0.0051546391752577319
sS'BldgTypeNorm'
p878
F0.98453608247422686
sS'GarageCarsFin'
p879
F0.37113402061855671
sS'BsmtFinSF1GLQ'
p880
F0.36597938144329895
sg145
F588.87628865979377
sS'Exterior2ndVinylSd'
p881
F0.37628865979381443
sS'TotRmsAbvGrdFa'
p882
F0.0051546391752577319
sg147
F1.7886597938144331
sS'OverallQual1.5Fin'
p883
F0.08247422680412371
sS'HouseStyle1Fam'
p884
F0.97422680412371132
sS'BldgTypeRRAe'
p885
F0.0051546391752577319
sS'Condition1OldTown'
p886
F0.025773195876288658
sS'HouseStyleDuplex'
p887
F0.010309278350515464
sS'MiscFeatureMnWw'
p888
F0.0051546391752577319
sS'FireplacesSev'
p889
F0.0051546391752577319
sS'Condition2PosA'
p890
F0.025773195876288658
sS'BsmtFinSF1Unf'
p891
F0.27319587628865977
sS'BsmtFinSF1ALQ'
p892
F0.14432989690721648
sS'FenceFa'
p893
F0.0051546391752577319
sS'BsmtFinSF1NA'
p894
F0.020618556701030927
sS'BsmtFinSF2ALQ'
p895
F0.025773195876288658
sS'LotShapePave'
p896
F0.0051546391752577319
sS'FireplacesMaj2'
p897
F0.0051546391752577319
sS'FireplacesMaj1'
p898
F0.0051546391752577319
sg153
F641.92783505154637
sS'Condition2PosN'
p899
F0.020618556701030927
sS'Exterior2ndBrkFace'
p900
F0.046391752577319589
sS'GarageTypePo'
p901
F0.0051546391752577319
sS'UtilitiesHLS'
p902
F0.067010309278350513
sS'Condition1StoneBr'
p903
F0.025773195876288658
sS'GarageTypeGd'
p904
F0.46907216494845361
sS'TotRmsAbvGrdGd'
p905
F0.4484536082474227
sS'Condition1BrkSide'
p906
F0.010309278350515464
sS'GarageCondGd'
p907
F0.020618556701030927
sS'LandContourIR3'
p908
F0.030927835051546393
sS'BsmtFinSF2Unf'
p909
F0.82989690721649489
sS'OverallQual2Story'
p910
F0.35051546391752575
sS'HeatingQCGasW'
p911
F0.010309278350515464
sS'MasVnrAreaNA'
p912
F0.0051546391752577319
sS'GarageCarsUnf'
p913
F0.31443298969072164
sg120
F6.731958762886598
sg165
F0.46391752577319589
sS'CentralAirTA'
p914
F0.2422680412371134
sS'Condition1Edwards'
p915
F0.046391752577319589
sS'Condition1NAmes'
p916
F0.1134020618556701
sS'HeatingQCGasA'
p917
F0.98969072164948457
sS'MasVnrTypePlywood'
p918
F0.17525773195876287
sS'Condition1SawyerW'
p919
F0.030927835051546393
sS'GarageCondNA'
p920
F0.015463917525773196
sS'FenceNA'
p921
F0.97938144329896903
sS'GarageFinishBuiltIn'
p922
F0.10824742268041238
sS'OverallQual2.5Unf'
p923
F0.0051546391752577319
sS'LotShapeNA'
p924
F0.97938144329896903
sS'HouseAgeFamily'
p925
F0.010309278350515464
sg175
F724.5
sa(lp926
I1
aI1
aI1
aI1
aI4
aI4
aI1
aI1
aI3
aI3
aI1
aI1
aI1
aI1
aI1
aI3
aI1
aI1
aI4
aI3
aI4
aI3
aI1
aI3
aI1
aI4
aI3
aI1
aI4
aI3
aI1
aI1
aI1
aI1
aI3
aI4
aI1
aI1
aI1
aI3
aI1
aI4
aI1
aI1
aI1
aI1
aI1
aI1
aI3
aI1
aI4
aI3
aI1
aI0
aI3
aI1
aI3
aI1
aI4
aI3
aI1
aI3
aI3
aI1
aI1
aI1
aI4
aI1
aI3
aI4
aI4
aI3
aI1
aI1
aI3
aI3
aI1
aI1
aI1
aI1
aI1
aI3
aI1
aI1
aI1
aI4
aI1
aI3
aI1
aI1
aI3
aI1
aI4
aI3
aI1
aI1
aI1
aI1
aI1
aI1
aI1
aI1
aI3
aI1
aI1
aI1
aI1
aI3
aI1
aI1
aI1
aI1
aI1
aI4
aI3
aI3
aI1
aI1
aI1
aI1
aI4
aI3
aI1
aI1
aI4
aI3
aI3
aI3
aI3
aI1
aI4
aI1
aI3
aI3
aI1
aI1
aI1
aI1
aI1
aI4
aI1
aI1
aI1
aI1
aI1
aI3
aI3
aI1
aI3
aI3
aI1
aI4
aI4
aI4
aI1
aI1
aI3
aI1
aI1
aI4
aI1
aI4
aI1
aI3
aI3
aI1
aI1
aI1
aI1
aI4
aI1
aI0
aI3
aI1
aI1
aI1
aI1
aI4
aI4
aI1
aI3
aI3
aI1
aI1
aI3
aI4
aI1
aI1
aI3
aI3
aI1
aI3
aI1
aI3
aI3
aI3
aI1
aI4
aI3
aI1
aI1
aI1
aI3
aI3
aI3
aI1
aI4
aI1
aI4
aI1
aI3
aI1
aI1
aI4
aI1
aI1
aI1
aI1
aI4
aI3
aI1
aI1
aI1
aI1
aI4
aI3
aI1
aI3
aI1
aI3
aI1
aI4
aI3
aI1
aI1
aI3
aI1
aI1
aI1
aI1
aI1
aI3
aI3
aI1
aI1
aI1
aI1
aI1
aI1
aI2
aI3
aI3
aI1
aI1
aI1
aI1
aI1
aI1
aI1
aI1
aI4
aI1
aI1
aI3
aI3
aI1
aI1
aI1
aI3
aI1
aI1
aI0
aI1
aI1
aI1
aI3
aI1
aI4
aI4
aI1
aI1
aI3
aI3
aI1
aI1
aI3
aI1
aI1
aI1
aI1
aI4
aI3
aI1
aI4
aI1
aI1
aI4
aI3
aI1
aI4
aI4
aI4
aI4
aI1
aI4
aI1
aI4
aI1
aI1
aI1
aI3
aI1
aI1
aI2
aI1
aI1
aI1
aI1
aI1
aI4
aI4
aI1
aI1
aI3
aI1
aI3
aI1
aI1
aI1
aI3
aI1
aI1
aI1
aI1
aI1
aI2
aI4
aI1
aI4
aI1
aI4
aI1
aI1
aI1
aI3
aI3
aI1
aI4
aI3
aI4
aI1
aI3
aI1
aI1
aI1
aI1
aI1
aI3
aI3
aI1
aI3
aI1
aI3
aI3
aI4
aI1
aI1
aI1
aI1
aI1
aI1
aI4
aI3
aI1
aI1
aI1
aI1
aI1
aI1
aI1
aI3
aI3
aI1
aI1
aI0
aI3
aI1
aI3
aI1
aI1
aI1
aI1
aI1
aI3
aI1
aI1
aI3
aI3
aI1
aI1
aI4
aI1
aI1
aI1
aI1
aI1
aI1
aI4
aI4
aI1
aI1
aI0
aI3
aI1
aI1
aI1
aI1
aI4
aI1
aI1
aI3
aI4
aI4
aI1
aI1
aI3
aI1
aI1
aI3
aI1
aI3
aI3
aI3
aI1
aI3
aI1
aI3
aI3
aI3
aI1
aI4
aI1
aI3
aI3
aI1
aI1
aI4
aI1
aI1
aI3
aI3
aI0
aI1
aI1
aI1
aI1
aI3
aI0
aI3
aI3
aI1
aI3
aI1
aI1
aI1
aI3
aI1
aI1
aI1
aI1
aI3
aI1
aI3
aI4
aI3
aI1
aI1
aI4
aI1
aI3
aI4
aI1
aI3
aI3
aI1
aI1
aI1
aI1
aI1
aI3
aI3
aI1
aI4
aI1
aI3
aI1
aI1
aI1
aI1
aI3
aI3
aI1
aI1
aI4
aI3
aI3
aI1
aI1
aI1
aI1
aI4
aI3
aI1
aI1
aI1
aI1
aI1
aI1
aI1
aI1
aI1
aI1
aI3
aI0
aI1
aI3
aI1
aI4
aI1
aI0
aI1
aI3
aI3
aI3
aI1
aI3
aI1
aI1
aI1
aI1
aI4
aI1
aI1
aI3
aI4
aI4
aI1
aI3
aI1
aI1
aI3
aI3
aI1
aI1
aI1
aI3
aI4
aI1
aI4
aI3
aI1
aI1
aI4
aI4
aI4
aI3
aI1
aI1
aI1
aI3
aI1
aI3
aI1
aI1
aI1
aI1
aI3
aI1
aI3
aI1
aI4
aI1
aI1
aI4
aI3
aI1
aI1
aI1
aI4
aI1
aI1
aI4
aI3
aI3
aI1
aI1
aI3
aI3
aI1
aI3
aI1
aI1
aI1
aI3
aI1
aI4
aI1
aI1
aI1
aI1
aI1
aI1
aI1
aI1
aI3
aI1
aI1
aI3
aI1
aI1
aI1
aI1
aI3
aI3
aI1
aI1
aI1
aI1
aI1
aI1
aI1
aI3
aI1
aI1
aI3
aI1
aI3
aI3
aI1
aI3
aI1
aI3
aI4
aI1
aI1
aI1
aI3
aI1
aI1
aI3
aI1
aI1
aI1
aI1
aI1
aI3
aI1
aI3
aI4
aI1
aI1
aI0
aI4
aI1
aI4
aI1
aI4
aI1
aI4
aI1
aI1
aI3
aI1
aI4
aI1
aI3
aI1
aI1
aI1
aI1
aI1
aI3
aI3
aI1
aI4
aI3
aI1
aI3
aI1
aI3
aI3
aI4
aI4
aI3
aI3
aI4
aI3
aI3
aI1
aI3
aI4
aI1
aI1
aI3
aI1
aI3
aI2
aI3
aI1
aI3
aI3
aI1
aI3
aI1
aI4
aI1
aI1
aI1
aI1
aI1
aI3
aI3
aI1
aI1
aI4
aI3
aI4
aI3
aI1
aI3
aI3
aI1
aI1
aI1
aI1
aI1
aI1
aI1
aI1
aI1
aI1
aI3
aI1
aI1
aI3
aI1
aI1
aI1
aI1
aI1
aI1
aI1
aI1
aI1
aI1
aI3
aI1
aI1
aI3
aI1
aI1
aI3
aI1
aI1
aI1
aI4
aI1
aI1
aI1
aI0
aI3
aI1
aI1
aI1
aI4
aI3
aI1
aI4
aI1
aI1
aI1
aI3
aI4
aI1
aI3
aI1
aI1
aI1
aI3
aI1
aI3
aI1
aI1
aI1
aI1
aI1
aI1
aI3
aI4
aI3
aI1
aI3
aI1
aI4
aI1
aI1
aI1
aI4
aI4
aI1
aI1
aI3
aI1
aI1
aI1
aI1
aI1
aI4
aI1
aI3
aI3
aI3
aI1
aI1
aI1
aI4
aI3
aI1
aI4
aI3
aI1
aI3
aI1
aI1
aI1
aI1
aI1
aI3
aI1
aI1
aI1
aI1
aI1
aI1
aI1
aI4
aI1
aI4
aI0
aI1
aI3
aI3
aI3
aI1
aI4
aI3
aI1
aI1
aI1
aI1
aI3
aI1
aI1
aI1
aI1
aI1
aI1
aI3
aI4
aI1
aI3
aI1
aI1
aI1
aI3
aI1
aI4
aI1
aI1
aI3
aI3
aI4
aI1
aI3
aI3
aI3
aI1
aI4
aI4
aI1
aI1
aI1
aI1
aI4
aI3
aI3
aI1
aI3
aI1
aI3
aI3
aI1
aI1
aI4
aI3
aI1
aI4
aI1
aI1
aI1
aI1
aI1
aI3
aI3
aI3
aI3
aI1
aI4
aI1
aI1
aI1
aI1
aI1
aI1
aI1
aI4
aI1
aI1
aI1
aI1
aI1
aI1
aI1
aI1
aI4
aI3
aI1
aI1
aI1
aI4
aI1
aI1
aI1
aI4
aI4
aI1
aI1
aI4
aI4
aI1
aI3
aI1
aI3
aI1
aI1
aI3
aI3
aI3
aI1
aI3
aI3
aI1
aI3
aI1
aI1
aI1
aI1
aI3
aI3
aI1
aI1
aI3
aI1
aI1
aI1
aI3
aI3
aI3
aI1
aI1
aI1
aI1
aI3
aI1
aI1
aI1
aI3
aI1
aI1
aI1
aI1
aI4
aI1
aI1
aI1
aI3
aI1
aI1
aI1
aI3
aI1
aI3
aI1
aI1
aI3
aI1
aI1
aI3
aI1
aI3
aI4
aI1
aI1
aI3
aI1
aI1
aI1
aI3
aI1
aI3
aI3
aI3
aI1
aI3
aI4
aI3
aI1
aI1
aI1
aI3
aI3
aI4
aI4
aI1
aI3
aI1
aI1
aI1
aI3
aI3
aI1
aI1
aI3
aI1
aI1
aI4
aI4
aI1
aI4
aI1
aI1
aI1
aI1
aI1
aI1
aI1
aI3
aI4
aI1
aI1
aI3
aI4
aI4
aI3
aI1
aI4
aI1
aI1
aI3
aI1
aI1
aI1
aI3
aI1
aI1
aI1
aI1
aI4
aI3
aI1
aI1
aI3
aI1
aI1
aI1
aI1
aI3
aI1
aI3
aI3
aI1
aI3
aI1
aI1
aI3
aI1
aI3
aI3
aI3
aI1
aI1
aI1
aI3
aI1
aI3
aI1
aI1
aI4
aI1
aI1
aI1
aI1
aI3
aI1
aI3
aI1
aI1
aI1
aI4
aI3
aI1
aI1
aI1
aI1
aI1
aI1
aI3
aI4
aI1
aI3
aI1
aI1
aI1
aI1
aI1
aI3
aI1
aI3
aI1
aI1
aI3
aI1
aI1
aI1
aI1
aI3
aI1
aI1
aI3
aI1
aI1
aI4
aI4
aI3
aI4
aI1
aI1
aI3
aI1
aI1
aI3
aI4
aI1
aI1
aI4
aI1
aI1
aI1
aI4
aI0
aI1
aI1
aI3
aI4
aI4
aI1
aI3
aI3
aI3
aI1
aI1
aI3
aI4
aI1
aI0
aI1
aI1
aI1
aI1
aI3
aI0
aI3
aI1
aI3
aI1
aI1
aI4
aI1
aI1
aI1
aI1
aI1
aI3
aI1
aI1
aI4
aI1
aI1
aI1
aI1
aI1
aI1
aI1
aI1
aI1
aI3
aI1
aI1
aI3
aI3
aI1
aI1
aI1
aI1
aI4
aI1
aI4
aI1
aI1
aI1
aI4
aI1
aI1
aI1
aI1
aI1
aI3
aI1
aI1
aI1
aI1
aI1
aI1
aI4
aI1
aI1
aI1
aI1
aI1
aI3
aI1
aI3
aI1
aI4
aI3
aI3
aI4
aI3
aI1
aI1
aI4
aI1
aI1
aI4
aI3
aI3
aI1
aI4
aI4
aI1
aI4
aI1
aI4
aI1
aI3
aI1
aI1
aI4
aI1
aI3
aI1
aI1
aI1
aI1
aI1
aI3
aI1
aI0
aI3
aI1
aI4
aI3
aI3
aI1
aI1
aI1
aI1
aI3
aI0
aI3
aI1
aI3
aI1
aI1
aI3
aI1
aI3
aI1
aI1
aI3
aI4
aI1
aI1
aI4
aI1
aI1
aI1
aI3
aI4
aI1
aI1
aI3
aI1
aI3
aI1
aI3
aI3
aI3
aI1
aI1
aI1
aI1
aI1
aI3
aI3
aI1
aI1
aI3
aI4
aI1
aI1
aI4
aI1
aI3
aI1
aI3
aI4
aI4
aI4
aI3
aI1
aI1
aI3
aI4
aI1
aI1
aI1
aI1
aI3
aI4
aI1
aI4
aI1
aI1
aI3
aI3
aI1
aI3
aI3
aI1
aI3
aI1
aI1
aI1
aI1
aI1
aI3
aI1
aI3
aI1
aI1
aI1
aI3
aI4
aI1
aI3
aI4
aI1
aI4
aI3
aI1
aI1
aI1
aI1
aI3
aI1
aI0
aI3
aI3
aI3
aI3
aI3
aI3
aI4
aI1
aI3
aI1
aI1
aI1
aI4
aI1
aI1
aI3
aI1
aI1
aI3
aI1
aI4
aI1
aI4
aI1
aI3
aI3
aI4
aI1
aI1
aI1
aI1
aI3
aI1
aI4
aI3
aI1
aI1
aI4
aI1
aI1
aI1
aI3
aI1
aI1
aI3
aI1
aI1
aI1
aI1
aI4
aI1
aI1
aI3
aI1
aI1
aI3
aI4
aI3
aI1
aI1
aI1
aI1
aI1
aF3.0669866646348964e-10
(lp927
F27.310144843569361
aF0.31014484356936123
aF42.310144843569361
aF-41.189855156430639
aF3.1801185567009611
aF-103.81988144329904
aF125.81014484356936
aF18.810144843569361
aF-11.555433070866229
aF-23.455433070866235
aF-51.689855156430639
aF163.81014484356936
aF-37.189855156430639
aF98.310144843569361
aF-24.189855156430639
aF-9.4554330708662349
aF-32.189855156430639
aF-91.189855156430639
aF-87.819881443299039
aF-2.4554330708662349
aF78.480118556700972
aF-2.0554330708662292
aF48.810144843569361
aF-11.555433070866229
aF-27.189855156430639
aF9.4801185567009725
aF-6.6554330708662235
aF124.81014484356936
aF-39.319881443299039
aF-72.955433070866235
aF-141.18985515643064
aF-31.839855156430644
aF-1.2898551564306331
aF-15.689855156430639
aF136.04456692913377
aF62.180118556700961
aF-36.189855156430639
aF-28.189855156430639
aF-72.189855156430639
aF-59.455433070866235
aF-21.189855156430639
aF-76.819881443299039
aF-37.189855156430639
aF-50.939855156430639
aF-40.189855156430639
aF138.71014484356934
aF58.49614484356934
aF68.51014484356935
aF-28.455433070866235
aF-54.189855156430639
aF-69.819881443299039
aF-26.955433070866235
aF-71.189855156430639
aF117.35700000000003
aF-11.455433070866235
aF-0.68985515643063877
aF31.044566929133765
aF15.310144843569361
aF191.96011855670093
aF-16.555433070866229
aF-23.189855156430639
aF-40.455433070866235
aF61.044566929133765
aF-41.189855156430639
aF38.310144843569361
aF135.81014484356936
aF-66.819881443299039
aF44.810144843569361
aF-61.455433070866235
aF-21.819881443299039
aF-2.8198814432990389
aF-11.955433070866235
aF3.8101448435693612
aF-36.289855156430633
aF-34.055433070866229
aF-50.455433070866235
aF-45.439855156430639
aF-54.189855156430639
aF-44.689855156430639
aF-71.189855156430639
aF12.310144843569361
aF12.044566929133765
aF63.810144843569361
aF-54.689855156430639
aF-12.689855156430639
aF13.180118556700961
aF-7.1898551564306388
aF23.044566929133765
aF-96.189855156430639
aF-57.589855156430644
aF-31.555433070866229
aF-82.589855156430644
aF-83.319881443299039
aF-7.5554330708662292
aF23.560144843569361
aF3.8101448435693612
aF32.810144843569361
aF-86.439855156430639
aF-98.189855156430639
aF-52.23985515643065
aF23.810144843569361
aF-3.1898551564306388
aF-22.491433070866236
aF17.710144843569367
aF-11.689855156430639
aF68.810144843569361
aF-81.189855156430639
aF-26.455433070866235
aF-66.189855156430639
aF8.8101448435693612
aF-44.289855156430633
aF-1.1898551564306388
aF202.78014484356939
aF-29.819881443299039
aF118.04456692913377
aF34.544566929133765
aF-42.189855156430639
aF-26.189855156430639
aF138.81014484356936
aF-17.19985515643063
aF-66.819881443299039
aF-41.455433070866235
aF-45.189855156430639
aF-27.289855156430633
aF-65.819881443299039
aF-56.955433070866235
aF-13.455433070866235
aF-54.455433070866235
aF13.544566929133765
aF-31.189855156430639
aF-20.819881443299039
aF62.810144843569361
aF9.2945669291337651
aF78.544566929133765
aF-1.1898551564306388
aF-7.1898551564306388
aF-38.189855156430639
aF-10.189855156430639
aF48.810144843569361
aF-15.319881443299039
aF-66.189855156430639
aF78.810144843569361
aF-15.189855156430639
aF22.810144843569361
aF-56.189855156430639
aF-11.455433070866235
aF-36.455433070866235
aF41.310144843569361
aF-0.45543307086623486
aF-26.455433070866235
aF-59.189855156430639
aF125.58211855670095
aF-56.819881443299039
aF-11.819881443299039
aF-56.189855156430639
aF-102.18985515643064
aF-31.955433070866235
aF88.310144843569361
aF73.710144843569367
aF73.180118556700961
aF-18.689855156430639
aF165.68011855670096
aF38.810144843569361
aF-38.255433070866232
aF10.544566929133765
aF-53.689855156430639
aF8.8101448435693612
aF144.43414484356938
aF2.3101448435693612
aF-18.819881443299039
aF-52.689855156430639
aF-52.642999999999972
aF97.544566929133765
aF-18.189855156430639
aF2.8101448435693612
aF61.810144843569361
aF29.810144843569361
aF-74.319881443299039
aF255.01711855670095
aF-81.189855156430639
aF35.544566929133765
aF58.644566929133759
aF-61.189855156430639
aF18.810144843569361
aF-14.455433070866235
aF228.18011855670096
aF-8.1898551564306388
aF-46.189855156430639
aF11.881566929133783
aF144.54456692913377
aF133.81014484356936
aF42.544566929133765
aF10.810144843569361
aF-11.455433070866235
aF-14.455433070866235
aF7.0445669291337651
aF130.68214484356938
aF-11.819881443299039
aF-37.455433070866235
aF93.710144843569338
aF-41.189855156430639
aF-9.6898551564306388
aF-29.455433070866235
aF7.5445669291337651
aF-31.455433070866235
aF-0.68985515643063877
aF-102.91988144329903
aF-40.189855156430639
aF30.180118556700961
aF-36.189855156430639
aF-43.455433070866235
aF4.8101448435693612
aF71.488144843569358
aF-90.819881443299039
aF-19.439855156430639
aF-46.73985515643065
aF28.810144843569361
aF-74.189855156430639
aF64.680118556700961
aF25.784566929133774
aF23.710144843569367
aF18.810144843569361
aF-1.2898551564306331
aF-84.189855156430639
aF139.43011855670096
aF-29.455433070866235
aF108.81014484356936
aF-35.455433070866235
aF-56.189855156430639
aF51.044566929133765
aF-33.189855156430639
aF156.18011855670096
aF-46.955433070866235
aF-52.98985515643065
aF35.310144843569361
aF-51.955433070866235
aF4.3101448435693612
aF13.310144843569361
aF136.81014484356936
aF-68.189855156430639
aF81.310144843569361
aF-30.955433070866235
aF-62.455433070866235
aF-61.189855156430639
aF23.810144843569361
aF60.310144843569361
aF-44.189855156430639
aF-41.189855156430639
aF-1.1898551564306388
aF-18.737500000000011
aF-64.955433070866235
aF93.544566929133765
aF-8.1898551564306388
aF-23.189855156430639
aF-36.189855156430639
aF48.810144843569361
aF26.310144843569361
aF38.810144843569361
aF50.310144843569361
aF-84.189855156430639
aF-70.819881443299039
aF94.810144843569361
aF-30.189855156430639
aF-11.455433070866235
aF-68.455433070866235
aF-5.6898551564306388
aF3.8101448435693612
aF-1.6898551564306388
aF-20.955433070866235
aF-33.189855156430639
aF84.810144843569361
aF-26.142999999999972
aF108.81014484356936
aF-42.189855156430639
aF-56.689855156430639
aF63.544566929133765
aF19.810144843569361
aF-105.81988144329904
aF168.47811855670096
aF10.810144843569361
aF47.310144843569361
aF43.544566929133765
aF66.044566929133765
aF63.410144843569356
aF-1.9898551564306501
aF23.244566929133754
aF-22.189855156430639
aF-93.189855156430639
aF-59.189855156430639
aF-27.61485515643065
aF-13.589881443299049
aF-5.5554330708662292
aF-50.189855156430639
aF-11.819881443299039
aF-14.189855156430639
aF-38.689855156430639
aF-94.819881443299039
aF97.544566929133765
aF-6.1898551564306388
aF-88.319881443299039
aF-89.819881443299039
aF20.180118556700961
aF-41.819881443299039
aF-31.289855156430633
aF48.180118556700961
aF124.71014484356934
aF-21.819881443299039
aF-91.689855156430639
aF-98.689855156430639
aF178.81014484356936
aF24.144566929133759
aF-49.189855156430639
aF-61.289855156430633
aF79.262499999999989
aF-3.1898551564306388
aF7.3101448435693612
aF78.810144843569361
aF88.810144843569361
aF78.810144843569361
aF-59.319881443299039
aF95.82311855670099
aF172.81014484356936
aF119.81014484356936
aF-15.280433070866238
aF60.810144843569361
aF-54.455433070866235
aF142.81014484356936
aF-35.939855156430639
aF33.310144843569361
aF-63.455433070866235
aF-62.189855156430639
aF-42.189855156430639
aF102.81014484356936
aF25.810144843569361
aF10.810144843569361
aF-66.787500000000023
aF130.60611855670095
aF32.810144843569361
aF-44.319881443299039
aF-26.189855156430639
aF-43.919881443299033
aF-99.189855156430639
aF-93.689855156430639
aF84.810144843569361
aF-56.455433070866235
aF-1.2554330708662462
aF-29.689855156430639
aF-89.319881443299039
aF12.544566929133765
aF190.33411855670096
aF136.87114484356934
aF48.544566929133765
aF-86.189855156430639
aF-75.289855156430633
aF-41.189855156430639
aF-3.6898551564306388
aF-8.1898551564306388
aF-7.4554330708662349
aF-11.455433070866235
aF98.810144843569361
aF14.544566929133765
aF-36.189855156430639
aF57.044566929133765
aF-23.455433070866235
aF-56.819881443299039
aF-34.189855156430639
aF-22.189855156430639
aF-16.189855156430639
aF-49.189855156430639
aF-19.189855156430639
aF-8.7898551564306331
aF-112.38788144329902
aF-16.455433070866235
aF-58.189855156430639
aF38.310144843569361
aF-120.18985515643064
aF-33.189855156430639
aF158.81014484356936
aF213.24214484356932
aF-2.1898551564306388
aF-14.455433070866235
aF46.294566929133765
aF32.310144843569361
aF-105.18985515643064
aF-27.642999999999972
aF50.544566929133765
aF-100.18985515643064
aF-16.455433070866235
aF9.8101448435693612
aF244.81014484356936
aF-62.189855156430639
aF33.810144843569361
aF-74.689855156430639
aF-41.455433070866235
aF-72.189855156430639
aF-52.189855156430639
aF-18.455433070866235
aF28.044566929133765
aF-114.18985515643064
aF59.810144843569361
aF-1.3198814432990389
aF-16.19985515643063
aF-73.189855156430639
aF76.810144843569361
aF-13.189855156430639
aF-31.189855156430639
aF-66.189855156430639
aF-69.819881443299039
aF33.180118556700961
aF158.56014484356936
aF-121.18985515643064
aF-122.64299999999997
aF80.544566929133765
aF-66.189855156430639
aF46.810144843569361
aF-0.05585515643062422
aF-31.689855156430639
aF-7.8198814432990389
aF-55.189855156430639
aF-39.189855156430639
aF64.844566929133777
aF-31.819881443299039
aF-133.81988144329904
aF133.81014484356936
aF-42.189855156430639
aF-6.4554330708662349
aF93.810144843569361
aF-72.181855156430643
aF53.944566929133771
aF-6.1898551564306388
aF-56.055433070866229
aF-61.555433070866229
aF-18.955433070866235
aF-0.18985515643063877
aF-60.455433070866235
aF30.810144843569361
aF-25.455433070866235
aF-22.455433070866235
aF-51.105433070866241
aF-71.189855156430639
aF308.18011855670096
aF-63.189855156430639
aF21.444566929133771
aF31.044566929133765
aF28.810144843569361
aF-53.689855156430639
aF-56.819881443299039
aF18.710144843569367
aF-61.689855156430639
aF-21.455433070866235
aF-31.455433070866235
aF12.357000000000028
aF22.810144843569361
aF28.810144843569361
aF6.8101448435693612
aF-5.6898551564306388
aF-43.455433070866235
aF-11.642999999999972
aF19.544566929133765
aF-31.455433070866235
aF82.245144843569364
aF13.544566929133765
aF-118.80685515643063
aF7.5101448435693499
aF-57.189855156430639
aF37.284566929133774
aF-14.189855156430639
aF-34.689855156430639
aF68.810144843569361
aF5.8101448435693612
aF70.544566929133765
aF8.8101448435693612
aF6.5445669291337651
aF193.18011855670096
aF109.54456692913377
aF-48.689855156430639
aF27.710144843569367
aF133.18011855670096
aF115.81014484356936
aF-51.984433070866231
aF79.180118556700961
aF192.81014484356936
aF13.544566929133765
aF22.544566929133765
aF-48.689855156430639
aF-34.189855156430639
aF-25.189855156430639
aF-6.1898551564306388
aF-21.189855156430639
aF-55.455433070866235
aF-26.455433070866235
aF-48.189855156430639
aF-74.034881443299042
aF-26.189855156430639
aF-50.155433070866238
aF-146.28985515643063
aF248.81014484356936
aF2.8101448435693612
aF-51.189855156430639
aF-21.455433070866235
aF-28.455433070866235
aF45.51014484356935
aF-41.189855156430639
aF42.180118556700961
aF5.5445669291337651
aF-16.955433070866235
aF33.810144843569361
aF27.110144843569373
aF-20.189855156430639
aF-56.689855156430639
aF-81.919881443299033
aF61.209566929133757
aF-51.289855156430633
aF-47.189855156430639
aF-84.689855156430639
aF221.67114484356935
aF-23.189855156430639
aF83.810144843569361
aF29.810144843569361
aF52.810144843569361
aF-74.939855156430639
aF-31.189855156430639
aF17.544566929133765
aF-82.892999999999972
aF134.56014484356936
aF34.544566929133765
aF-49.189855156430639
aF199.44111855670093
aF-95.189855156430639
aF-67.018999999999949
aF-6.1898551564306388
aF-13.455433070866235
aF-33.955433070866235
aF-102.15543307086624
aF-3.1898551564306388
aF-33.955433070866235
aF6.8101448435693612
aF-69.939855156430639
aF-23.189855156430639
aF90.810144843569361
aF68.180118556700961
aF66.810144843569361
aF32.060144843569361
aF-8.4554330708662349
aF-67.154881443299047
aF-17.819881443299039
aF28.810144843569361
aF-11.955433070866235
aF-56.189855156430639
aF81.810144843569361
aF-1.4554330708662349
aF-28.955433070866235
aF74.310144843569361
aF-73.189855156430639
aF102.81014484356936
aF-28.455433070866235
aF-105.81988144329904
aF-73.189855156430639
aF-71.819881443299039
aF92.544566929133765
aF-59.689855156430639
aF-11.189855156430639
aF-138.81988144329904
aF-61.819881443299039
aF21.180118556700961
aF-13.455433070866235
aF143.81014484356936
aF32.810144843569361
aF135.41014484356938
aF-5.4954330708662269
aF-38.589855156430644
aF-21.455433070866235
aF43.310144843569361
aF-11.189855156430639
aF-42.189855156430639
aF-62.689855156430639
aF3.5445669291337651
aF-16.689855156430639
aF4.5445669291337651
aF-49.689855156430639
aF-64.919881443299033
aF72.103144843569368
aF-62.689855156430639
aF78.180118556700961
aF-8.4554330708662349
aF188.71014484356934
aF-51.189855156430639
aF-44.189855156430639
aF-103.81988144329904
aF-101.68985515643064
aF4.7101448435693669
aF205.13011855670095
aF-3.4554330708662349
aF-1.4554330708662349
aF-71.189855156430639
aF137.81014484356936
aF-26.951433070866244
aF52.745566929133759
aF36.310144843569361
aF9.5445669291337651
aF93.810144843569361
aF-40.189855156430639
aF38.810144843569361
aF9.5445669291337651
aF39.810144843569361
aF-41.819881443299039
aF-29.189855156430639
aF43.810144843569361
aF177.91014484356938
aF-62.689855156430639
aF131.81014484356936
aF-33.189855156430639
aF80.310144843569361
aF-34.189855156430639
aF-65.955433070866235
aF-43.689855156430639
aF2.0101448435693499
aF-35.955433070866235
aF133.62314484356935
aF123.81014484356936
aF-114.18985515643064
aF58.810144843569361
aF-6.4554330708662349
aF27.044566929133765
aF-16.039855156430633
aF-21.189855156430639
aF-41.289855156430633
aF-28.189855156430639
aF-46.189855156430639
aF-12.689855156430639
aF-57.189855156430639
aF68.044566929133765
aF-98.689855156430639
aF-41.789855156430633
aF2.5445669291337651
aF18.810144843569361
aF-81.455433070866235
aF-48.455433070866235
aF-96.189855156430639
aF123.10556692913374
aF92.810144843569361
aF84.544566929133765
aF98.180118556700961
aF-29.189855156430639
aF189.6881448435694
aF-37.939855156430639
aF-43.155433070866238
aF-26.189855156430639
aF-26.189855156430639
aF-56.955433070866235
aF24.76014484356935
aF-73.189855156430639
aF9.8101448435693612
aF-46.189855156430639
aF168.81014484356936
aF-53.455433070866235
aF-35.689855156430639
aF7.5445669291337651
aF-149.31988144329904
aF-14.189855156430639
aF16.710144843569367
aF134.35700000000003
aF-136.81988144329904
aF-43.689855156430639
aF176.18011855670096
aF49.310144843569361
aF-117.81988144329904
aF12.310144843569361
aF-78.819881443299039
aF-43.689855156430639
aF-7.6898551564306388
aF-37.855433070866241
aF-16.189855156430639
aF10.680118556700961
aF-41.189855156430639
aF7.0445669291337651
aF-94.189855156430639
aF-71.689855156430639
aF191.31014484356936
aF-52.689855156430639
aF-38.189855156430639
aF17.978566929133763
aF31.544566929133765
aF103.81014484356936
aF-25.819881443299039
aF66.044566929133765
aF46.685144843569361
aF7.3445669291337765
aF210.81014484356936
aF53.244566929133754
aF-0.45543307086623486
aF508.18011855670096
aF88.180118556700961
aF-32.975433070866231
aF0.044566929133765143
aF-70.819881443299039
aF-52.455433070866235
aF-17.955433070866235
aF-42.689855156430639
aF54.544566929133765
aF65.680118556700961
aF-41.189855156430639
aF180.7291448435694
aF-1.4554330708662349
aF31.810144843569361
aF-86.455433070866235
aF6.2624999999999886
aF112.54456692913377
aF-1.6498551564306467
aF-31.555433070866229
aF-89.455433070866235
aF-78.413855156430628
aF47.544566929133765
aF-52.189855156430639
aF-116.31988144329904
aF-16.189855156430639
aF-21.689855156430639
aF-24.189855156430639
aF159.81014484356936
aF-52.689855156430639
aF133.54456692913377
aF1.5445669291337651
aF-56.689855156430639
aF-46.189855156430639
aF73.180118556700961
aF-20.955433070866235
aF-24.819881443299039
aF53.044566929133765
aF-71.189855156430639
aF-38.455433070866235
aF95.044566929133765
aF6.3101448435693612
aF41.310144843569361
aF-49.789855156430633
aF-73.189855156430639
aF-18.189855156430639
aF-87.689855156430639
aF58.710144843569367
aF-2.1898551564306388
aF8.8101448435693612
aF-49.189855156430639
aF0.54456692913376514
aF-2.1898551564306388
aF-6.1898551564306388
aF38.544566929133765
aF118.61014484356937
aF54.810144843569361
aF84.789144843569403
aF79.210144843569338
aF-83.189855156430639
aF-84.689855156430639
aF-19.189855156430639
aF35.810144843569361
aF94.310144843569361
aF-25.189855156430639
aF31.044566929133765
aF30.810144843569361
aF-22.289855156430633
aF37.944566929133771
aF108.81014484356936
aF-53.689855156430639
aF-41.455433070866235
aF34.01014484356935
aF155.81014484356936
aF88.810144843569361
aF17.312118556700966
aF15.310144843569361
aF-21.189855156430639
aF35.647144843569379
aF270.35700000000003
aF-6.5554330708662292
aF-79.189855156430639
aF-74.189855156430639
aF-66.689855156430639
aF148.18011855670096
aF20.544566929133765
aF40.310144843569361
aF-104.31988144329904
aF-37.189855156430639
aF-46.189855156430639
aF-5.1898551564306388
aF34.444566929133771
aF-59.719881443299045
aF-15.689855156430639
aF-13.455433070866235
aF-19.689855156430639
aF-42.189855156430639
aF51.810144843569361
aF-33.555433070866229
aF6.3101448435693612
aF18.744566929133754
aF-34.389855156430627
aF88.600144843569382
aF43.810144843569361
aF13.310144843569361
aF-10.189855156430639
aF-37.689855156430639
aF-31.455433070866235
aF238.18011855670096
aF33.544566929133765
aF18.810144843569361
aF-31.555433070866229
aF7.8101448435693612
aF336.11311855670095
aF-63.189855156430639
aF46.490144843569368
aF-45.689855156430639
aF-23.319881443299039
aF-86.86988144329905
aF-75.189855156430639
aF-0.18985515643063877
aF3.0445669291337651
aF-125.19685515643064
aF-23.289855156430633
aF-65.189855156430639
aF43.710144843569367
aF-44.189855156430639
aF24.180118556700961
aF-26.189855156430639
aF82.544566929133765
aF41.544566929133765
aF-48.455433070866235
aF43.810144843569361
aF-41.689855156430639
aF51.410144843569356
aF138.18011855670096
aF-31.955433070866235
aF7.8101448435693612
aF-61.819881443299039
aF5.9445669291337708
aF-15.189855156430639
aF9.5445669291337651
aF55.810144843569361
aF-14.189855156430639
aF-41.23985515643065
aF-53.189855156430639
aF-27.689855156430639
aF-41.455433070866235
aF-37.189855156430639
aF-50.689855156430639
aF-41.189855156430639
aF-23.689855156430639
aF-6.2898551564306331
aF-40.189855156430639
aF-27.289855156430633
aF-75.819881443299039
aF31.810144843569361
aF-113.31988144329904
aF-27.642999999999972
aF5.8101448435693612
aF-9.9554330708662349
aF73.544566929133765
aF22.544566929133765
aF-23.189855156430639
aF-76.819881443299039
aF-14.455433070866235
aF-34.189855156430639
aF-7.1898551564306388
aF-29.189855156430639
aF68.810144843569361
aF48.494566929133754
aF-49.689855156430639
aF-29.189855156430639
aF-48.689855156430639
aF69.390144843569374
aF-32.689855156430639
aF67.710144843569367
aF-12.455433070866235
aF-77.819881443299039
aF54.810144843569361
aF-31.955433070866235
aF19.310144843569361
aF-65.189855156430639
aF-48.189855156430639
aF-74.955433070866235
aF122.28714484356939
aF-114.56988144329904
aF168.81014484356936
aF-33.189855156430639
aF-4.9554330708662349
aF15.544566929133765
aF-59.319881443299039
aF-3.1898551564306388
aF-22.955433070866235
aF-41.455433070866235
aF187.44456692913374
aF-36.189855156430639
aF-111.31988144329904
aF21.180118556700961
aF-31.689855156430639
aF-58.289855156430633
aF-8.6898551564306388
aF-26.689855156430639
aF-81.819881443299039
aF-22.597433070866245
aF-1.4554330708662349
aF-74.689855156430639
aF1.4975669291337681
aF430.46714484356926
aF-6.4554330708662349
aF-31.455433070866235
aF-28.189855156430639
aF-1.1898551564306388
aF-6.8198814432990389
aF-15.955433070866235
aF-53.189855156430639
aF8.1801185567009611
aF68.810144843569361
aF-50.189855156430639
aF-7.1898551564306388
aF-26.889855156430627
aF-37.689855156430639
aF-53.455433070866235
aF3.5445669291337651
aF32.277566929133769
aF-66.455433070866235
aF-145.87885515643063
aF-111.81988144329904
aF56.810144843569361
aF-4.6898551564306388
aF19.810144843569361
aF-35.289855156430633
aF-11.19985515643063
aF11.810144843569361
aF26.310144843569361
aF-71.819881443299039
aF103.81014484356936
aF-5.1898551564306388
aF55.310144843569361
aF40.810144843569361
aF19.810144843569361
aF-63.689855156430639
aF138.81014484356936
aF8.8101448435693612
aF-4.8198814432990389
aF-61.555433070866229
aF3.7101448435693669
aF71.810144843569361
aF58.609144843569368
aF-2.4198814432990332
aF-30.289855156430633
aF32.810144843569361
aF-31.189855156430639
aF-103.81988144329904
aF-109.31988144329904
aF-56.289855156430633
aF-38.189855156430639
aF23.180118556700961
aF-54.319881443299039
aF16.310144843569361
aF-12.455433070866235
aF-61.289855156430633
aF-7.5554330708662292
aF-9.1898551564306388
aF-53.689855156430639
aF3.5445669291337651
aF-17.455433070866235
aF-9.4554330708662349
aF3.8101448435693612
aF13.544566929133765
aF-24.955433070866235
aF90.810144843569361
aF13.544566929133765
aF57.810144843569361
aF33.710144843569367
aF-2.2898551564306331
aF-21.189855156430639
aF-6.4554330708662349
aF-103.55543307086623
aF-41.189855156430639
aF-46.189855156430639
aF31.544566929133765
aF-81.689855156430639
aF0.81014484356936123
aF-13.689855156430639
aF23.544566929133765
aF-55.955433070866235
aF58.444566929133771
aF-71.189855156430639
aF-42.189855156430639
aF-2.7898551564306331
aF154.81014484356936
aF18.439566929133775
aF74.710144843569367
aF-55.189855156430639
aF-56.189855156430639
aF-24.455433070866235
aF214.00214484356931
aF13.810144843569361
aF15.810144843569361
aF166.81014484356936
aF-78.819881443299039
aF5.8101448435693612
aF-7.2898551564306331
aF156.31014484356936
aF-19.855433070866241
aF-44.689855156430639
aF3.8101448435693612
aF-90.189855156430639
aF64.544566929133765
aF-99.189855156430639
aF-55.455433070866235
aF50.810144843569361
aF-44.284855156430638
aF39.544566929133765
aF-31.289855156430633
aF-17.689855156430639
aF-53.455433070866235
aF58.810144843569361
aF-39.455433070866235
aF-111.81988144329904
aF-81.189855156430639
aF-16.189855156430639
aF-56.455433070866235
aF-61.989855156430636
aF45.810144843569361
aF21.810144843569361
aF46.044566929133765
aF-21.189855156430639
aF72.034566929133774
aF34.544566929133765
aF52.544566929133765
aF-94.189855156430639
aF49.544566929133765
aF40.180118556700961
aF-28.955433070866235
aF-13.689855156430639
aF111.88714484356936
aF-76.189855156430639
aF-23.455433070866235
aF18.544566929133765
aF-49.819881443299039
aF63.180118556700961
aF48.810144843569361
aF-21.705433070866235
aF-97.189855156430639
aF134.31014484356936
aF105.81014484356936
aF-44.455433070866235
aF-61.455433070866235
aF-26.189855156430639
aF-8.1898551564306388
aF54.544566929133765
aF81.090144843569334
aF96.810144843569361
aF-107.21988144329904
aF309.76111855670098
aF-36.189855156430639
aF-131.81988144329904
aF-96.289855156430633
aF-4.7048551564306251
aF18.951144843569352
aF-16.189855156430639
aF-36.689855156430639
aF73.810144843569361
aF-1.1898551564306388
aF44.394566929133759
aF1.1801185567009611
aF153.81014484356936
aF38.810144843569361
aF72.044566929133765
aF-165.81988144329904
aF-156.81988144329904
aF-30.955433070866235
aF-27.189855156430639
aF81.180118556700961
aF-3.1898551564306388
aF-13.289855156430633
aF9.9445669291337708
aF-46.189855156430639
aF-46.189855156430639
aF-27.189855156430639
aF-49.955433070866235
aF-21.689855156430639
aF12.810144843569361
aF38.310144843569361
aF-11.189855156430639
aF-108.01988144329903
aF14.444566929133771
aF-55.189855156430639
aF-36.189855156430639
aF-8.4554330708662349
aF10.810144843569361
aF-21.189855156430639
aF6.3101448435693612
aF-34.189855156430639
aF-57.955433070866235
aF70.810144843569361
aF-3.9554330708662349
aF55.544566929133765
aF-88.289855156430633
aF18.544566929133765
aF-44.689855156430639
aF-35.189855156430639
aF-12.455433070866235
aF-4.7578551564306224
aF-14.455433070866235
aF28.544566929133765
aF-13.455433070866235
aF-24.189855156430639
aF-121.18985515643064
aF-61.689855156430639
aF-6.4554330708662349
aF-21.689855156430639
aF-35.455433070866235
aF143.81014484356936
aF-1.2898551564306331
aF27.905118556700984
aF-0.18985515643063877
aF98.810144843569361
aF6.8101448435693612
aF23.810144843569361
aF-11.555433070866229
aF-46.689855156430639
aF-24.455433070866235
aF136.81014484356936
aF2.9101448435693555
aF-51.189855156430639
aF-106.81988144329904
aF-7.7554330708662462
aF-62.789855156430633
aF31.710144843569367
aF-69.189855156430639
aF-63.189855156430639
aF-17.289855156430633
aF-66.189855156430639
aF32.544566929133765
aF12.180118556700961
aF33.810144843569361
aF-1.4554330708662349
aF-46.189855156430639
aF-87.689855156430639
aF-63.689855156430639
aF58.310144843569361
aF-12.189855156430639
aF-39.455433070866235
aF-62.189855156430639
aF-47.455433070866235
aF14.810144843569361
aF-37.189855156430639
aF-2.4554330708662349
aF16.310144843569361
aF243.68014484356937
aF-101.18985515643064
aF-101.18985515643064
aF7.5445669291337651
aF-1.1898551564306388
aF-6.6898551564306388
aF-24.555433070866229
aF-38.189855156430639
aF-57.189855156430639
aF-96.919881443299033
aF-16.819881443299039
aF-20.955433070866235
aF-45.019881443299028
aF36.810144843569361
aF-1.2898551564306331
aF88.544566929133765
aF53.938144843569347
aF3.8101448435693612
aF4.5445669291337651
aF-22.819881443299039
aF-52.189855156430639
aF-72.230855156430636
aF-52.819881443299039
aF51.980144843569349
aF64.160144843569356
aF-8.1898551564306388
aF-11.819881443299039
aF357.35700000000003
aF-10.189855156430639
aF-18.189855156430639
aF30.444566929133771
aF-46.319881443299039
aF-7.8198814432990389
aF103.81014484356936
aF-21.955433070866235
aF-26.455433070866235
aF13.444566929133771
aF-88.189855156430639
aF68.810144843569361
aF251.04456692913377
aF498.18011855670096
aF-61.189855156430639
aF-80.942999999999984
aF-76.289855156430633
aF-86.189855156430639
aF80.810144843569361
aF13.810144843569361
aF47.544566929133765
aF-99.642999999999972
aF32.544566929133765
aF-56.189855156430639
aF23.544566929133765
aF-23.189855156430639
aF-5.1898551564306388
aF-27.609881443299031
aF-37.189855156430639
aF-3.1898551564306388
aF-33.189855156430639
aF-65.139855156430642
aF16.710144843569367
aF-24.455433070866235
aF31.810144843569361
aF-27.689855156430639
aF25.080118556700938
aF-74.189855156430639
aF18.810144843569361
aF-41.189855156430639
aF108.81014484356936
aF7.8101448435693612
aF-17.189855156430639
aF-68.189855156430639
aF-36.189855156430639
aF-46.689855156430639
aF-16.455433070866235
aF-69.189855156430639
aF48.26614484356935
aF-60.955433070866235
aF-49.955433070866235
aF-66.189855156430639
aF-47.189855156430639
aF-38.189855156430639
aF-43.289855156430633
aF-62.819881443299039
aF-36.189855156430639
aF-32.819881443299039
aF-34.189855156430639
aF186.1041448435694
aF-54.189855156430639
aF-56.819881443299039
aF-48.689855156430639
aF-79.389855156430642
aF-39.189855156430639
aF-51.189855156430639
aF-42.302855156430638
aF34.044566929133765
aF13.810144843569361
aF-38.689855156430639
aF84.710144843569338
aF43.710144843569367
aF67.138144843569364
aF-11.189855156430639
aF218.18011855670096
aF48.810144843569361
aF-3.1898551564306388
aF5.3101448435693612
aF-11.289855156430633
aF-51.689855156430639
aF-22.455433070866235
aF62.810144843569361
aF30.294566929133765
aF-51.189855156430639
aF47.180118556700961
aF23.944566929133771
aF-13.955433070866235
aF54.680118556700961
aF-41.555433070866229
aF8.8101448435693612
aF-30.189855156430639
aF-65.819881443299039
aF-52.289855156430633
aF-19.689855156430639
aF-66.319881443299039
aF39.544566929133765
aF42.444566929133771
aF-59.189855156430639
aF131.68011855670096
aF134.18011855670096
aF-37.189855156430639
aF13.180118556700961
aF4.5601448435693612
aF-109.81988144329904
aF-4.1898551564306388
aF-2.4554330708662349
aF-44.189855156430639
aF-19.189855156430639
aF-48.919881443299033
aF55.810144843569361
aF-73.055433070866229
aF45.810144843569361
aF-1.1898551564306388
aF-30.689855156430639
aF-42.189855156430639
aF-12.189855156430639
aF-8.9554330708662349
aF-38.189855156430639
aF-77.642999999999972
aF136.54456692913377
aF99.810144843569361
aF-66.319881443299039
aF-21.955433070866235
aF-33.955433070866235
aF-18.289855156430633
aF-66.189855156430639
aF-42.689855156430639
aF-26.189855156430639
aF-1.4554330708662349
aF-107.64299999999997
aF12.544566929133765
aF43.810144843569361
aF36.044566929133765
aF108.81014484356936
aF50.810144843569361
aF-11.455433070866235
aF143.81014484356936
aF61.044566929133765
aF-43.189855156430639
aF-34.189855156430639
aF37.744566929133754
aF88.180118556700961
aF21.810144843569361
aF120.81014484356936
aF86.348118556700967
aF-62.189855156430639
aF25.710144843569367
aF114.30314484356936
aF67.444566929133771
aF28.180118556700961
aF-70.189855156430639
aF-24.689855156430639
aF-68.955433070866235
aF8.8101448435693612
aF-58.955433070866235
aF-34.189855156430639
aF-86.455433070866235
aF-62.455433070866235
aF-10.955433070866235
aF74.810144843569361
aF-4.6898551564306388
aF45.810144843569361
aF-48.689855156430639
aF-81.189855156430639
aF-15.955433070866235
aF-16.455433070866235
aF-13.289855156430633
aF-46.189855156430639
aF-88.955433070866235
aF-46.819881443299039
aF-52.689855156430639
aF-58.189855156430639
aF-91.819881443299039
aF47.310144843569361
aF35.544566929133765
aF-25.354855156430631
aF-32.955433070866235
aF15.680118556700961
aF36.643118556700927
aF-31.819881443299039
aF-19.455433070866235
aF18.810144843569361
aF-10.189855156430639
aF-6.5554330708662292
aF163.18011855670096
aF53.810144843569361
aF-11.189855156430639
aF-71.189855156430639
aF-31.289855156430633
aF36.044566929133765
aF68.180118556700961
aF7.8101448435693612
aF13.180118556700961
aF-76.289855156430633
aF-24.257855156430622
aF2.6965669291337804
aF74.544566929133765
aF11.810144843569361
aF-14.455433070866235
aF2.5445669291337651
aF50.810144843569361
aF-36.455433070866235
aF-15.689855156430639
aF93.110144843569373
aF285.31014484356933
aF68.810144843569361
aF57.810144843569361
aF-50.455433070866235
aF-64.189855156430639
aF-58.455433070866235
aF-13.689855156430639
aF-122.68985515643064
aF56.310144843569361
aF15.544566929133765
aF-134.81988144329904
aF-76.189855156430639
aF-15.955433070866235
aF3.1801185567009611
aF-45.189855156430639
aF130.68011855670096
aF-10.455433070866235
aF53.810144843569361
aF-57.189855156430639
aF-58.189855156430639
aF-18.189855156430639
aF105.12256692913377
aF100.02314484356933
aF-107.64299999999997
aF-3.9554330708662349
aF-3.4554330708662349
aF-4.0054330708662462
aF-21.455433070866235
aF51.544566929133765
aF52.423566929133784
aF36.102118556700987
aF-76.189855156430639
aF133.54456692913377
aF-48.189855156430639
aF-69.189855156430639
aF-55.689855156430639
aF-31.819881443299039
aF48.810144843569361
aF-41.189855156430639
aF-51.455433070866235
aF75.810144843569361
aF25.810144843569361
aF34.444566929133771
aF-58.689855156430639
aF93.180118556700961
aF-57.189855156430639
aF-23.819881443299039
aF-1.2898551564306331
aF-13.955433070866235
aF-4.9554330708662349
aF28.150118556700988
aF-37.189855156430639
aF-39.189855156430639
aF89.810144843569361
aF-41.189855156430639
aF-22.455433070866235
aF1.7101448435693669
aF-54.679881443299053
aF2.2945669291337651
aF-116.68985515643064
aF5.3101448435693612
aF-86.819881443299039
aF-7.1898551564306388
aF-60.689855156430639
aF213.42714484356932
aF8.2445669291337538
aF15.810144843569361
aF9.8101448435693612
aF7.8445669291337765
aF128.81014484356936
aF-60.189855156430639
aF-1.5898551564306445
aF-52.189855156430639
aF-88.919881443299033
aF58.810144843569361
aF-69.189855156430639
aF-49.455433070866235
aF-45.189855156430639
aF105.90014484356934
aF3.5445669291337651
aF-162.31988144329904
aF43.544566929133765
aF-6.1898551564306388
aF28.810144843569361
aF85.310144843569361
aF-39.064855156430639
aF-33.689855156430639
a(lp928
F267.64299999999997
aF181.18985515643064
aF295.73750000000001
aF141.45543307086623
aF246.81988144329904
at.