((lp1
<<<<<<< HEAD
ccollections
defaultdict
p2
(c__builtin__
int
p3
tRp4
S'MasVnrAreaBrkCmn'
p5
F-6.7543487282209571e-08
sS'GarageCarsNA'
p6
F-5.5855855800539809e-07
sS'LotConfig'
p7
F-3.0242363489168183e-07
sS'BsmtCondNA'
p8
F-2.6059625655088314e-07
sS'PavedDriveNA'
p9
F-5.5855855800539809e-07
sS'OpenPorchSF'
p10
F0.00035157446958692323
sS'MasVnrAreaStone'
p11
F1.1190093214433417e-06
sS'BsmtCondFa'
p12
F-2.447249246169644e-07
sS'HeatingQCOthW'
p13
F-4.2990295377573312e-09
sS'MasVnrTypeMetalSd'
p14
F-4.2551617102321839e-07
sS'UtilitiesLow'
p15
F-9.9607600234585344e-08
sS'Exterior2ndAsphShn'
p16
F-7.6896312702669627e-09
sS'Exterior2ndCBlock'
p17
F-2.3977363921087781e-09
sS'BsmtFinType1Gd'
p18
F8.1975025035854939e-07
sS'Exterior1stRoll'
p19
F-1.0434790060674876e-08
sS'Exterior2ndAsbShng'
p20
F-1.2787306578898546e-07
sS'EnclosedPorch'
p21
F0.00018973424756113988
sS'UtilitiesLvl'
p22
F-1.1361318692968076e-07
sS'X1stFlrSFFuseA'
p23
F-5.8655568289878665e-07
sS'X1stFlrSFFuseF'
p24
F-1.9470262839370512e-07
sS'Exterior2ndStone'
p25
F4.4597275398778164e-09
sS'MasVnrTypeStone'
p26
F-1.8442222023026e-08
sS'BsmtFinSF2LwQ'
p27
F-9.2192643023313707e-08
sS'X1stFlrSFMix'
p28
F-1.7237047269459699e-08
sS'BsmtExposurePo'
p29
F-3.0121726558717168e-08
sS'HouseAgeAbnorml'
p30
F-3.6035374769792037e-07
sS'KitchenAbvGr'
p31
F-6.0398316300770321e-07
sS'MiscFeatureMnPrv'
p32
F-3.9699813433057819e-07
sS'FoundationTA'
p33
F5.7910669936828219e-08
sS'Condition1Crawfor'
p34
F3.0160147682646653e-08
sS'FireplacesMod'
p35
F-5.1507908562402908e-08
sS'Condition1NoRidge'
p36
F5.6737170563527367e-07
sS'Condition1Gilbert'
p37
F-8.6904461060378083e-08
sS'BsmtQualStone'
p38
F-1.8491027926932922e-08
sS'GarageCarsRFn'
p39
F7.1645457305314317e-07
sS'PavedDriveFa'
p40
F-2.3307420420574691e-07
sS'RoofMatlShed'
p41
F8.802593234122017e-10
sS'MasVnrTypeAsphShn'
p42
F-1.490202487315518e-08
sS'Condition1Mitchel'
p43
F-1.5749478031262116e-07
sS'RoofMatlFlat'
p44
F-5.81947407825893e-08
sS'FullBath'
p45
F-7.873801091083124e-08
sS'MiscValGar2'
p46
F-1.2270741036372738e-08
sS'BsmtFinType1Mn'
p47
F3.0162802661049063e-08
sS'BsmtFinSF1Rec'
p48
F-4.9806131715862991e-07
sS'MSSubClass'
p49
F-3.1712119866994771e-07
sS'BldgTypeArtery'
p50
F-1.8718786187517489e-08
sS'MasVnrAreaNone'
p51
F-2.2026844945936079e-06
sS'BsmtFinSF2Rec'
p52
F-1.5661845200046751e-07
sS'GarageTypePo'
p53
F-1.0646379586067611e-07
sS'LotFrontageFV'
p54
F3.581722409118187e-07
sS'BsmtFinSF1BLQ'
p55
F-5.6361729964848542e-07
sS'BsmtFinType2'
p56
F0.0017968837419235109
sS'BsmtQualCBlock'
p57
F-2.3249259077324574e-06
sS'PoolArea'
p58
F4.8103925602993662e-05
sS'Exterior2ndWd Sdng'
p59
F-7.8025671056733192e-07
sS'RemodAddAge'
p60
F-0.00012800638894276388
sS'Condition1Sawyer'
p61
F-3.9677638140910605e-07
sS'MiscFeatureGdWo'
p62
F-2.0150780703469105e-07
sS'MiscFeatureGdPrv'
p63
F-3.9782443208143898e-08
sS'LandSlopeInside'
p64
F-1.4854048584416761e-07
sS'Exterior1stTar&Grv'
p65
F-4.9225997628291198e-08
sS'Functional'
p66
F5.173812507833943e-06
sS'Alley'
p67
F-0.00058050112650940471
sS'Condition2Feedr'
p68
F-3.2055523036687524e-07
sS'OverallQual2.5Fin'
p69
F2.4932409486074356e-08
sS'BsmtQualBrkTil'
p70
F-6.4888972171840922e-07
sS'MSZoning'
p71
F-1.8449378140766992e-05
sS'PoolQC'
p72
F3.5445160292446014e-05
sS'BldgTypePosN'
p73
F1.10795499410305e-08
sS'SaleConditionWD'
p74
F-1.2275789936069925e-06
sS'GarageFinishBasment'
p75
F-6.9801450793346989e-08
sS'TotRmsAbvGrdEx'
p76
F1.4446691433791685e-06
sS'BldgTypeFeedr'
p77
F-4.1688632768669865e-08
sS'WoodDeckSFN'
p78
F-6.6163862719490798e-07
sS'CentralAirFa'
p79
F-2.8090003883246405e-07
sS'BsmtExposureFa'
p80
F-2.9746061679941538e-07
sS'BldgTypeRRNn'
p81
F-8.733767177280147e-09
sS'MasVnrTypeWd Shng'
p82
F-1.0350954283667138e-08
sS'ElectricalY'
p83
F3.8557054430191022e-07
sS'GarageTypeEx'
p84
F3.6448634775875177e-07
sS'Condition2RRNe'
p85
F8.910121680872493e-09
sS'Exterior1stCompShg'
p86
F-3.6043356041663417e-07
sS'GarageTypeFa'
p87
F-4.0927394352274636e-08
sS'Condition1NWAmes'
p88
F-1.2710155851422386e-07
sS'OverallCond'
p89
F1.0210962629932098e-05
sS'RoofMatlGable'
p90
F-1.0941128695588855e-06
sS'SaleConditionConLI'
p91
F7.5763390124109733e-09
sS'SaleConditionNew'
p92
F1.1520150750393255e-06
sS'ExterCondTA'
p93
F-3.4615738950064814e-06
sS'GarageFinishAttchd'
p94
F1.2693135609614255e-06
sS'MasVnrTypeBrkFace'
p95
F4.2856935492387922e-09
sS'BsmtQualPConc'
p96
F2.8437793750698595e-06
sS'BsmtFinSF1ALQ'
p97
F-4.6375594502810564e-07
sS'Condition1OldTown'
p98
F-5.0152643641537517e-07
sS'Exterior1stMembran'
p99
F2.1918950357221135e-09
sS'ElectricalN'
p100
F-7.0269174297186196e-07
sS'LandContourIR1'
p101
F5.1894572548705768e-07
sS'LandContourIR2'
p102
F9.7628826941892125e-08
sS'LandContourIR3'
p103
F-4.7334056866869582e-08
sS'GarageTypeTA'
p104
F3.5973263440648167e-07
sS'FireplacesTyp'
p105
F1.9066736957233276e-07
sS'BsmtFinType1Av'
p106
F4.9614044896707465e-07
sS'PavedDriveEx'
p107
F-3.867250712524812e-09
sS'Exterior2ndPlywood'
p108
F-2.2520031172417415e-07
sS'BsmtFinSF2GLQ'
p109
F8.3525832365696184e-09
sS'Condition1Blueste'
p110
F-1.1450617379166998e-09
sS'GarageFinishCarPort'
p111
F-1.0819412576500801e-07
sS'PavedDriveTA'
p112
F5.2702831227015988e-07
sS'BsmtHalfBath'
p113
F1.1723320287995992e-06
sS'HouseAgeAlloca'
p114
F-1.7839593827169752e-08
sS'Condition2Artery'
p115
F-2.4817256488438648e-07
sS'Exterior1stClyTile'
p116
F-1.9303512186225992e-08
sS'MasVnrTypeHdBoard'
p117
F-2.9974030658005251e-07
sS'BsmtCondGd'
p118
F1.0130849290304135e-06
sS'FoundationFa'
p119
F-1.9658547608464164e-07
sS'LotFrontageRH'
p120
F-6.4803290170910716e-08
sS'Condition1BrDale'
p121
F-6.4518606137670962e-08
sS'BsmtFinSF2BLQ'
p122
F-1.0257187809465978e-07
sS'MasVnrTypeCmentBd'
p123
F3.4429835195345224e-07
sS'RoofMatlHip'
p124
F9.0953837109596343e-07
sS'LotShapeGrvl'
p125
F-3.3919263354723382e-07
sS'BsmtExposureGd'
p126
F2.1201178922652124e-07
sS'CentralAirGd'
p127
F-6.1073101384132626e-07
sS'Condition1Timber'
p128
F1.053533778144544e-07
sS'GarageCondTA'
p129
F4.453753714253012e-07
sS'YrSold'
p130
F-8.0380248081945507e-07
sS'UtilitiesBnk'
p131
F-2.8773764307814745e-07
sS'Heating'
p132
F0.0022711163245069904
sS'ExterCondEx'
p133
F9.9861233041165579e-07
sS'Exterior2ndHdBoard'
p134
F-4.3344801945019258e-07
sS'FoundationEx'
p135
F6.1918359989103037e-09
sS'OverallQualSLvl'
p136
F-1.2007207007694228e-07
sS'HeatingQCGasW'
p137
F-8.5814364206924127e-08
sS'RoofMatlGambrel'
p138
F-4.8840688585651411e-08
sS'WoodDeckSFY'
p139
F5.2666958521719213e-07
sS'BsmtFinSF1LwQ'
p140
F-1.8864972790368159e-07
sS'HouseStyleTwnhsE'
p141
F3.7885630645565384e-07
sS'GarageFinishNA'
p142
F-5.5855855800539809e-07
sS'BsmtQualWood'
p143
F-1.5618932639302187e-08
sS'BsmtFinSF2NA'
p144
F-2.6059625655088314e-07
sS'WoodDeckSFP'
p145
F-1.8215215669220135e-07
sS'Exterior2ndWdShing'
p146
F-6.7984871530690538e-08
sS'MasVnrTypeOther'
p147
F1.4846704387876565e-08
sS'MasVnrTypeBrk Cmn'
p148
F-2.3294907425041409e-08
sS'Condition1Blmngtn'
p149
F9.7690475263449944e-08
sS'Exterior1stMetal'
p150
F-9.6903240396156219e-09
sS'Exterior2ndMetalSd'
p151
F-4.6854107654849017e-07
sS'Condition1MeadowV'
p152
F-1.0669007557178886e-07
sS'Condition2Norm'
p153
F3.4596395745461806e-07
sS'ExterQual'
p154
F0.00089795918860576288
sS'SaleConditionConLD'
p155
F-5.3486119917057751e-08
sS'GarageFinishDetchd'
p156
F-1.4191694245527019e-06
sS'Exterior2ndBrkComm'
p157
F-2.7999614145119235e-08
sS'Exterior2ndStucco'
p158
F-6.9271583974225488e-08
sS'GarageCarsFin'
p159
F1.7957563281610856e-06
sS'SalePriceThousands'
p160
F-0.00012786310704720626
sS'HouseStyle2fmCon'
p161
F-2.0851727183618274e-07
sS'GarageArea'
p162
F4.1309082574637365e-06
sS'Condition1BrkSide'
p163
F-1.4820105016302927e-07
sS'NeighborhoodGtl'
p164
F-2.3139329594614165e-07
sS'FoundationGd'
p165
F-1.7838055574916678e-07
sS'MiscValOthr'
p166
F-1.8754603521230486e-08
sS'NeighborhoodSev'
p167
F-5.7407426299178518e-08
sS'Exterior1stWdShngl'
p168
F1.2305309117488279e-07
sS'HouseAgePartial'
p169
F1.1404807622849686e-06
sS'BsmtFinType1No'
p170
F-1.3955677995594625e-06
sS'BsmtFullBath'
p171
F0.0028425548455419942
sS'MasVnrAreaBrkFace'
p172
F7.8224729858504645e-07
sS'MasVnrTypeAsbShng'
p173
F-1.1400094028884538e-07
sS'Exterior2ndCemntBd'
p174
F3.5030475559270294e-07
sS'HeatingQCWall'
p175
F-2.891857905811109e-08
sS'BsmtExposureTA'
p176
F5.9045612012541243e-08
sS'LandSlopeCorner'
p177
F-2.6480464331354624e-07
sS'FoundationPo'
p178
F-6.2576727718769498e-09
sS'LotArea'
p179
F4.0555496280483452e-05
sS'SaleConditionCOD'
p180
F-2.0319389692690774e-07
sS'MiscValNA'
p181
F-8.4387555513124236e-08
sS'FireplacesMin2'
p182
F-2.1149592863457226e-07
sS'Exterior1stWdShake'
p183
F6.7219994508905803e-09
sS'FireplacesMin1'
p184
F-1.3102774665177598e-07
sS'GarageTypeNA'
p185
F-2.2262769558564262e-06
sS'GrLivArea'
p186
F-1.3525537168555049e-05
sS'SaleConditionCWD'
p187
F1.3951698966112635e-08
sS'FenceGd'
p188
F-1.1596459062867003e-08
sS'LandSlopeFR2'
p189
F-6.6653132434180933e-08
sS'LandSlopeFR3'
p190
F1.3947347557331138e-08
sS'RoofStyle'
p191
F-2.2944446816327982e-06
sS'X3SsnPorch'
p192
F-0.00010560227904939414
sS'MasVnrTypeImStucc'
p193
F1.1287403072575718e-07
sS'GarageCondGd'
p194
F5.3744093215362125e-08
sS'MasVnrAreaNA'
p195
F5.1850163177495331e-08
sS'MoSold'
p196
F-0.00031182566373420351
sS'Exterior2ndImStucc'
p197
F7.4670298384520611e-09
sS'X1stFlrSFFuseP'
p198
F-1.9913706895985226e-08
sS'OverallQualSFoyer'
p199
F-1.1286865504542617e-07
sS'LotFrontageC (all)'
p200
F-1.3713393290035442e-07
sS'SaleConditionCon'
p201
F2.1814555548981208e-08
sS'OverallQual1Story'
p202
F-3.466746164654205e-07
sS'Condition1Somerst'
p203
F5.108094233873932e-07
sS'Condition1Veenker'
p204
F4.4270645743336854e-08
sS'BsmtUnfSF'
p205
F-7.7249164908469928e-05
sS'Condition1NridgHt'
p206
F1.0555022374981272e-06
sS'GarageFinish2Types'
p207
F-3.2553198069858087e-08
sS'CentralAirEx'
p208
F2.356045209150145e-06
sS'LandSlopeCulDSac'
p209
F1.4892971536461512e-07
sS'Condition1SWISU'
p210
F-6.2481698535587184e-08
sS'SaleType'
p211
F-0.00063702219283109723
sS'HouseAgeAdjLand'
p212
F-2.7467249410220052e-08
sS'BsmtCondTA'
p213
F-2.5926551376686338e-06
sS'X2ndFlrSF'
p214
F0.0017319364891689884
sS'FireplaceQu'
p215
F2.3551995953775114e-06
sS'Condition1ClearCr'
p216
F-5.089198430526072e-08
sS'KitchenQual'
p217
F-7.5537507684325032e-07
sS'X1stFlrSFSBrkr'
p218
F4.9960305893268315e-07
sS'ExterCondFa'
p219
F-1.2268287086698567e-07
sS'SaleConditionConLw'
p220
F-1.4232990177015274e-08
sS'BsmtFinType1NA'
p221
F-2.6760690109720183e-07
sS'BsmtCondEx'
p222
F1.767770191136085e-06
sS'TotRmsAbvGrdTA'
p223
F-3.1341932717280471e-06
sS'BldgTypeRRAn'
p224
F-9.7840665745185919e-09
sS'NeighborhoodMod'
p225
F-2.8320476424620509e-08
sS'MiscValShed'
p226
F-2.0343573175202865e-07
sS'MiscValTenC'
p227
F1.7274331528047772e-09
sS'MasVnrTypeStucco'
p228
F-1.1170047848470739e-07
sS'Condition2RRAe'
p229
F-9.6396533782480275e-08
sS'Condition1IDOTRR'
p230
F-3.0499316094408424e-07
sS'MasVnrTypeVinylSd'
p231
F1.4728609280681769e-06
sS'Condition2RRAn'
p232
F-2.9356113800920405e-08
sS'GarageAge'
p233
F-0.00019314855598457102
sS'HouseAgeNormal'
p234
F-9.6472460393774387e-07
sS'MasVnrTypeWd Sdng'
p235
F-7.5585304689237925e-07
sS'LotFrontageRL'
p236
F3.1174542601997118e-07
sS'LotFrontageRM'
p237
F-7.8510164253045876e-07
sS'GarageCondFa'
p238
F-2.5086535126620027e-07
sS'MiscFeatureNA'
p239
F3.7115703926779762e-07
sS'LowQualFinSF'
p240
F0.0011241438935415593
sS'BsmtQualSlab'
p241
F-1.5297498372268972e-07
sS'FenceEx'
p242
F6.5198176776947286e-08
sS'LandContourReg'
p243
F-8.8636169423200471e-07
sS'BldgTypePosA'
p244
F1.0364716079488015e-08
sS'BldgTypeNorm'
p245
F-2.5964021198247705e-07
sS'GarageCondEx'
p246
F2.6214232221675646e-08
sS'BsmtFinSF1GLQ'
p247
F2.3756936617422645e-06
sS'PavedDriveGd'
p248
F2.4101772974691013e-08
sS'GarageQual'
p249
F0.0011201101803273556
sS'Exterior2ndVinylSd'
p250
F1.502128148768589e-06
sS'TotRmsAbvGrdFa'
p251
F-2.805027886651222e-07
sS'HalfBath'
p252
F2.616675097059582e-06
sS'OverallQual1.5Fin'
p253
F-5.8952139397918832e-07
sS'HouseStyle1Fam'
p254
F-1.5256841929121176e-07
sS'X1stFlrSFNA'
p255
F1.6848078553318927e-09
sS'HouseStyleDuplex'
p256
F-2.9752369079295775e-07
sS'MiscFeatureMnWw'
p257
F-4.998985336434069e-08
sS'HeatingQCFloor'
p258
F-6.509648903934582e-09
sS'FireplacesSev'
p259
F-1.4201086322190899e-08
sS'Condition2PosA'
p260
F-5.5431056357793766e-09
sS'Condition1SawyerW'
p261
F5.5674737745635036e-08
sS'BsmtExposureNA'
p262
F-2.6059625655088314e-07
sS'FenceFa'
p263
F5.0276913040204663e-09
sS'BsmtFinSF1NA'
p264
F-2.6059625655088314e-07
sS'BsmtFinSF2ALQ'
p265
F5.6119648793162197e-08
sS'LotShapePave'
p266
F2.2249197402599888e-08
sS'FireplacesMaj2'
p267
F-7.0482294453828464e-08
sS'FireplacesMaj1'
p268
F-2.9073603617500623e-08
sS'TotalBsmtSF'
p269
F0.00055148174749200822
sS'PavedDrivePo'
p270
F-7.2751270991095796e-08
sS'Condition2PosN'
p271
F-1.5245897805917055e-09
sS'Exterior2ndBrkFace'
p272
F2.9181760981965057e-08
sS'GarageCondPo'
p273
F-3.3030986260689936e-08
sS'ExterCondGd'
p274
F2.2685232367918712e-06
sS'UtilitiesHLS'
p275
F1.8383723157246213e-07
sS'Condition1StoneBr'
p276
F4.1299991800272509e-07
sS'OverallQual1.5Unf'
p277
F-6.149300249641168e-08
sS'GarageTypeGd'
p278
F1.3323279652341119e-06
sS'TotRmsAbvGrdGd'
p279
F1.6529057183440102e-06
sS'HouseStyleTwnhs'
p280
F-3.736812320524187e-08
sS'SaleConditionOth'
p281
F-1.3986866608898631e-08
sS'Condition2RRNn'
p282
F2.9552860445590862e-08
sS'Condition1CollgCr'
p283
F2.3095099866776568e-07
sS'BsmtFinSF2Unf'
p284
F2.3038579896965043e-07
sS'OverallQual2Story'
p285
F9.2391040330126124e-07
sS'RoofMatlMansard'
p286
F-2.6391530162267532e-08
sS'CentralAirPo'
p287
F-1.0190976367942318e-08
sS'GarageCarsUnf'
p288
F-2.2707735418786954e-06
sS'Condition1NPkVill'
p289
F-1.0521408368173597e-08
sS'HeatingQCGrav'
p290
F-7.8804248737670216e-08
sS'MasVnrTypeCBlock'
p291
F-2.3977363921087781e-09
sS'ScreenPorch'
p292
F5.2486310572668996e-06
sS'BedroomAbvGr'
p293
F1.1208073607927976e-06
sS'CentralAirTA'
p294
F-1.7713443787784342e-06
sS'Condition1Edwards'
p295
F-6.1276993944356563e-07
sS'Condition1NAmes'
p296
F-7.9588826319197267e-07
sS'HeatingQCGasA'
p297
F-1.1277532822555321e-07
sS'MasVnrTypePlywood'
p298
F-4.9008811908830834e-07
sS'BsmtFinSF1Unf'
p299
F-7.1813431412246764e-07
sS'GarageCondNA'
p300
F-5.5855855800539809e-07
sS'FenceNA'
p301
F-3.7575060768804687e-07
sS'GarageFinishBuiltIn'
p302
F6.0184199755490313e-07
sS'OverallQual2.5Unf'
p303
F-3.5334273393878534e-08
sS'LotShapeNA'
p304
F-1.7776252531138154e-10
sS'HouseAgeFamily'
p305
F-8.7216766081886809e-08
sS'Id'
p306
F-0.00031171594032528737
sag2
(g3
tRp307
g5
F-6.0702996340971601e-08
sg6
F-5.6606209713392852e-07
sg7
F-6.9749125631243502e-07
sg8
F-2.5469748478328912e-07
sg9
F-5.6606209713392852e-07
sg10
F0.0003123575086094004
sg11
F1.0534746059001299e-06
sg12
F-2.4908841705513554e-07
sg13
F-5.4368625008193697e-09
sg14
F-4.7877730665791773e-07
sg15
F-7.7219705804893708e-08
sg16
F-7.6143048747319657e-09
sg17
F-2.7130392214819146e-09
sg18
F7.9298506227836689e-07
sg19
F-1.0789373199659327e-08
sg20
F-1.305351992792719e-07
sg21
F0.00016358671518966326
sg22
F-5.1251760388950125e-07
sg23
F-5.9816023896897268e-07
sg24
F-1.9670250519230508e-07
sg25
F3.2651298478014725e-09
sg26
F-1.8146973452235739e-08
sg27
F-1.0216658531185245e-07
sg28
F-1.7292121318990509e-08
sg29
F-3.0047557128947445e-08
sg30
F-3.8667871421818622e-07
sg31
F-1.8010868292918937e-06
sg32
F-4.3152484375743474e-07
sg33
F-2.9871217536616213e-07
sg34
F1.5614827586146229e-08
sg35
F-5.3270408443886813e-08
sg36
F5.3623811266362789e-07
sg37
F-9.7970497110196564e-08
sg38
F-2.0126094792986205e-08
sg39
F5.6695766594893089e-07
sg40
F-2.3672308643508153e-07
sg41
F1.0430278303354953e-09
sg42
F-1.4980662045589095e-08
sg43
F-1.6660752334808488e-07
sg44
F-5.401089078399046e-08
sg45
F-9.1713250666302615e-08
sg46
F-1.1525783616820493e-08
sg47
F-3.6977646689725004e-09
sg48
F-5.177767735280691e-07
sg49
F-7.1205992790715358e-07
sg50
F-1.9324179915108819e-08
sg51
F-2.3504947886464673e-06
sg52
F-1.6321343301973336e-07
sg53
F-1.0841345236125752e-07
sg54
F3.2668090707957358e-07
sg55
F-5.8335562653557805e-07
sg56
F0.00155074292720987
sg57
F-2.4158518138570792e-06
sg58
F4.0324290398166955e-05
sg59
F-7.9948321601038169e-07
sg60
F-0.00013467422436497394
sg61
F-4.0537451800359244e-07
sg62
F-2.0987791828200661e-07
sg63
F-5.6790301663938148e-08
sg64
F-4.6631160573628572e-07
sg65
F-4.6963761150900583e-08
sg66
F2.239739223647289e-06
sg67
F-0.00031631208354051816
sg68
F-3.382650668892123e-07
sg69
F1.9502076706170428e-08
sg70
F-6.7186812682369843e-07
sg71
F-4.3637378103751219e-05
sg72
F3.2673886855158677e-05
sg73
F8.3875661214293672e-09
sg74
F-1.5324015715491738e-06
sg75
F-7.352329202934501e-08
sg76
F1.3732478114952828e-06
sg77
F-4.2553792789209858e-08
sg78
F-6.6596783643492597e-07
sg79
F-2.8420668047882265e-07
sg80
F-3.0623571625482848e-07
sg81
F-8.4989594078866303e-09
sg82
F-1.4848512846855487e-08
sg83
F-9.2132232338574535e-10
sg84
F3.4619091333044802e-07
sg85
F7.9819968275636322e-09
sg86
F-7.5481581402176635e-07
sg87
F-4.9325498861227227e-08
sg88
F-1.5200083589978425e-07
sg89
F7.3957538915635244e-06
sg90
F-1.3751994817512821e-06
sg91
F5.2657375333737901e-09
sg92
F1.0827175198682066e-06
sg93
F-3.6025244733071036e-06
sg94
F9.9517469524914417e-07
sg95
F-4.1664828393531887e-09
sg96
F2.5623699201485005e-06
sg97
F-5.047183623420224e-07
sg98
F-5.2818120039065188e-07
sg99
F3.7220015289280916e-09
sg100
F-7.1113860558377746e-07
sg101
F3.8262593110773411e-07
sg102
F1.1103926215683693e-07
sg103
F-4.9490950971956113e-08
sg104
F2.6456201368320119e-07
sg105
F-1.8673680748273631e-07
sg106
F4.2022102152418177e-07
sg107
F-3.8918713401833982e-09
sg108
F-2.4187061652392412e-07
sg109
F6.0532310547524989e-09
sg110
F-2.1985568264725466e-09
sg111
F-1.0826884415764476e-07
sg112
F1.4740381582343387e-07
sg113
F9.7974454194328492e-07
sg114
F-2.128194725110309e-08
sg115
F-2.5582116764179112e-07
sg116
F-2.1483193642227266e-08
sg117
F-3.4175401278938939e-07
sg118
F8.0810988275256452e-07
sg119
F-2.0005358712612195e-07
sg120
F-7.0136046077136361e-08
sg121
F-7.0687924284077956e-08
sg122
F-1.0075945134082606e-07
sg123
F3.090239377103575e-07
sg124
F7.9422866363314501e-07
sg125
F-3.4765491976183638e-07
sg126
F1.9180905978938703e-07
sg127
F-6.5476494015380874e-07
sg128
F1.027506091211896e-07
sg129
F7.0981394527855016e-08
sg130
F-3.3316712664496148e-06
sg131
F-3.0099746089042492e-07
sg132
F0.0017369172389055598
sg133
F9.5413480241059216e-07
sg134
F-4.8144057490112624e-07
sg135
F5.6335449565920222e-09
sg136
F-1.3093385608706994e-07
sg137
F-9.0802015716370237e-08
sg138
F-5.011579917459312e-08
sg139
F1.3766150794314479e-07
sg140
F-2.0925918185397994e-07
sg141
F3.1986848780217486e-07
sg142
F-5.6606209713392852e-07
sg143
F-1.6651615456166641e-08
sg144
F-2.5469748478328912e-07
sg145
F-1.8375359941537097e-07
sg146
F-6.9478814998470775e-08
sg147
F1.3865667444519428e-08
sg148
F-2.6307231434412285e-08
sg149
F8.5905006409561933e-08
sg150
F-9.1065261022417566e-09
sg151
F-5.2305187412288154e-07
sg152
F-1.1293434051514417e-07
sg153
F-3.3634594469656551e-09
sg154
F0.00082187595361216136
sg155
F-5.5056064432065128e-08
sg156
F-1.4885705161278406e-06
sg157
F-2.7844561532253621e-08
sg158
F-7.7775464681174707e-08
sg159
F1.6588049247982936e-06
sg160
F-0.00013340458880378738
sg161
F-2.0485167563683087e-07
sg162
F3.2866979689874143e-06
sg163
F-1.5590463949759727e-07
sg164
F-6.482090856123644e-07
sg165
F-2.1237324003457058e-07
sg166
F-1.845229880792141e-08
sg167
F-3.0264782936566193e-08
sg168
F1.2301184034250819e-07
sg169
F1.0709378064576844e-06
sg170
F-1.6597987762308368e-06
sg171
F0.0020937057890032425
sg172
F5.9756715671783467e-07
sg173
F-1.1611138711299702e-07
sg174
F3.1650277089798023e-07
sg175
F-2.8158684686180933e-08
sg176
F-3.1288822952949906e-07
sg177
F-3.275476907723991e-07
sg178
F-6.5544703369180523e-09
sg179
F1.4270692505759517e-05
sg180
F-2.1545324921882519e-07
sg181
F-4.9144142785445444e-07
sg182
F-2.1697784034904425e-07
sg183
F4.3648983382055671e-09
sg184
F-1.353078432925058e-07
sg185
F-2.3550455055590198e-06
sg186
F-1.6698593603672796e-05
sg187
F1.1871006320158939e-08
sg188
F-1.3740864341186061e-08
sg189
F-7.7203085390830846e-08
sg190
F1.2557081673345409e-08
sg191
F-4.4119409187896571e-06
sg192
F-0.00011195737826363088
sg193
F1.0667624100843806e-07
sg194
F4.8411007841495471e-08
sg195
F4.8096094462325822e-08
sg196
F-0.00029524250659371032
sg197
F6.8420811770575034e-09
sg198
F-2.0423589193139158e-08
sg199
F-1.1922379200105429e-07
sg200
F-1.3762602512551308e-07
sg201
F2.0761464486765346e-08
sg202
F-5.2601424348232462e-07
sg203
F4.687891127390911e-07
sg204
F4.2511650956355478e-08
sg205
F-8.8873320186069716e-05
sg206
F1.0018054803695608e-06
sg207
F-3.3228211650437999e-08
sg208
F2.0821601337641273e-06
sg209
F1.4644537231899786e-07
sg210
F-7.0298398843688755e-08
sg211
F-0.0014299976272217731
sg212
F-2.7686467117977363e-08
sg213
F-2.695184389396951e-06
sg214
F0.0011814779285089926
sg215
F2.0653249844210668e-06
sg216
F-2.9259295978701452e-08
sg217
F-1.1745329397096185e-06
sg218
F1.1870763228553369e-07
sg219
F-1.2288629251657464e-07
sg220
F-1.5235364730717272e-08
sg221
F-2.6176947080990969e-07
sg222
F1.6788004805756652e-06
sg223
F-3.2450782139058125e-06
sg224
F-1.0329363542623285e-08
sg225
F-3.3586059358221625e-08
sg226
F-1.9185532237647335e-07
sg227
F1.2149047484817554e-09
sg228
F-1.2082370112957015e-07
sg229
F-9.8307505287980244e-08
sg230
F-3.0762045891913553e-07
sg231
F1.2832280918891398e-06
sg232
F-3.3346275267372612e-08
sg233
F-0.00020179881216125456
sg234
F-1.2550779093470168e-06
sg235
F-7.8456030325289002e-07
sg236
F1.1828428050058318e-08
sg237
F-8.4280719183413797e-07
sg238
F-2.5779533830614992e-07
sg239
F3.7497459095752461e-08
sg240
F0.00092892645409805913
sg241
F-1.4993219712568923e-07
sg242
F6.2712248096935323e-08
sg243
F-1.1562341701997838e-06
sg244
F9.5305208270027177e-09
sg245
F-6.4927171920075166e-07
sg246
F2.57024803975655e-08
sg247
F2.1759641524909026e-06
sg248
F2.112430163266053e-08
sg249
F0.0008910261105738842
sg250
F1.3089317249089341e-06
sg251
F-2.8365356896075946e-07
sg252
F1.879447030643155e-06
sg253
F-6.0411531684077627e-07
sg254
F-4.5636692535545814e-07
sg255
F1.8108944807083855e-09
sg256
F-3.1350532175771854e-07
sg257
F-5.1364323299537554e-08
sg258
F-6.1416533875626728e-09
sg259
F-1.4353314051962773e-08
sg260
F-8.1928383167327875e-09
sg261
F3.4315055783210048e-08
sg262
F-2.5469748478328912e-07
sg263
F4.2920874623008584e-09
sg264
F-2.5469748478328912e-07
sg265
F5.0883051959322781e-08
sg266
F3.065710426768943e-09
sg267
F-7.0892632723395942e-08
sg268
F-3.4521081563623391e-08
sg269
F0.00027504763188183461
sg270
F-7.3910990454056057e-08
sg271
F-1.063750351939472e-08
sg272
F1.4206031406782965e-08
sg273
F-3.329737523400039e-08
sg274
F2.0592160355058988e-06
sg275
F1.7867484267764056e-07
sg276
F3.9652679113994797e-07
sg277
F-6.2053077541122956e-08
sg278
F1.1899716018606543e-06
sg279
F1.4434240434640973e-06
sg280
F-5.7204492959339225e-08
sg281
F-1.4529406184932517e-08
sg282
F2.7891891634720232e-08
sg283
F1.8192949024310689e-07
sg284
F-1.4815925646553487e-07
sg285
F7.5088959536579577e-07
sg286
F-2.8005447660829571e-08
sg287
F-1.0302435249579929e-08
sg288
F-2.3717604215203868e-06
sg289
F-1.5264152879608146e-08
sg290
F-7.7789931156498692e-08
sg291
F-2.7130392214819146e-09
sg292
F3.8992318530504308e-06
sg293
F9.0435334362234615e-07
sg294
F-1.8449460057891268e-06
sg295
F-6.2684144755134325e-07
sg296
F-8.3730227487088085e-07
sg297
F-5.0373078045974894e-07
sg298
F-5.0166425317691408e-07
sg299
F-8.182166513551588e-07
sg300
F-5.6606209713392852e-07
sg301
F-7.6532339912520838e-07
sg302
F5.624183379429025e-07
sg303
F-4.0111314026775554e-08
sg304
F-3.6747071857210543e-07
sg305
F-9.2272696430594828e-08
sg306
F-0.00059611705679438794
sag2
(g3
tRp308
g5
F-5.6694831015181803e-08
sg6
F-5.6036264524699468e-07
sg7
F-8.7117894523112277e-07
sg8
F-2.4552492055949162e-07
sg9
F-5.6036264524699468e-07
sg10
F0.00028916666119420045
sg11
F1.0104649811325359e-06
sg12
F-2.478123400502405e-07
sg13
F-5.9817239434179344e-09
sg14
F-4.9461462686638988e-07
sg15
F-6.5421294160438756e-08
sg16
F-7.4103665500856108e-09
sg17
F-2.7693504495545391e-09
sg18
F7.6948523585790633e-07
sg19
F-1.0960385647077857e-08
sg20
F-1.2993357453673746e-07
sg21
F0.00014817918494364635
sg22
F-6.9006464588553815e-07
sg23
F-5.9637109212220449e-07
sg24
F-1.9467224274138069e-07
sg25
F2.4757015270650416e-09
sg26
F-1.7704069758676356e-08
sg27
F-1.0630664728486152e-07
sg28
F-1.7205671341553823e-08
sg29
F-2.9753136243751732e-08
sg30
F-3.9635253777508704e-07
sg31
F-2.3670946986801677e-06
sg32
F-4.4116681372884465e-07
sg33
F-4.6007850584804177e-07
sg34
F8.1986713670226952e-09
sg35
F-5.4116880771624333e-08
sg36
F5.1325870260500687e-07
sg37
F-1.0069462904304384e-07
sg38
F-2.0634060132610794e-08
sg39
F4.8946873205355398e-07
sg40
F-2.3566773079897171e-07
sg41
F1.106825279772756e-09
sg42
F-1.4741885106291983e-08
sg43
F-1.6968380530982735e-07
sg44
F-5.1589063445503189e-08
sg45
F-9.7127367405063889e-08
sg46
F-1.0777949837433221e-08
sg47
F-1.9945161643329153e-08
sg48
F-5.2342644096515087e-07
sg49
F-8.8559073576140448e-07
sg50
F-1.9574572474831739e-08
sg51
F-2.3780856929925332e-06
sg52
F-1.6461796927741196e-07
sg53
F-1.0785034478366613e-07
sg54
F3.1123858098431439e-07
sg55
F-5.8657775512572109e-07
sg56
F0.0013932485341033851
sg57
F-2.4339150221302624e-06
sg58
F3.5870710548265591e-05
sg59
F-7.9904766331628231e-07
sg60
F-0.00013625354987523448
sg61
F-4.0534907854269592e-07
sg62
F-2.1086372399394806e-07
sg63
F-6.4677565895872393e-08
sg64
F-6.0449599078340262e-07
sg65
F-4.5638312728300059e-08
sg66
F7.7110884975638627e-07
sg67
F-0.0001766511880436997
sg68
F-3.4500555088600292e-07
sg69
F1.59021248678372e-08
sg70
F-6.7300752144076272e-07
sg71
F-5.4666551845399409e-05
sg72
F3.023670132747356e-05
sg73
F6.0164465187317341e-09
sg74
F-1.6537235856709103e-06
sg75
F-7.4687157698415206e-08
sg76
F1.3227047257903329e-06
sg77
F-4.2493594702244086e-08
sg78
F-6.5900733295343752e-07
sg79
F-2.8114173121760887e-07
sg80
F-3.0789447383929574e-07
sg81
F-8.0549732581723415e-09
sg82
F-1.4966294927301562e-08
sg83
F-1.7972940843851854e-07
sg84
F3.3290342169095791e-07
sg85
F7.4614305890681528e-09
sg86
F-9.2544928696742007e-07
sg87
F-5.3293871779441812e-08
sg88
F-1.6572484831609011e-07
sg89
F5.9872507847943149e-06
sg90
F-1.4820015911190258e-06
sg91
F3.8341628874282373e-09
sg92
F1.0391718663022838e-06
sg93
F-3.6245820396390022e-06
sg94
F8.49049983169461e-07
sg95
F-8.2801805854550133e-09
sg96
F2.4036527704738988e-06
sg97
F-5.1900028179239921e-07
sg98
F-5.3467381528011097e-07
sg99
F4.581967038584539e-09
sg100
F-7.0586132732290303e-07
sg101
F3.1041303196221881e-07
sg102
F1.1733726842589801e-07
sg103
F-5.1637788309620011e-08
sg104
F2.099921941634942e-07
sg105
F-3.5409966383811906e-07
sg106
F3.8180898714467331e-07
sg107
F-3.7796227161760192e-09
sg108
F-2.5060263124924458e-07
sg109
F5.5929524482069443e-09
sg110
F-2.580740707214545e-09
sg111
F-1.0756751797376028e-07
sg112
F-3.1644930913049028e-08
sg113
F8.6858729810988507e-07
sg114
F-2.2955412904592891e-08
sg115
F-2.5723638919469108e-07
sg116
F-2.387767589291291e-08
sg117
F-3.5815845265723771e-07
sg118
F7.0289272591523504e-07
sg119
F-1.9916006308937863e-07
sg120
F-7.1952586535777962e-08
sg121
F-7.2547377210701337e-08
sg122
F-9.8343868712909404e-08
sg123
F2.8878305136929871e-07
sg124
F7.2569409996170911e-07
sg125
F-3.4812610629961704e-07
sg126
F1.8139985684977578e-07
sg127
F-6.6733884229306242e-07
sg128
F1.0016752022732049e-07
sg129
F-1.0520330005084313e-07
sg130
F-4.4502992414989461e-06
sg131
F-3.0618277385355463e-07
sg132
F0.0014415648810184398
sg133
F9.2101670220993995e-07
sg134
F-4.9932660994868102e-07
sg135
F5.5281702277762655e-09
sg136
F-1.3350038322839458e-07
sg137
F-9.3149439871933056e-08
sg138
F-5.0039022825892913e-08
sg139
F-4.4332121159409647e-08
sg140
F-2.1761911902968101e-07
sg141
F2.9308084596987514e-07
sg142
F-5.6036264524699468e-07
sg143
F-1.7269554652385049e-08
sg144
F-2.4552492055949162e-07
sg145
F-1.822512816485795e-07
sg146
F-6.8437870228583645e-08
sg147
F1.317818054744216e-08
sg148
F-2.7366243567185457e-08
sg149
F8.0227017473288609e-08
sg150
F-8.7638424501835598e-09
sg151
F-5.3895232522177452e-07
sg152
F-1.1425538816493967e-07
sg153
F-1.5732225629109104e-07
sg154
F0.00077096500677338771
sg155
F-5.5399209087916742e-08
sg156
F-1.4959945552475185e-06
sg157
F-2.7465559957969929e-08
sg158
F-8.2359573454053418e-08
sg159
F1.5734823958978787e-06
sg160
F-0.0001344567689012669
sg161
F-2.0163511559483226e-07
sg162
F2.8410679639450441e-06
sg163
F-1.5374239984673526e-07
sg164
F-8.3394112168772495e-07
sg165
F-2.2527800167636297e-07
sg166
F-1.7917899655617331e-08
sg167
F-1.5632412468020299e-08
sg168
F1.2180024864451041e-07
sg169
F1.0273805406195352e-06
sg170
F-1.7643555408447094e-06
sg171
F0.001686275308509022
sg172
F4.929337179835972e-07
sg173
F-1.153457412133053e-07
sg174
F2.9673172229572867e-07
sg175
F-2.6982055100724159e-08
sg176
F-4.8381806196865651e-07
sg177
F-3.5605514266197878e-07
sg178
F-6.6023353754201564e-09
sg179
F1.1312803752417611e-06
sg180
F-2.2028811920766561e-07
sg181
F-6.7536408365555159e-07
sg182
F-2.1855027992367491e-07
sg183
F2.7165522413955626e-09
sg184
F-1.364945699017539e-07
sg185
F-2.3741825273026693e-06
sg186
F-1.8460326090812636e-05
sg187
F1.0757768255293512e-08
sg188
F-1.5978450509026554e-08
sg189
F-8.0998082590261727e-08
sg190
F1.1848345325169475e-08
sg191
F-5.3113967799902628e-06
sg192
F-0.00011370190198495699
sg193
F1.0253683251054445e-07
sg194
F4.5455972932630813e-08
sg195
F4.5791089130103395e-08
sg196
F-0.00027812652744641273
sg197
F6.427890948682861e-09
sg198
F-2.0382450332395122e-08
sg199
F-1.1939659454643755e-07
sg200
F-1.3682847512035014e-07
sg201
F2.0118653406063864e-08
sg202
F-5.9733426573428183e-07
sg203
F4.4727007567656202e-07
sg204
F4.1268740674996824e-08
sg205
F-9.2917368691333545e-05
sg206
F9.6561754651588608e-07
sg207
F-3.3756962797288062e-08
sg208
F1.9333291423122407e-06
sg209
F1.4411013494907961e-07
sg210
F-7.3522940787496163e-08
sg211
F-0.0017784165072194974
sg212
F-2.7325389911774885e-08
sg213
F-2.7111243579014115e-06
sg214
F0.00088849467225278239
sg215
F1.8884361991239733e-06
sg216
F-1.8268237878425809e-08
sg217
F-1.3590020277463752e-06
sg218
F-5.8997311357360519e-08
sg219
F-1.2117191321849469e-07
sg220
F-1.5366906347662805e-08
sg221
F-2.5258425627593076e-07
sg222
F1.6159781568345284e-06
sg223
F-3.2582762223308228e-06
sg224
F-1.0603121896780747e-08
sg225
F-3.6017201605666712e-08
sg226
F-1.823601467306813e-07
sg227
F8.2934411788407592e-10
sg228
F-1.2590722946959221e-07
sg229
F-9.9044806227491883e-08
sg230
F-3.0460625801176084e-07
sg231
F1.1838719501011814e-06
sg232
F-3.466455883432618e-08
sg233
F-0.0002033552172445369
sg234
F-1.3717293358840626e-06
sg235
F-7.8892110574906372e-07
sg236
F-1.3215737674012293e-07
sg237
F-8.5589087834947656e-07
sg238
F-2.576825805397988e-07
sg239
F-1.1752798019628736e-07
sg240
F0.00081624096234688001
sg241
F-1.4441734787931565e-07
sg242
F6.0611818237221981e-08
sg243
F-1.2617032478399432e-06
sg244
F8.9623958950583386e-09
sg245
F-8.1984331584316568e-07
sg246
F2.5354184226160982e-08
sg247
F2.0532135020624015e-06
sg248
F1.9738093211660376e-08
sg249
F0.00076747895892498167
sg250
F1.2080846304923511e-06
sg251
F-2.8071740065676085e-07
sg252
F1.5016271838165829e-06
sg253
F-6.0283276426645298e-07
sg254
F-5.9227313647699526e-07
sg255
F2.0380321334689354e-09
sg256
F-3.2000104427816825e-07
sg257
F-5.13546519464628e-08
sg258
F-5.6711461363355009e-09
sg259
F-1.4488901929695526e-08
sg260
F-1.0095844223456428e-08
sg261
F2.3297619087501034e-08
sg262
F-2.4552492055949162e-07
sg263
F3.8239013384815886e-09
sg264
F-2.4552492055949162e-07
sg265
F4.8255551224469102e-08
sg266
F-5.3080456479282872e-09
sg267
F-7.0512912284635538e-08
sg268
F-3.7327527111922189e-08
sg269
F0.00014123371560637003
sg270
F-7.3873899297890021e-08
sg271
F-1.6776776537124831e-08
sg272
F6.9948438877240497e-09
sg273
F-3.3152367082572887e-08
sg274
F1.939146514886111e-06
sg275
F1.7607797813812002e-07
sg276
F3.8547733620818662e-07
sg277
F-6.0550457190395232e-08
sg278
F1.1068403922499426e-06
sg279
F1.3306981614358806e-06
sg280
F-6.4762285381273666e-08
sg281
F-1.4695366298323826e-08
sg282
F2.7094015843694624e-08
sg283
F1.584263668124295e-07
sg284
F-3.246458335994213e-07
sg285
F6.5456199999032991e-07
sg286
F-2.876198361250538e-08
sg287
F-1.0213620644819234e-08
sg288
F-2.3881792184658741e-06
sg289
F-1.716280280118706e-08
sg290
F-7.5923846257549072e-08
sg291
F-2.7693504495545391e-09
sg292
F3.1560247356762897e-06
sg293
F7.8311424789472151e-07
sg294
F-1.8602256839181942e-06
sg295
F-6.2763825321115101e-07
sg296
F-8.4834975729822332e-07
sg297
F-6.7788252445144689e-07
sg298
F-5.0518556993982308e-07
sg299
F-8.4665572035139307e-07
sg300
F-5.6036264524699468e-07
sg301
F-9.3404800482807936e-07
sg302
F5.3772812003310935e-07
sg303
F-4.2440395653609591e-08
sg304
F-5.3215658381386506e-07
sg305
F-9.460859990545437e-08
sg306
F-0.00070813398331577842
sag2
(g3
tRp309
g5
F-5.414406760037552e-08
sg6
F-5.484722017297231e-07
sg7
F-9.3539661754123625e-07
sg8
F-2.3500340898056227e-07
sg9
F-5.484722017297231e-07
sg10
F0.00027413705897585971
sg11
F9.7917366962900198e-07
sg12
F-2.4388215139208944e-07
sg13
F-6.2314450129158935e-09
sg14
F-4.9225171686201125e-07
sg15
F-5.8970714614136461e-08
sg16
F-7.1500708553758739e-09
sg17
F-2.701303102907876e-09
sg18
F7.4807262717102093e-07
sg19
F-1.1042058287198107e-08
sg20
F-1.2779085285958412e-07
sg21
F0.00013823938471123454
sg22
F-7.5801487750657309e-07
sg23
F-5.8823656298006868e-07
sg24
F-1.9076827523531088e-07
sg25
F1.8980359146133955e-09
sg26
F-1.720049390913559e-08
sg27
F-1.0756116808589819e-07
sg28
F-1.7054128190393051e-08
sg29
F-2.9359895180807229e-08
sg30
F-3.9786061088797061e-07
sg31
F-2.6195579206091422e-06
sg32
F-4.3870975317376526e-07
sg33
F-5.2472099648751359e-07
sg34
F4.3485830657365173e-09
sg35
F-5.4507189050312285e-08
sg36
F4.946869869279173e-07
sg37
F-9.941354265835191e-08
sg38
F-2.0596844394752064e-08
sg39
F4.4804129003859797e-07
sg40
F-2.3240015854913306e-07
sg41
F1.1212668240868662e-09
sg42
F-1.4356742112191092e-08
sg43
F-1.6980597228003156e-07
sg44
F-5.0066595070837082e-08
sg45
F-9.8814605681221508e-08
sg46
F-1.0050437689332923e-08
sg47
F-2.7437651774423336e-08
sg48
F-5.2224934411890163e-07
sg49
F-9.496434660108039e-07
sg50
F-1.9648413237761097e-08
sg51
F-2.3477519640993328e-06
sg52
F-1.6352076522296485e-07
sg53
F-1.0609999045716273e-07
sg54
F3.0379544643085994e-07
sg55
F-5.8184447656576196e-07
sg56
F0.0012818223438573809
sg57
F-2.4168253025525865e-06
sg58
F3.3102998302222276e-05
sg59
F-7.8928372359698135e-07
sg60
F-0.00013537252372961328
sg61
F-4.0119713060469861e-07
sg62
F-2.083022991913951e-07
sg63
F-6.8034754426010623e-08
sg64
F-6.5389207088473812e-07
sg65
F-4.4793623305698968e-08
sg66
F3.423192932425065e-08
sg67
F-0.00010574391220533943
sg68
F-3.4636307463813918e-07
sg69
F1.3260318597049864e-08
sg70
F-6.6371993746662187e-07
sg71
F-5.8693353047594972e-05
sg72
F2.8015259287148259e-05
sg73
F3.8546530446550846e-09
sg74
F-1.6848194001187297e-06
sg75
F-7.4607730481299356e-08
sg76
F1.283281823701042e-06
sg77
F-4.1992202981435312e-08
sg78
F-6.4682592443927553e-07
sg79
F-2.7511614531058632e-07
sg80
F-3.0612406779981433e-07
sg81
F-7.5206326520399593e-09
sg82
F-1.2994410955822633e-08
sg83
F-2.5547683922425253e-07
sg84
F3.2231595359030523e-07
sg85
F7.1470627137236373e-09
sg86
F-9.8554984758965776e-07
sg87
F-5.5050369361916878e-08
sg88
F-1.73814483993187e-07
sg89
F5.2813166678344691e-06
sg90
F-1.5033108729450966e-06
sg91
F2.8583060789114003e-09
sg92
F1.0088802049643194e-06
sg93
F-3.5894483708789367e-06
sg94
F7.6729203822266132e-07
sg95
F-1.0223729534436003e-08
sg96
F2.3070269884942511e-06
sg97
F-5.2020120429693284e-07
sg98
F-5.3140595567549883e-07
sg99
F5.1024128001473515e-09
sg100
F-6.9416662678653533e-07
sg101
F2.7039721108828421e-07
sg102
F1.2006721006518578e-07
sg103
F-5.3736982348287369e-08
sg104
F1.7600629941590106e-07
sg105
F-4.175471539588931e-07
sg106
F3.6214888045857931e-07
sg107
F-3.6046106651949429e-09
sg108
F-2.5533153996902445e-07
sg109
F6.0269550587836147e-09
sg110
F-2.6337519988776364e-09
sg111
F-1.065101133276398e-07
sg112
F-1.1104047999313741e-07
sg113
F7.9895445595584127e-07
sg114
F-2.374198480980892e-08
sg115
F-2.5565105620612145e-07
sg116
F-2.6317653807402244e-08
sg117
F-3.6198293825232098e-07
sg118
F6.4760058933782657e-07
sg119
F-1.9620196518394009e-07
sg120
F-7.2050495622898496e-08
sg121
F-7.2306716688913934e-08
sg122
F-9.569630023037057e-08
sg123
F2.7618797810278132e-07
sg124
F6.8102690379327928e-07
sg125
F-3.4478178862479026e-07
sg126
F1.7589105078362022e-07
sg127
F-6.6463179826938199e-07
sg128
F9.7632523930333014e-08
sg129
F-1.8292421679080703e-07
sg130
F-4.8718911375659275e-06
sg131
F-3.074022400368582e-07
sg132
F0.0012668450882856929
sg133
F8.940733114019741e-07
sg134
F-5.0244106203451451e-07
sg135
F5.6400854768064143e-09
sg136
F-1.3205570171896302e-07
sg137
F-9.418335223265758e-08
sg138
F-4.9321876552647338e-08
sg139
F-1.235087678659968e-07
sg140
F-2.1992827041042064e-07
sg141
F2.8229073312211879e-07
sg142
F-5.484722017297231e-07
sg143
F-1.767581194377466e-08
sg144
F-2.3500340898056227e-07
sg145
F-1.7930877370550312e-07
sg146
F-6.6209541752412575e-08
sg147
F1.2647766700467137e-08
sg148
F-2.7468048606585983e-08
sg149
F7.7593414520470887e-08
sg150
F-8.5431641371220099e-09
sg151
F-5.3608772491298175e-07
sg152
F-1.1319062544548977e-07
sg153
F-2.1465985141711241e-07
sg154
F0.00073320270691443732
sg155
F-5.5150488570160691e-08
sg156
F-1.4737332251516412e-06
sg157
F-2.6989448156938776e-08
sg158
F-8.4966762876457978e-08
sg159
F1.5147071156966894e-06
sg160
F-0.00013334530730741011
sg161
F-1.9871226483348277e-07
sg162
F2.5954417223572591e-06
sg163
F-1.4692644279904145e-07
sg164
F-9.0525351001035642e-07
sg165
F-2.2783107224883715e-07
sg166
F-1.7285795111349433e-08
sg167
F-7.3307024880968411e-09
sg168
F1.2005764861392267e-07
sg169
F9.9718847742308701e-07
sg170
F-1.7904111842862446e-06
sg171
F0.0014508331940470615
sg172
F4.2884824918675857e-07
sg173
F-1.1322903751032245e-07
sg174
F2.8411955991357683e-07
sg175
F-2.5635714933084841e-08
sg176
F-5.5504714483321678e-07
sg177
F-3.6759748232235682e-07
sg178
F-6.5295175672823553e-09
sg179
F-5.4426282326431878e-06
sg180
F-2.214777429429057e-07
sg181
F-7.4871411431183791e-07
sg182
F-2.1822824974512961e-07
sg183
F1.4428197021764633e-09
sg184
F-1.3617468424848374e-07
sg185
F-2.3406171940455361e-06
sg186
F-1.950562859212494e-05
sg187
F1.0133112666837163e-08
sg188
F-1.8208842212416508e-08
sg189
F-8.1495344658569354e-08
sg190
F1.1480215239913415e-08
sg191
F-5.6098581176147416e-06
sg192
F-0.00011320794442034883
sg193
F9.9476842945633029e-08
sg194
F4.3701683316132308e-08
sg195
F4.4230646873092783e-08
sg196
F-0.00026124628603284403
sg197
F6.1242383231770976e-09
sg198
F-2.0077924943946167e-08
sg199
F-1.1660526910634106e-07
sg200
F-1.354340655923494e-07
sg201
F1.9687812542156104e-08
sg202
F-6.1546912639778488e-07
sg203
F4.3599465044944977e-07
sg204
F4.0305863187435146e-08
sg205
F-9.3246629860165267e-05
sg206
F9.3861208180419965e-07
sg207
F-3.4209786983970538e-08
sg208
F1.8474834768983931e-06
sg209
F1.4186121661496314e-07
sg210
F-7.4483165823973768e-08
sg211
F-0.0019070186225873329
sg212
F-2.6693373783714378e-08
sg213
F-2.6854338900680575e-06
sg214
F0.00072496134522485563
sg215
F1.769407115321737e-06
sg216
F-1.2638212091862042e-08
sg217
F-1.4274053990827175e-06
sg218
F-1.3581359232370458e-07
sg219
F-1.1858263326439179e-07
sg220
F-1.5078517358007221e-08
sg221
F-2.4201613757965626e-07
sg222
F1.5670753950919691e-06
sg223
F-3.2245901069276039e-06
sg224
F-1.07420959283719e-08
sg225
F-3.7059253512353235e-08
sg226
F-1.7410543278835039e-07
sg227
F5.123138900723653e-10
sg228
F-1.2894356400103531e-07
sg229
F-9.9203588656448093e-08
sg230
F-2.9897124289332948e-07
sg231
F1.1297595703731623e-06
sg232
F-3.4685841401656885e-08
sg233
F-0.00020149601422020605
sg234
F-1.4029413842849367e-06
sg235
F-7.8158677519761284e-07
sg236
F-1.9857239288513339e-07
sg237
F-8.47381958341277e-07
sg238
F-2.5422537495093088e-07
sg239
F-1.8391473124147135e-07
sg240
F0.00074537747741439076
sg241
F-1.3785255814738177e-07
sg242
F5.8744978443124506e-08
sg243
F-1.2863709048158983e-06
sg244
F8.5336866026624312e-09
sg245
F-8.8212846085851035e-07
sg246
F2.5091992152224064e-08
sg247
F1.9700727672543873e-06
sg248
F1.9143701714010377e-08
sg249
F0.00069701498964556312
sg250
F1.1535025608217317e-06
sg251
F-2.7494678935883101e-07
sg252
F1.3036697412366457e-06
sg253
F-5.940487137708518e-07
sg254
F-6.4511994555577326e-07
sg255
F2.3070176626391136e-09
sg256
F-3.2182010233497798e-07
sg257
F-5.0681927978144552e-08
sg258
F-5.1637672141961053e-09
sg259
F-1.4613277751690267e-08
sg260
F-1.1597156923530529e-08
sg261
F1.747417957902391e-08
sg262
F-2.3500340898056227e-07
sg263
F3.4936941843568692e-09
sg264
F-2.3500340898056227e-07
sg265
F4.6933819739565656e-08
sg266
F-8.336040699413437e-09
sg267
F-6.9766344867170594e-08
sg268
F-3.8806566389087826e-08
sg269
F7.8269374288519197e-05
sg270
F-7.32697167875905e-08
sg271
F-2.1355358349628029e-08
sg272
F3.6641691332988292e-09
sg273
F-3.2815348007671668e-08
sg274
F1.8643142267304651e-06
sg275
F1.7474436614676368e-07
sg276
F3.7727779953246229e-07
sg277
F-5.8097072919648847e-08
sg278
F1.0538018348475626e-06
sg279
F1.2666116065746067e-06
sg280
F-6.628188640867387e-08
sg281
F-1.4676753273186153e-08
sg282
F2.6725398868123003e-08
sg283
F1.476115713489602e-07
sg284
F-4.0082259828932995e-07
sg285
F5.9691955616380363e-07
sg286
F-2.9092292059530618e-08
sg287
F-1.0031288913798008e-08
sg288
F-2.363919670016379e-06
sg289
F-1.7658388352166471e-08
sg290
F-7.3697305903310434e-08
sg291
F-2.701303102907876e-09
sg292
F2.7194206631551293e-06
sg293
F7.0998577140886824e-07
sg294
F-1.8473477104153705e-06
sg295
F-6.2207744113130255e-07
sg296
F-8.4465804792006551e-07
sg297
F-7.4473188071464103e-07
sg298
F-5.0477686408844353e-07
sg299
F-8.404895288925604e-07
sg300
F-5.484722017297231e-07
sg301
F-9.9367329642590576e-07
sg302
F5.2059755344081411e-07
sg303
F-4.3547456858039663e-08
sg304
F-5.9652563668658676e-07
sg305
F-9.5594589667394168e-08
sg306
F-0.00073572865822783752
sag2
(g3
tRp310
g5
F-5.2347136214086567e-08
sg6
F-5.3387263379788664e-07
sg7
F-9.457972425001313e-07
sg8
F-2.2407338916622689e-07
sg9
F-5.3387263379788664e-07
sg10
F0.0002633559030566349
sg11
F9.5419756076386379e-07
sg12
F-2.3877724727846377e-07
sg13
F-6.3350553883643725e-09
sg14
F-4.8124404738855313e-07
sg15
F-5.5219117005571922e-08
sg16
F-6.8683101773893061e-09
sg17
F-2.5760587674674128e-09
sg18
F7.2818914682391571e-07
sg19
F-1.1080354047151182e-08
sg20
F-1.2496265500977537e-07
sg21
F0.00013114017168805797
sg22
F-7.7200885440257243e-07
sg23
F-5.7724900301272555e-07
sg24
F-1.8605739932288218e-07
sg25
F1.4364756870559629e-09
sg26
F-1.6678571340663902e-08
sg27
F-1.0739501529157147e-07
sg28
F-1.6874785645208254e-08
sg29
F-2.8927418964321304e-08
sg30
F-3.9542148011854909e-07
sg31
F-2.7163987705219412e-06
sg32
F-4.3050531818080698e-07
sg33
F-5.4164859701494465e-07
sg34
F2.2946025158787612e-09
sg35
F-5.4669220637009469e-08
sg36
F4.7864380728177572e-07
sg37
F-9.626792641058749e-08
sg38
F-2.0302790844363654e-08
sg39
F4.2477318427174778e-07
sg40
F-2.28154022404402e-07
sg41
F1.1117087974104721e-09
sg42
F-1.3909295682301472e-08
sg43
F-1.6850489652592732e-07
sg44
F-4.9003886301516436e-08
sg45
F-9.8666819029710446e-08
sg46
F-9.3534614762174648e-09
sg47
F-3.0580653601916997e-08
sg48
F-5.17816609164176e-07
sg49
F-9.5987960542268017e-07
sg50
F-1.9634925898496415e-08
sg51
F-2.2904033506178015e-06
sg52
F-1.6125146449623365e-07
sg53
F-1.0381956023455649e-07
sg54
F3.0033034256879291e-07
sg55
F-5.7340049285256574e-07
sg56
F0.0011952149914881028
sg57
F-2.383257405054366e-06
sg58
F3.1206429669202533e-05
sg59
F-7.7527143055918704e-07
sg60
F-0.00013333345086542292
sg61
F-3.9514926095535851e-07
sg62
F-2.0409932088130189e-07
sg63
F-6.914785363827833e-08
sg64
F-6.5970602405479334e-07
sg65
F-4.4195893262758762e-08
sg66
F-3.3598312094608806e-07
sg67
F-6.9332697553559761e-05
sg68
F-3.4511192210248446e-07
sg69
F1.1138484586273299e-08
sg70
F-6.4967143567590544e-07
sg71
F-5.928065271397462e-05
sg72
F2.5949495852695246e-05
sg73
F1.8441248553559427e-09
sg74
F-1.6720500657523265e-06
sg75
F-7.3935797937170262e-08
sg76
F1.250093774179845e-06
sg77
F-4.1290755761012364e-08
sg78
F-6.324268456877187e-07
sg79
F-2.6781912450154078e-07
sg80
F-3.0275552365223999e-07
sg81
F-6.9546787511712557e-09
sg82
F-1.0068160382528615e-08
sg83
F-2.8020932765386252e-07
sg84
F3.1326736929498863e-07
sg85
F6.93913942207762e-09
sg86
F-9.914302264606234e-07
sg87
F-5.5697774858906524e-08
sg88
F-1.7903253370615621e-07
sg89
F4.9274378366264868e-06
sg90
F-1.4832735132090515e-06
sg91
F2.1257808247432848e-09
sg92
F9.8560242664203895e-07
sg93
F-3.5277196549062275e-06
sg94
F7.1821622575343702e-07
sg95
F-1.1080015210804291e-08
sg96
F2.2422586668588422e-06
sg97
F-5.1507528016337313e-07
sg98
F-5.2354975387470933e-07
sg99
F5.4493152191595867e-09
sg100
F-6.7967027776882756e-07
sg101
F2.467030145466985e-07
sg102
F1.2102653069521389e-07
sg103
F-5.5765032694226609e-08
sg104
F1.5265243932846732e-07
sg105
F-4.2986510101632417e-07
sg106
F3.5190443692231752e-07
sg107
F-3.403459427343652e-09
sg108
F-2.5801071741980528e-07
sg109
F6.8843052455838551e-09
sg110
F-2.5284687023215027e-09
sg111
F-1.0530439663498468e-07
sg112
F-1.4098135970563299e-07
sg113
F7.5096428885898621e-07
sg114
F-2.408063010836255e-08
sg115
F-2.5266717617482641e-07
sg116
F-2.872032545036974e-08
sg117
F-3.5969248846824308e-07
sg118
F6.1741307857437263e-07
sg119
F-1.9231732923118564e-07
sg120
F-7.132598837233363e-08
sg121
F-7.1069355326691982e-08
sg122
F-9.2992616257760399e-08
sg123
F2.675421934668431e-07
sg124
F6.4881291449599876e-07
sg125
F-3.3969545581526591e-07
sg126
F1.7285005270820342e-07
sg127
F-6.5466229113471833e-07
sg128
F9.5174469091676622e-08
sg129
F-2.1179613628278332e-07
sg130
F-4.9506241255912957e-06
sg131
F-3.0668940106788096e-07
sg132
F0.0011538768314504654
sg133
F8.7070681550165519e-07
sg134
F-4.9840826585912761e-07
sg135
F5.8522054547446495e-09
sg136
F-1.287243235296584e-07
sg137
F-9.456543343609074e-08
sg138
F-4.8316225465397306e-08
sg139
F-1.5170373448858063e-07
sg140
F-2.1927373265464293e-07
sg141
F2.7939829578644578e-07
sg142
F-5.3387263379788664e-07
sg143
F-1.7970918519767573e-08
sg144
F-2.2407338916622689e-07
sg145
F-1.7574902524637923e-07
sg146
F-6.3460664118881419e-08
sg147
F1.2205530033092291e-08
sg148
F-2.7109579484324586e-08
sg149
F7.647124365800859e-08
sg150
F-8.3847331605112773e-09
sg151
F-5.2432320434231143e-07
sg152
F-1.1100617523724989e-07
sg153
F-2.2449153194363374e-07
sg154
F0.00070258575735472856
sg155
F-5.462482443551018e-08
sg156
F-1.4378142443143143e-06
sg157
F-2.647816279142524e-08
sg158
F-8.6563857068017173e-08
sg159
F1.4699758160649899e-06
sg160
F-0.00013122362667550896
sg161
F-1.9598927648736763e-07
sg162
F2.4509720888154711e-06
sg163
F-1.3804455153241503e-07
sg164
F-9.2022570028189886e-07
sg165
F-2.2536590937934222e-07
sg166
F-1.6622387726643393e-08
sg167
F-2.2456905027993881e-09
sg168
F1.181036930750494e-07
sg169
F9.7406160906940174e-07
sg170
F-1.7783672125813228e-06
sg171
F0.00130302362375513
sg172
F3.8561025461191078e-07
sg173
F-1.1051818843134493e-07
sg174
F2.7522612036014704e-07
sg175
F-2.423950160160352e-08
sg176
F-5.7697332634811631e-07
sg177
F-3.7075337884926994e-07
sg178
F-6.3999752519921766e-09
sg179
F-8.7258451016271656e-06
sg180
F-2.2089601235608432e-07
sg181
F-7.6750108613485059e-07
sg182
F-2.1700809856322886e-07
sg183
F3.7891866454096932e-10
sg184
F-1.3513219110943676e-07
sg185
F-2.2826299516278906e-06
sg186
F-2.0181930622180258e-05
sg187
F9.7577393017363498e-09
sg188
F-2.0383066726483383e-08
sg189
F-8.0408000177153064e-08
sg190
F1.1282425893102875e-08
sg191
F-5.6140842687596406e-06
sg192
F-0.00011165386814576363
sg193
F9.7005964424119168e-08
sg194
F4.2560521867562501e-08
sg195
F4.3063066033354709e-08
sg196
F-0.00024494332453993021
sg197
F5.8807752975162994e-09
sg198
F-1.9652682410428275e-08
sg199
F-1.1245029572547386e-07
sg200
F-1.3378624206209504e-07
sg201
F1.9369362657071316e-08
sg202
F-6.0768207666801996e-07
sg203
F4.2984462376998771e-07
sg204
F3.9505508916352071e-08
sg205
F-9.1774672073547455e-05
sg206
F9.1662069850523679e-07
sg207
F-3.4617741032061765e-08
sg208
F1.7936814426523156e-06
sg209
F1.3970537176542221e-07
sg210
F-7.4340359712767592e-08
sg211
F-0.0019275646287799319
sg212
F-2.5943554787888432e-08
sg213
F-2.6404106752241186e-06
sg214
F0.00062714953187050317
sg215
F1.6808270083836871e-06
sg216
F-9.6977917245694479e-09
sg217
F-1.4387372930467458e-06
sg218
F-1.6263440544244071e-07
sg219
F-1.1563570823717026e-07
sg220
F-1.4594471510994113e-08
sg221
F-2.3102532298565198e-07
sg222
F1.5259686276718181e-06
sg223
F-3.1692154769879291e-06
sg224
F-1.0814334667781182e-08
sg225
F-3.7408214637981578e-08
sg226
F-1.666370480163606e-07
sg227
F2.3437793138884489e-10
sg228
F-1.30925976758891e-07
sg229
F-9.907707181883665e-08
sg230
F-2.9221217768802597e-07
sg231
F1.0984527836913736e-06
sg232
F-3.4091463786180118e-08
sg233
F-0.00019804481117458755
sg234
F-1.3925840897752376e-06
sg235
F-7.6881499186855766e-07
sg236
F-2.2635160452733434e-07
sg237
F-8.2874611302970416e-07
sg238
F-2.4925486636280248e-07
sg239
F-2.0642221305257269e-07
sg240
F0.00069605602250676524
sg241
F-1.3093572218717586e-07
sg242
F5.7035211363619279e-08
sg243
F-1.2718441179703244e-06
sg244
F8.1809853575550211e-09
sg245
F-8.9121002055712244e-07
sg246
F2.4877413798731857e-08
sg247
F1.9078705087307583e-06
sg248
F1.8941353891630774e-08
sg249
F0.00065352207965227351
sg250
F1.1222218068392169e-06
sg251
F-2.6795240747156655e-07
sg252
F1.19619361923529e-06
sg253
F-5.8189072440895959e-07
sg254
F-6.5705219947986614e-07
sg255
F2.5886704110025755e-09
sg256
F-3.2135554723848213e-07
sg257
F-4.9704899669712282e-08
sg258
F-4.6511431346981537e-09
sg259
F-1.4729146233401857e-08
sg260
F-1.2869239132638235e-08
sg261
F1.4283838315245702e-08
sg262
F-2.2407338916622689e-07
sg263
F3.2365101155778665e-09
sg264
F-2.2407338916622689e-07
sg265
F4.6273771593995299e-08
sg266
F-8.7457852268548921e-09
sg267
F-6.8861399031889654e-08
sg268
F-3.9614448831410401e-08
sg269
F5.0436512035912296e-05
sg270
F-7.2409483979051915e-08
sg271
F-2.5080375571569234e-08
sg272
F2.2785425067989865e-09
sg273
F-3.2393904645504137e-08
sg274
F1.8127689422190804e-06
sg275
F1.7403776705335443e-07
sg276
F3.7063673223083193e-07
sg277
F-5.5242439269256862e-08
sg278
F1.016347872675216e-06
sg279
F1.2271945048569374e-06
sg280
F-6.4880878003423381e-08
sg281
F-1.4569540793287509e-08
sg282
F2.6570035685409036e-08
sg283
F1.4309051894007549e-07
sg284
F-4.2732519705048766e-07
sg285
F5.5901697985600603e-07
sg286
F-2.9210603740144641e-08
sg287
F-9.8080526675626378e-09
sg288
F-2.3207559719615386e-06
sg289
F-1.7471478862999599e-08
sg290
F-7.1351500697108171e-08
sg291
F-2.5760587674674128e-09
sg292
F2.4407159290982222e-06
sg293
F6.6148865183971401e-07
sg294
F-1.8212715797711587e-06
sg295
F-6.1359283102529185e-07
sg296
F-8.3397808736267781e-07
sg297
F-7.5873697116480942e-07
sg298
F-5.0246870325440055e-07
sg299
F-8.1811061015244603e-07
sg300
F-5.3387263379788664e-07
sg301
F-9.9976826017538008e-07
sg302
F5.0744898254030148e-07
sg303
F-4.4045210263608249e-08
sg304
F-6.1143836438056896e-07
sg305
F-9.5911459702000765e-08
sg306
F-0.00072262336301140071
saI5
=======
I0
>>>>>>> a588cd67c2be623a446dd3bd4e91d2b8b2125dc5
I500
t.