((lp1
(dp2
I1
F0
sS'Bus_Lines'
p3
F0.5
sS'Std_Price'
p4
F46.082167490000003
sS'Num_Schools'
p5
F3
sS'Unemployement.'
p6
F1.3200000000000001
sS'Longitude'
p7
F-93.647314999999992
sS'Median_Price'
p8
F203.25
sS'Median.Age'
p9
F38.149999999999999
sS'White.'
p10
F84
sS'Mean_Price'
p11
F209.11717175000001
sS'Latitude'
p12
F42.07976
sS'Num_Houses'
p13
F82.5
sS'Median_House_Income'
p14
F90.240499999999997
sa(dp15
I1
F0
sg3
F6
sg4
F42.239505945000005
sg5
F4.5
sg6
F9.6099999999999994
sg7
F-93.635719999999992
sg8
F168.59999999999999
sg9
F21.199999999999999
sg10
F69.650000000000006
sg11
F171.90642665000001
sg12
F42.031179999999999
sg13
F187.5
sg14
F14.98
sa(dp16
I1
F0
sg3
F1
sg4
F110.25829338333331
sg5
F2.3333333333333335
sg6
F1.6300000000000001
sg7
F-93.645653333333328
sg8
F298.16666666666669
sg9
F40.699999999999996
sg10
F92.433333333333337
sg11
F320.68831349999999
sg12
F42.054946666666673
sg13
F47.666666666666664
sg14
F95.082666666666682
sa(dp17
I1
F0
sg3
F2.3999999999999999
sg4
F35.153154067999999
sg5
F1.3999999999999999
sg6
F8.4199999999999999
sg7
F-93.643041999999994
sg8
F127.50999999999999
sg9
F27.02
sg10
F72.240000000000009
sg11
F129.24815859999998
sg12
F42.018106000000003
sg13
F63.600000000000001
sg14
F41.571199999999997
sa(dp18
I1
F0
sg3
F2
sg4
F52.650583179999998
sg5
F1
sg6
F5.5800000000000001
sg7
F-93.614339999999999
sg8
F119
sg9
F24.5
sg10
F45.200000000000003
sg11
F128.22530090000001
sg12
F42.029040000000002
sg13
F113
sg14
F17.891999999999999
sa(dp19
I1
F0
sg3
F1
sg4
F11.853745509499999
sg5
F5
sg6
F1.3100000000000001
sg7
F-93.628559999999993
sg8
F126
sg9
F53.299999999999997
sg10
F99.099999999999994
sg11
F123.59409720000001
sg12
F42.050474999999999
sg13
F12.5
sg14
F77.400000000000006
sa(dp20
I1
F0
sg3
F1
sg4
F30.393229219999998
sg5
F3
sg6
F2.25
sg7
F-93.639040000000008
sg8
F191
sg9
F37.5
sg10
F96.299999999999997
sg11
F194.8708824
sg12
F42.061520000000002
sg13
F17
sg14
F89.286000000000001
sa(dp21
I1
F0
sg3
F1.3333333333333333
sg4
F53.896870466666662
sg5
F1
sg6
F4.6766666666666667
sg7
F-93.648430000000005
sg8
F187.80799999999999
sg9
F27.866666666666664
sg10
F70.86666666666666
sg11
F195.41019686666667
sg12
F42.035646666666665
sg13
F61
sg14
F45.283999999999999
sa(dp22
I1
F0
sg3
F1.6666666666666667
sg4
F62.482169499999998
sg5
F1.3333333333333333
sg6
F15.606666666666664
sg7
F-93.649230000000003
sg8
F215.57500000000002
sg9
F30.466666666666669
sg10
F89.766666666666666
sg11
F231.19520109999999
sg12
F42.02603666666667
sg13
F25.666666666666668
sg14
F40.723999999999997
sa(dp23
I1
F0
sg3
F2.3333333333333335
sg4
F25.068616793333334
sg5
F1.3333333333333333
sg6
F5.2733333333333334
sg7
F-93.645206666666652
sg8
F121.66666666666667
sg9
F30.466666666666669
sg10
F75.533333333333331
sg11
F126.22261019666666
sg12
F42.015230000000003
sg13
F14.666666666666666
sg14
F53.286666666666669
sa(lp24
I6
aI9
aI5
aI3
aI8
aI1
aI7
aI3
aI0
aI3
aI9
aI3
aI1
aI2
aI5
aI2
aI7
aI4
aI3
aI7
aI0
aI2
aI9
aI8
aI8
aF31394.536495781002
(lp25
I0
aI0
aI0
aI0
aI0
aI0
aI0
aI0
aI0
aI0
aI0
aI0
aI0
aI0
aI0
aI0
aI0
aI0
aI0
aI0
aI0
aI0
aI0
aI0
aI0
a(lp26
I0
aI0
aI0
aI0
aI0
aI0
aI0
aI0
aI0
aI0
at.