((lp1
(dp2
I1
F0
sS'Bus_Lines'
p3
F1.5
sS'Std_Price'
p4
F32.77687281
sS'Num_Schools'
p5
F1
sS'Unemployement.'
p6
F5.2000000000000002
sS'Longitude'
p7
F-93.681205000000006
sS'Median_Price'
p8
F128.375
sS'Median.Age'
p9
F30.199999999999999
sS'White.'
p10
F72.599999999999994
sS'Mean_Price'
p11
F132.50641754999998
sS'Latitude'
p12
F42.024650000000001
sS'Num_Houses'
p13
F87
sS'Median_House_Income'
p14
F55.200000000000003
sa(dp15
I1
F0
sg3
F2
sg4
F72.369317960000004
sg5
F2
sg6
F20.699999999999999
sg7
F-93.649119999999996
sg8
F218
sg9
F19.199999999999999
sg10
F89.400000000000006
sg11
F238.77272730000001
sg12
F42.041629999999998
sg13
F11
sg14
F30.103999999999999
sa(dp16
I1
F0
sg3
F3
sg4
F40.348689270000001
sg5
F3
sg6
F20.699999999999999
sg7
F-93.629739999999998
sg8
F124.3
sg9
F19.199999999999999
sg10
F89.400000000000006
sg11
F124.8340517
sg12
F42.028940000000006
sg13
F58
sg14
F30.103999999999999
sa(dp17
I1
F0
sg3
F3.6666666666666665
sg4
F41.520887879999997
sg5
F2
sg6
F4.9233333333333329
sg7
F-93.653470000000013
sg8
F187.03333333333333
sg9
F28.099999999999998
sg10
F85.933333333333337
sg11
F193.29011603333333
sg12
F42.057786666666665
sg13
F100.66666666666667
sg14
F53.731333333333332
sa(dp18
I1
F0
sg3
F1
sg4
F96.392544950000001
sg5
F3
sg6
F1.3200000000000001
sg7
F-93.648650000000004
sg8
F315
sg9
F42.299999999999997
sg10
F90.5
sg11
F316.27062339999998
sg12
F42.047800000000002
sg13
F77
sg14
F97.981000000000009
sa(dp19
I1
F0
sg3
F2
sg4
F68.866395470000001
sg5
F1
sg6
F5.5800000000000001
sg7
F-93.607129999999998
sg8
F200.62400000000002
sg9
F24.5
sg10
F45.200000000000003
sg11
F210.62472549999998
sg12
F42.028019999999998
sg13
F51
sg14
F17.891999999999999
sa(dp20
I1
F0
sg3
F2
sg4
F33.07534545
sg5
F5
sg6
F9.0199999999999996
sg7
F-93.621790000000004
sg8
F140
sg9
F21
sg10
F53.799999999999997
sg11
F145.84708000000001
sg12
F42.040939999999999
sg13
F225
sg14
F14.026
sa(dp21
I1
F0
sg3
F1
sg4
F60.511603719999997
sg5
F2.5
sg6
F3.3700000000000001
sg7
F-93.647355000000005
sg8
F226.98750000000001
sg9
F47.649999999999999
sg10
F90.5
sg11
F233.8136423
sg12
F42.026494999999997
sg13
F62
sg14
F79.972499999999997
sa(dp22
I1
F0
sg3
F1
sg4
F121.41265859999999
sg5
F1
sg6
F1.3200000000000001
sg7
F-93.649469999999994
sg8
F301.5
sg9
F42.299999999999997
sg10
F90.5
sg11
F335.29531710000003
sg12
F42.05977
sg13
F41
sg14
F97.981000000000009
sa(dp23
I1
F0
sg3
F2
sg4
F52.650583179999998
sg5
F1
sg6
F5.5800000000000001
sg7
F-93.614339999999999
sg8
F119
sg9
F24.5
sg10
F45.200000000000003
sg11
F128.22530090000001
sg12
F42.029040000000002
sg13
F113
sg14
F17.891999999999999
sa(dp24
I1
F0
sg3
F1
sg4
F112.96967659999999
sg5
F3
sg6
F2.25
sg7
F-93.638840000000002
sg8
F278
sg9
F37.5
sg10
F96.299999999999997
sg11
F310.49900000000002
sg12
F42.057270000000003
sg13
F25
sg14
F89.286000000000001
sa(dp25
I1
F0
sg3
F1.5
sg4
F24.394685157250002
sg5
F2.25
sg6
F4.2825000000000006
sg7
F-93.638824999999997
sg8
F144.125
sg9
F36.174999999999997
sg10
F81.424999999999997
sg11
F144.76398169999999
sg12
F42.018797499999998
sg13
F21.25
sg14
F59.314999999999998
sa(dp26
I1
F0
sg3
F3
sg4
F23.732645406666666
sg5
F2.3333333333333335
sg6
F4.1033333333333335
sg7
F-93.620166666666663
sg8
F99
sg9
F36.266666666666666
sg10
F75.233333333333334
sg11
F101.06466812999999
sg12
F42.027913333333331
sg13
F23.333333333333332
sg14
F48.250666666666667
sa(dp27
I1
F0
sg3
F2
sg4
F50.231538989999997
sg5
F2
sg6
F20.699999999999999
sg7
F-93.648830000000004
sg8
F200.25
sg9
F19.199999999999999
sg10
F89.400000000000006
sg11
F212.56542859999999
sg12
F42.036090000000002
sg13
F28
sg14
F30.103999999999999
sa(dp28
I1
F0
sg3
F1
sg4
F30.393229219999998
sg5
F3
sg6
F2.25
sg7
F-93.639040000000008
sg8
F191
sg9
F37.5
sg10
F96.299999999999997
sg11
F194.8708824
sg12
F42.061520000000002
sg13
F17
sg14
F89.286000000000001
sa(dp29
I1
F0
sg3
F1
sg4
F55.651997819999998
sg5
F1
sg6
F5.2000000000000002
sg7
F-93.677059999999997
sg8
F179.90000000000001
sg9
F30.199999999999999
sg10
F72.599999999999994
sg11
F186.55579660000001
sg12
F42.033900000000003
sg13
F59
sg14
F55.200000000000003
sa(lp30
I14
aI11
aI12
aI2
aI13
aI3
aI5
aI0
aI3
aI12
aI12
aI11
aI6
aI8
aI11
aI4
aI3
aI9
aI0
aI15
aI7
aI10
aI11
aI7
aI1
aF17335.318507002725
(lp31
I0
aI0
aI0
aI0
aI0
aI0
aI0
aI0
aI0
aI0
aI0
aI0
aI0
aI0
aI0
aI0
aI0
aI0
aI0
aI0
aI0
aI0
aI0
aI0
aI0
a(lp32
I0
aI0
aI0
aI0
aI0
aI0
aI0
aI0
aI0
aI0
aI0
aI0
aI0
aI0
aI0
aI0
at.