((lp1
(dp2
I1
F0
sS'Bus_Lines'
p3
F6
sS'Std_Price'
p4
F42.239505945000005
sS'Num_Schools'
p5
F4.5
sS'Unemployement.'
p6
F9.6099999999999994
sS'Longitude'
p7
F-93.635719999999992
sS'Median_Price'
p8
F168.59999999999999
sS'Median.Age'
p9
F21.199999999999999
sS'White.'
p10
F69.650000000000006
sS'Mean_Price'
p11
F171.90642665000001
sS'Latitude'
p12
F42.031179999999999
sS'Num_Houses'
p13
F187.5
sS'Median_House_Income'
p14
F14.98
sa(dp15
I1
F0
sg3
F2.75
sg4
F35.708735600000004
sg5
F1.75
sg6
F9.2250000000000014
sg7
F-93.6290975
sg8
F130.07499999999999
sg9
F26.225000000000001
sg10
F72.150000000000006
sg11
F130.954829475
sg12
F42.013282500000003
sg13
F42.25
sg14
F38.164000000000001
sa(dp16
I1
F0
sg3
F1.5
sg4
F32.77687281
sg5
F1
sg6
F5.2000000000000002
sg7
F-93.681205000000006
sg8
F128.375
sg9
F30.199999999999999
sg10
F72.599999999999994
sg11
F132.50641754999998
sg12
F42.024650000000001
sg13
F87
sg14
F55.200000000000003
sa(dp17
I1
F0
sg3
F2
sg4
F52.650583179999998
sg5
F1
sg6
F5.5800000000000001
sg7
F-93.614339999999999
sg8
F119
sg9
F24.5
sg10
F45.200000000000003
sg11
F128.22530090000001
sg12
F42.029040000000002
sg13
F113
sg14
F17.891999999999999
sa(dp18
I1
F0
sg3
F1.1666666666666667
sg4
F66.872463687500002
sg5
F1.9166666666666667
sg6
F5.8858333333333341
sg7
F-93.646967500000002
sg8
F225.17908333333332
sg9
F34.241666666666667
sg10
F85.291666666666657
sg11
F237.91553002500004
sg12
F42.047577500000003
sg13
F48.75
sg14
F67.753249999999994
sa(dp19
I1
F0
sg3
F1.75
sg4
F16.572605929750001
sg5
F3
sg6
F3.3100000000000001
sg7
F-93.63228749999999
sg8
F119.375
sg9
F41.950000000000003
sg10
F88.049999999999997
sg11
F120.81616624750001
sg12
F42.033684999999998
sg13
F11
sg14
F64.865000000000009
sa(lp20
I4
aI5
aI5
aI1
aI4
aI0
aI4
aI2
aI4
aI1
aI5
aI1
aI0
aI4
aI5
aI4
aI4
aI3
aI2
aI4
aI4
aI4
aI1
aI4
aI4
aF105851.74005383949
(lp21
I0
aI0
aI0
aI0
aI0
aI0
aI0
aI0
aI0
aI0
aI0
aI0
aI0
aI0
aI0
aI0
aI0
aI0
aI0
aI0
aI0
aI0
aI0
aI0
aI0
a(lp22
I0
aI0
aI0
aI0
aI0
aI0
at.