((lp1
(dp2
I1
F0
sS'Bus_Lines'
p3
F1.8461538461538463
sS'Std_Price'
p4
F65.682556206923067
sS'Num_Schools'
p5
F2.0769230769230771
sS'Unemployement.'
p6
F6.2176923076923076
sS'Longitude'
p7
F-93.647173846153848
sS'Median_Price'
p8
F223.02684615384618
sS'Median.Age'
p9
F33.253846153846155
sS'White.'
p10
F85.307692307692307
sS'Mean_Price'
p11
F234.84247181538461
sS'Latitude'
p12
F42.045565384615387
sS'Num_Houses'
p13
F56.53846153846154
sS'Median_House_Income'
p14
F63.767153846153846
sa(dp15
I1
F0
sg3
F2.0833333333333335
sg4
F30.033753364083335
sg5
F2.25
sg6
F6.2616666666666676
sg7
F-93.637006666666665
sg8
F126.12916666666666
sg9
F31.549999999999997
sg10
F73.750000000000014
sg11
F128.84743324083334
sg12
F42.025595833333334
sg13
F60.416666666666664
sg14
F46.202833333333331
sa(lp16
I0
aI1
aI1
aI1
aI0
aI0
aI0
aI1
aI0
aI1
aI1
aI1
aI1
aI0
aI1
aI0
aI0
aI1
aI1
aI0
aI0
aI0
aI1
aI0
aI0
aF165280.81565809605
(lp17
I0
aI0
aI0
aI0
aI0
aI0
aI0
aI0
aI0
aI0
aI0
aI0
aI0
aI0
aI0
aI0
aI0
aI0
aI0
aI0
aI0
aI0
aI0
aI0
aI0
a(lp18
I0
aI0
at.