((lp1
(dp2
I1
F0
sS'Bus_Lines'
p3
F1
sS'Std_Price'
p4
F56.177555890000001
sS'Num_Schools'
p5
F5
sS'Unemployement.'
p6
F1.3200000000000001
sS'Longitude'
p7
F-93.644970000000001
sS'Median_Price'
p8
F225.5
sS'Median.Age'
p9
F42.299999999999997
sS'White.'
p10
F90.5
sS'Mean_Price'
p11
F225.3798372
sS'Latitude'
p12
F42.052599999999998
sS'Num_Houses'
p13
F86
sS'Median_House_Income'
p14
F97.981000000000009
sa(dp15
I1
F0
sg3
F2
sg4
F52.650583179999998
sg5
F1
sg6
F5.5800000000000001
sg7
F-93.614339999999999
sg8
F119
sg9
F24.5
sg10
F45.200000000000003
sg11
F128.22530090000001
sg12
F42.029040000000002
sg13
F113
sg14
F17.891999999999999
sa(dp16
I1
F0
sg3
F2
sg4
F18.910613050000002
sg5
F3
sg6
F3.3650000000000002
sg7
F-93.619245000000006
sg8
F97
sg9
F42.149999999999999
sg10
F90.25
sg11
F101.53511029500001
sg12
F42.030874999999995
sg13
F16.5
sg14
F63.430000000000007
sa(dp17
I1
F0
sg3
F1
sg4
F22.345129159999999
sg5
F1
sg6
F5.2000000000000002
sg7
F-93.677059999999997
sg8
F135
sg9
F30.199999999999999
sg10
F72.599999999999994
sg11
F136.7931351
sg12
F42.033900000000003
sg13
F74
sg14
F55.200000000000003
sa(dp18
I1
F0
sg3
F1.75
sg4
F64.078225992499995
sg5
F1.25
sg6
F13.100000000000001
sg7
F-93.638705000000002
sg8
F211.83725000000001
sg9
F28.975000000000001
sg10
F78.625
sg11
F226.05258220000002
sg12
F42.026532500000002
sg13
F32
sg14
F35.015999999999998
sa(dp19
I1
F0
sg3
F3
sg4
F40.348689270000001
sg5
F3
sg6
F20.699999999999999
sg7
F-93.629739999999998
sg8
F124.3
sg9
F19.199999999999999
sg10
F89.400000000000006
sg11
F124.8340517
sg12
F42.028940000000006
sg13
F58
sg14
F30.103999999999999
sa(dp20
I1
F0
sg3
F10
sg4
F51.403666440000002
sg5
F4
sg6
F10.199999999999999
sg7
F-93.649649999999994
sg8
F197.19999999999999
sg9
F21.399999999999999
sg10
F85.5
sg11
F197.9657733
sg12
F42.021419999999999
sg13
F150
sg14
F15.934000000000001
sa(dp21
I1
F0
sg3
F2
sg4
F43.208616460000002
sg5
F1
sg6
F5.2000000000000002
sg7
F-93.68535
sg8
F121.75
sg9
F30.199999999999999
sg10
F72.599999999999994
sg11
F128.21969999999999
sg12
F42.0154
sg13
F100
sg14
F55.200000000000003
sa(dp22
I1
F0
sg3
F1.6666666666666667
sg4
F29.400475366666669
sg5
F1.3333333333333333
sg6
F5.2733333333333334
sg7
F-93.642806666666672
sg8
F143.5
sg9
F30.466666666666669
sg10
F75.533333333333331
sg11
F145.45382746666667
sg12
F42.008429999999997
sg13
F25.333333333333332
sg14
F53.286666666666669
sa(dp23
I1
F0
sg3
F1
sg4
F110.25829338333331
sg5
F2.3333333333333335
sg6
F1.6300000000000001
sg7
F-93.645653333333328
sg8
F298.16666666666669
sg9
F40.699999999999996
sg10
F92.433333333333337
sg11
F320.68831349999999
sg12
F42.054946666666673
sg13
F47.666666666666664
sg14
F95.082666666666682
sa(dp24
I1
F0
sg3
F0.75
sg4
F39.801056060000001
sg5
F1.5
sg6
F3.0049999999999999
sg7
F-93.656714999999991
sg8
F183.69999999999999
sg9
F32.649999999999999
sg10
F85.300000000000011
sg11
F190.83281345
sg12
F42.061840000000004
sg13
F57
sg14
F72.436499999999995
sa(dp25
I1
F0
sg3
F1
sg4
F9.3773145289999995
sg5
F5
sg6
F1.3100000000000001
sg7
F-93.62688
sg8
F146
sg9
F53.299999999999997
sg10
F99.099999999999994
sg11
F142.69444440000001
sg12
F42.049900000000001
sg13
F9
sg14
F77.400000000000006
sa(dp26
I1
F0
sg3
F2
sg4
F33.07534545
sg5
F5
sg6
F9.0199999999999996
sg7
F-93.621790000000004
sg8
F140
sg9
F21
sg10
F53.799999999999997
sg11
F145.84708000000001
sg12
F42.040939999999999
sg13
F225
sg14
F14.026
sa(dp27
I1
F0
sg3
F5
sg4
F33.376710119999998
sg5
F1
sg6
F5.5800000000000001
sg7
F-93.622010000000003
sg8
F103
sg9
F24.5
sg10
F45.200000000000003
sg11
F100.1237838
sg12
F42.021990000000002
sg13
F37
sg14
F17.891999999999999
sa(lp28
I10
aI8
aI2
aI5
aI4
aI6
aI4
aI7
aI10
aI13
aI2
aI8
aI12
aI9
aI11
aI9
aI10
aI1
aI3
aI10
aI0
aI9
aI8
aI4
aI4
aF15822.672568211434
(lp29
I0
aI0
aI0
aI0
aI0
aI0
aI0
aI0
aI0
aI0
aI0
aI0
aI0
aI0
aI0
aI0
aI0
aI0
aI0
aI0
aI0
aI0
aI0
aI0
aI0
a(lp30
I0
aI0
aI0
aI0
aI0
aI0
aI0
aI0
aI0
aI0
aI0
aI0
aI0
aI0
at.