((lp1
(dp2
I1
F0
sS'Bus_Lines'
p3
F1
sS'Std_Price'
p4
F110.25829338333331
sS'Num_Schools'
p5
F2.3333333333333335
sS'Unemployement.'
p6
F1.6300000000000001
sS'Longitude'
p7
F-93.645653333333328
sS'Median_Price'
p8
F298.16666666666669
sS'Median.Age'
p9
F40.699999999999996
sS'White.'
p10
F92.433333333333337
sS'Mean_Price'
p11
F320.68831349999999
sS'Latitude'
p12
F42.054946666666673
sS'Num_Houses'
p13
F47.666666666666664
sS'Median_House_Income'
p14
F95.082666666666682
sa(dp15
I1
F0
sg3
F1.6000000000000001
sg4
F57.341226638000002
sg5
F1.6000000000000001
sg6
F10.930000000000001
sg7
F-93.638771999999989
sg8
F207.66980000000004
sg9
F30.679999999999996
sg10
F82.159999999999997
sg11
F219.81624224000001
sg12
F42.033529999999999
sg13
F29
sg14
F45.870000000000005
sa(dp16
I1
F0
sg3
F2.3333333333333335
sg4
F34.731448003333334
sg5
F1.5
sg6
F7.8833333333333337
sg7
F-93.646466666666655
sg8
F129.50833333333333
sg9
F27.549999999999997
sg10
F72.300000000000011
sg11
F131.4720255
sg12
F42.017071666666666
sg13
F57.166666666666664
sg14
F43.842666666666666
sa(dp17
I1
F0
sg3
F2.6000000000000001
sg4
F47.278443469999999
sg5
F2.3999999999999999
sg6
F4.258
sg7
F-93.656487999999996
sg8
F193.30000000000001
sg9
F31.360000000000003
sg10
F84.179999999999993
sg11
F198.36119638
sg12
F42.051971999999999
sg13
F89.400000000000006
sg14
F62.875
sa(dp18
I1
F0
sg3
F2
sg4
F42.862964314999999
sg5
F3
sg6
F7.2999999999999998
sg7
F-93.618065000000001
sg8
F129.5
sg9
F22.75
sg10
F49.5
sg11
F137.03619044999999
sg12
F42.034990000000001
sg13
F169
sg14
F15.959
sa(dp19
I1
F0
sg3
F1.75
sg4
F16.572605929750001
sg5
F3
sg6
F3.3100000000000001
sg7
F-93.63228749999999
sg8
F119.375
sg9
F41.950000000000003
sg10
F88.049999999999997
sg11
F120.81616624750001
sg12
F42.033684999999998
sg13
F11
sg14
F64.865000000000009
sa(lp20
I1
aI5
aI5
aI2
aI1
aI3
aI1
aI2
aI3
aI2
aI5
aI2
aI4
aI0
aI5
aI0
aI3
aI4
aI2
aI3
aI3
aI0
aI2
aI1
aI1
aF48937.757291491616
(lp21
I0
aI0
aI0
aI0
aI0
aI0
aI0
aI0
aI0
aI0
aI0
aI0
aI0
aI0
aI0
aI0
aI0
aI0
aI0
aI0
aI0
aI0
aI0
aI0
aI0
a(lp22
I0
aI0
aI0
aI0
aI0
aI0
at.