((lp1
(dp2
I1
F0
sS'Bus_Lines'
p3
F1.5
sS'Std_Price'
p4
F24.394685157250002
sS'Num_Schools'
p5
F2.25
sS'Unemployement.'
p6
F4.2825000000000006
sS'Longitude'
p7
F-93.638824999999997
sS'Median_Price'
p8
F144.125
sS'Median.Age'
p9
F36.174999999999997
sS'White.'
p10
F81.424999999999997
sS'Mean_Price'
p11
F144.76398169999999
sS'Latitude'
p12
F42.018797499999998
sS'Num_Houses'
p13
F21.25
sS'Median_House_Income'
p14
F59.314999999999998
sa(dp15
I1
F0
sg3
F3
sg4
F40.348689270000001
sg5
F3
sg6
F20.699999999999999
sg7
F-93.629739999999998
sg8
F124.3
sg9
F19.199999999999999
sg10
F89.400000000000006
sg11
F124.8340517
sg12
F42.028940000000006
sg13
F58
sg14
F30.103999999999999
sa(dp16
I1
F0
sg3
F1
sg4
F22.345129159999999
sg5
F1
sg6
F5.2000000000000002
sg7
F-93.677059999999997
sg8
F135
sg9
F30.199999999999999
sg10
F72.599999999999994
sg11
F136.7931351
sg12
F42.033900000000003
sg13
F74
sg14
F55.200000000000003
sa(dp17
I1
F0
sg3
F2
sg4
F59.548967230000002
sg5
F1.5
sg6
F13.140000000000001
sg7
F-93.627980000000008
sg8
F200.43700000000001
sg9
F21.850000000000001
sg10
F67.300000000000011
sg11
F211.59507704999999
sg12
F42.032055
sg13
F39.5
sg14
F23.997999999999998
sa(dp18
I1
F0
sg3
F1
sg4
F110.25829338333331
sg5
F2.3333333333333335
sg6
F1.6300000000000001
sg7
F-93.645653333333328
sg8
F298.16666666666669
sg9
F40.699999999999996
sg10
F92.433333333333337
sg11
F320.68831349999999
sg12
F42.054946666666673
sg13
F47.666666666666664
sg14
F95.082666666666682
sa(dp19
I1
F0
sg3
F1
sg4
F14.330176489999999
sg5
F5
sg6
F1.3100000000000001
sg7
F-93.630240000000001
sg8
F106
sg9
F53.299999999999997
sg10
F99.099999999999994
sg11
F104.49375000000001
sg12
F42.051049999999996
sg13
F16
sg14
F77.400000000000006
sa(dp20
I1
F0
sg3
F1
sg4
F55.651997819999998
sg5
F1
sg6
F5.2000000000000002
sg7
F-93.677059999999997
sg8
F179.90000000000001
sg9
F30.199999999999999
sg10
F72.599999999999994
sg11
F186.55579660000001
sg12
F42.033900000000003
sg13
F59
sg14
F55.200000000000003
sa(dp21
I1
F0
sg3
F2
sg4
F52.650583179999998
sg5
F1
sg6
F5.5800000000000001
sg7
F-93.614339999999999
sg8
F119
sg9
F24.5
sg10
F45.200000000000003
sg11
F128.22530090000001
sg12
F42.029040000000002
sg13
F113
sg14
F17.891999999999999
sa(dp22
I1
F0
sg3
F1
sg4
F60.511603719999997
sg5
F2.5
sg6
F3.3700000000000001
sg7
F-93.647355000000005
sg8
F226.98750000000001
sg9
F47.649999999999999
sg10
F90.5
sg11
F233.8136423
sg12
F42.026494999999997
sg13
F62
sg14
F79.972499999999997
sa(dp23
I1
F0
sg3
F0.5
sg4
F36.579498600000001
sg5
F1
sg6
F2.2850000000000001
sg7
F-93.655380000000008
sg8
F181.94999999999999
sg9
F31.449999999999999
sg10
F86.150000000000006
sg11
F190.95228739999999
sg12
F42.075969999999998
sg13
F76
sg14
F72.629999999999995
sa(dp24
I1
F0
sg3
F2
sg4
F43.208616460000002
sg5
F1
sg6
F5.2000000000000002
sg7
F-93.68535
sg8
F121.75
sg9
F30.199999999999999
sg10
F72.599999999999994
sg11
F128.21969999999999
sg12
F42.0154
sg13
F100
sg14
F55.200000000000003
sa(dp25
I1
F0
sg3
F1
sg4
F30.393229219999998
sg5
F3
sg6
F2.25
sg7
F-93.639040000000008
sg8
F191
sg9
F37.5
sg10
F96.299999999999997
sg11
F194.8708824
sg12
F42.061520000000002
sg13
F17
sg14
F89.286000000000001
sa(dp26
I1
F0
sg3
F4
sg4
F28.433879865000002
sg5
F1
sg6
F5.5
sg7
F-93.615129999999994
sg8
F95.5
sg9
F27.75
sg10
F63.300000000000004
sg11
F99.350127194999999
sg12
F42.016345000000001
sg13
F27
sg14
F33.676000000000002
sa(dp27
I1
F0
sg3
F2
sg4
F33.07534545
sg5
F5
sg6
F9.0199999999999996
sg7
F-93.621790000000004
sg8
F140
sg9
F21
sg10
F53.799999999999997
sg11
F145.84708000000001
sg12
F42.040939999999999
sg13
F225
sg14
F14.026
sa(dp28
I1
F0
sg3
F2
sg4
F72.369317960000004
sg5
F2
sg6
F20.699999999999999
sg7
F-93.649119999999996
sg8
F218
sg9
F19.199999999999999
sg10
F89.400000000000006
sg11
F238.77272730000001
sg12
F42.041629999999998
sg13
F11
sg14
F30.103999999999999
sa(dp29
I1
F0
sg3
F10
sg4
F51.403666440000002
sg5
F4
sg6
F10.199999999999999
sg7
F-93.649649999999994
sg8
F197.19999999999999
sg9
F21.399999999999999
sg10
F85.5
sg11
F197.9657733
sg12
F42.021419999999999
sg13
F150
sg14
F15.934000000000001
sa(lp30
I11
aI0
aI5
aI1
aI3
aI15
aI3
aI10
aI9
aI12
aI12
aI0
aI13
aI4
aI0
aI4
aI9
aI7
aI2
aI6
aI8
aI4
aI0
aI8
aI14
aF11946.510344946822
(lp31
I0
aI0
aI0
aI0
aI0
aI0
aI0
aI0
aI0
aI0
aI0
aI0
aI0
aI0
aI0
aI0
aI0
aI0
aI0
aI0
aI0
aI0
aI0
aI0
aI0
a(lp32
I0
aI0
aI0
aI0
aI0
aI0
aI0
aI0
aI0
aI0
aI0
aI0
aI0
aI0
aI0
aI0
a(lp33
S'Blmngtn'
p34
aS'Blueste'
p35
aS'BrDale'
p36
aS'BrkSide'
p37
aS'ClearCr'
p38
aS'CollgCr'
p39
aS'Crawfor'
p40
aS'Edwards'
p41
aS'Gilbert'
p42
aS'IDOTRR'
p43
aS'MeadowV'
p44
aS'Mitchel'
p45
aS'NAmes'
p46
aS'NoRidge'
p47
aS'NPkVill'
p48
aS'NridgHt'
p49
aS'NWAmes'
p50
aS'OldTown'
p51
aS'Sawyer'
p52
aS'SawyerW'
p53
aS'Somerst'
p54
aS'StoneBr'
p55
aS'SWISU'
p56
aS'Timber'
p57
aS'Veenker'
p58
at.