((lp1
(dp2
I1
F0
sS'Bus_Lines'
p3
F5
sS'Std_Price'
p4
F33.376710119999998
sS'Num_Schools'
p5
F1
sS'Unemployement.'
p6
F5.5800000000000001
sS'Longitude'
p7
F-93.622010000000003
sS'Median_Price'
p8
F103
sS'Median.Age'
p9
F24.5
sS'White.'
p10
F45.200000000000003
sS'Mean_Price'
p11
F100.1237838
sS'Latitude'
p12
F42.021990000000002
sS'Num_Houses'
p13
F37
sS'Median_House_Income'
p14
F17.891999999999999
sa(dp15
I1
F0
sg3
F6
sg4
F42.239505945000005
sg5
F4.5
sg6
F9.6099999999999994
sg7
F-93.635719999999992
sg8
F168.59999999999999
sg9
F21.199999999999999
sg10
F69.650000000000006
sg11
F171.90642665000001
sg12
F42.031179999999999
sg13
F187.5
sg14
F14.98
sa(dp16
I1
F0
sg3
F2
sg4
F39.638254517500002
sg5
F1.5
sg6
F9.1699999999999999
sg7
F-93.651622500000002
sg8
F125.0125
sg9
F26.025000000000002
sg10
F69.949999999999989
sg11
F129.51804692499999
sg12
F42.026820000000001
sg13
F86.25
sg14
F39.599000000000004
sa(dp17
I1
F0
sg3
F0.75
sg4
F41.324405087500004
sg5
F1
sg6
F3.7975000000000003
sg7
F-93.647217499999996
sg8
F174.32499999999999
sg9
F31.025000000000002
sg10
F81.574999999999989
sg11
F181.18262345000002
sg12
F42.044034999999994
sg13
F65
sg14
F62.480000000000004
sa(dp18
I1
F0
sg3
F2
sg4
F25.857400384999998
sg5
F1.5
sg6
F5.2000000000000002
sg7
F-93.663685000000001
sg8
F138.5
sg9
F30.199999999999999
sg10
F72.599999999999994
sg11
F140.04568
sg12
F42.017494999999997
sg13
F13.5
sg14
F55.200000000000003
sa(dp19
I1
F0
sg3
F1.6000000000000001
sg4
F62.498091971999997
sg5
F2
sg6
F10.744
sg7
F-93.639958000000007
sg8
F214.56980000000004
sg9
F31.639999999999997
sg10
F81
sg11
F225.9180332
sg12
F42.031745999999998
sg13
F42.799999999999997
sg14
F47.609000000000002
sa(dp20
I1
F0
sg3
F3
sg4
F23.491049610000001
sg5
F1
sg6
F5.4199999999999999
sg7
F-93.608249999999998
sg8
F88
sg9
F31
sg10
F81.400000000000006
sg11
F98.57647059
sg12
F42.0107
sg13
F17
sg14
F49.460000000000001
sa(dp21
I1
F0
sg3
F1
sg4
F19.885271874499999
sg5
F4
sg6
F1.78
sg7
F-93.632959999999997
sg8
F168.5
sg9
F45.399999999999999
sg10
F97.699999999999989
sg11
F168.78266339999999
sg12
F42.055710000000005
sg13
F13
sg14
F83.343000000000004
sa(dp22
I1
F0
sg3
F1
sg4
F14.330176489999999
sg5
F5
sg6
F1.3100000000000001
sg7
F-93.630240000000001
sg8
F106
sg9
F53.299999999999997
sg10
F99.099999999999994
sg11
F104.49375000000001
sg12
F42.051049999999996
sg13
F16
sg14
F77.400000000000006
sa(dp23
I1
F0
sg3
F1
sg4
F110.25829338333331
sg5
F2.3333333333333335
sg6
F1.6300000000000001
sg7
F-93.645653333333328
sg8
F298.16666666666669
sg9
F40.699999999999996
sg10
F92.433333333333337
sg11
F320.68831349999999
sg12
F42.054946666666673
sg13
F47.666666666666664
sg14
F95.082666666666682
sa(lp24
I7
aI4
aI8
aI2
aI5
aI1
aI5
aI2
aI3
aI0
aI6
aI3
aI1
aI9
aI7
aI9
aI3
aI2
aI2
aI3
aI5
aI9
aI4
aI5
aI5
aF32860.467553968578
(lp25
I0
aI0
aI0
aI0
aI0
aI0
aI0
aI0
aI0
aI0
aI0
aI0
aI0
aI0
aI0
aI0
aI0
aI0
aI0
aI0
aI0
aI0
aI0
aI0
aI0
a(lp26
I0
aI0
aI0
aI0
aI0
aI0
aI0
aI0
aI0
aI0
at.