((lp1
(dp2
I1
F0
sS'Bus_Lines'
p3
F3.3333333333333335
sS'Std_Price'
p4
F36.506114303333334
sS'Num_Schools'
p5
F1
sS'Unemployement.'
p6
F5.5266666666666664
sS'Longitude'
p7
F-93.614866666666671
sS'Median_Price'
p8
F103.33333333333333
sS'Median.Age'
p9
F26.666666666666668
sS'White.'
p10
F57.266666666666673
sS'Mean_Price'
p11
F108.97518509666668
sS'Latitude'
p12
F42.02057666666667
sS'Num_Houses'
p13
F55.666666666666664
sS'Median_House_Income'
p14
F28.414666666666665
sa(dp15
I1
F0
sg3
F1.8
sg4
F35.002395579999998
sg5
F1.6000000000000001
sg6
F8.3440000000000012
sg7
F-93.651357999999988
sg8
F134.81
sg9
F28.160000000000004
sg10
F77.719999999999999
sg11
F137.74167384
sg12
F42.016087999999996
sg13
F61.200000000000003
sg14
F49.032799999999995
sa(dp16
I1
F0
sg3
F1
sg4
F110.25829338333331
sg5
F2.3333333333333335
sg6
F1.6300000000000001
sg7
F-93.645653333333328
sg8
F298.16666666666669
sg9
F40.699999999999996
sg10
F92.433333333333337
sg11
F320.68831349999999
sg12
F42.054946666666673
sg13
F47.666666666666664
sg14
F95.082666666666682
sa(dp17
I1
F0
sg3
F1.2222222222222223
sg4
F52.410520455555556
sg5
F1.7777777777777777
sg6
F7.3044444444444458
sg7
F-93.647405555555551
sg8
F200.84988888888887
sg9
F32.088888888888881
sg10
F82.911111111111097
sg11
F210.32460220000004
sg12
F42.045121111111108
sg13
F49.111111111111114
sg14
F58.643444444444448
sa(dp18
I1
F0
sg3
F6
sg4
F42.239505945000005
sg5
F4.5
sg6
F9.6099999999999994
sg7
F-93.635719999999992
sg8
F168.59999999999999
sg9
F21.199999999999999
sg10
F69.650000000000006
sg11
F171.90642665000001
sg12
F42.031179999999999
sg13
F187.5
sg14
F14.98
sa(dp19
I1
F0
sg3
F1.3333333333333333
sg4
F14.266458036333333
sg5
F3.6666666666666665
sg6
F2.6066666666666669
sg7
F-93.640299999999982
sg8
F129.83333333333334
sg9
F45.600000000000001
sg10
F90.266666666666652
sg11
F128.22939813333335
sg12
F42.041346666666669
sg13
F9
sg14
F70.000000000000014
sa(lp20
I3
aI5
aI5
aI1
aI3
aI4
aI3
aI1
aI3
aI0
aI0
aI1
aI4
aI2
aI5
aI2
aI3
aI0
aI1
aI3
aI3
aI2
aI1
aI3
aI3
aF50611.42136706633
(lp21
I0
aI0
aI0
aI0
aI0
aI0
aI0
aI0
aI0
aI0
aI0
aI0
aI0
aI0
aI0
aI0
aI0
aI0
aI0
aI0
aI0
aI0
aI0
aI0
aI0
a(lp22
I0
aI0
aI0
aI0
aI0
aI0
a(lp23
S'Blmngtn'
p24
aS'Blueste'
p25
aS'BrDale'
p26
aS'BrkSide'
p27
aS'ClearCr'
p28
aS'CollgCr'
p29
aS'Crawfor'
p30
aS'Edwards'
p31
aS'Gilbert'
p32
aS'IDOTRR'
p33
aS'MeadowV'
p34
aS'Mitchel'
p35
aS'NAmes'
p36
aS'NoRidge'
p37
aS'NPkVill'
p38
aS'NridgHt'
p39
aS'NWAmes'
p40
aS'OldTown'
p41
aS'Sawyer'
p42
aS'SawyerW'
p43
aS'Somerst'
p44
aS'StoneBr'
p45
aS'SWISU'
p46
aS'Timber'
p47
aS'Veenker'
p48
at.