((lp1
(dp2
I1
F0
sS'Bus_Lines'
p3
F4
sS'Std_Price'
p4
F36.862699695000003
sS'Num_Schools'
p5
F2
sS'Unemployement.'
p6
F13.140000000000001
sS'Longitude'
p7
F-93.625875000000008
sS'Median_Price'
p8
F113.65000000000001
sS'Median.Age'
p9
F21.850000000000001
sS'White.'
p10
F67.300000000000011
sS'Mean_Price'
p11
F112.47891774999999
sS'Latitude'
p12
F42.025465000000004
sS'Num_Houses'
p13
F47.5
sS'Median_House_Income'
p14
F23.997999999999998
sa(dp15
I1
F0
sg3
F1.5
sg4
F32.77687281
sg5
F1
sg6
F5.2000000000000002
sg7
F-93.681205000000006
sg8
F128.375
sg9
F30.199999999999999
sg10
F72.599999999999994
sg11
F132.50641754999998
sg12
F42.024650000000001
sg13
F87
sg14
F55.200000000000003
sa(dp16
I1
F0
sg3
F2
sg4
F33.07534545
sg5
F5
sg6
F9.0199999999999996
sg7
F-93.621790000000004
sg8
F140
sg9
F21
sg10
F53.799999999999997
sg11
F145.84708000000001
sg12
F42.040939999999999
sg13
F225
sg14
F14.026
sa(dp17
I1
F0
sg3
F0.75
sg4
F46.247137727500004
sg5
F2
sg6
F2.7725
sg7
F-93.6581975
sg8
F192.32499999999999
sg9
F33.849999999999994
sg10
F83.849999999999994
sg11
F198.46005215
sg12
F42.059609999999999
sg13
F74.25
sg14
F74.610249999999994
sa(dp18
I1
F0
sg3
F1
sg4
F112.96967659999999
sg5
F3
sg6
F2.25
sg7
F-93.638840000000002
sg8
F278
sg9
F37.5
sg10
F96.299999999999997
sg11
F310.49900000000002
sg12
F42.057270000000003
sg13
F25
sg14
F89.286000000000001
sa(dp19
I1
F0
sg3
F2
sg4
F18.910613050000002
sg5
F3
sg6
F3.3650000000000002
sg7
F-93.619245000000006
sg8
F97
sg9
F42.149999999999999
sg10
F90.25
sg11
F101.53511029500001
sg12
F42.030874999999995
sg13
F16.5
sg14
F63.430000000000007
sa(dp20
I1
F0
sg3
F1.6666666666666667
sg4
F29.400475366666669
sg5
F1.3333333333333333
sg6
F5.2733333333333334
sg7
F-93.642806666666672
sg8
F143.5
sg9
F30.466666666666669
sg10
F75.533333333333331
sg11
F145.45382746666667
sg12
F42.008429999999997
sg13
F25.333333333333332
sg14
F53.286666666666669
sa(dp21
I1
F0
sg3
F10
sg4
F51.403666440000002
sg5
F4
sg6
F10.199999999999999
sg7
F-93.649649999999994
sg8
F197.19999999999999
sg9
F21.399999999999999
sg10
F85.5
sg11
F197.9657733
sg12
F42.021419999999999
sg13
F150
sg14
F15.934000000000001
sa(dp22
I1
F0
sg3
F2
sg4
F52.650583179999998
sg5
F1
sg6
F5.5800000000000001
sg7
F-93.614339999999999
sg8
F119
sg9
F24.5
sg10
F45.200000000000003
sg11
F128.22530090000001
sg12
F42.029040000000002
sg13
F113
sg14
F17.891999999999999
sa(dp23
I1
F0
sg3
F2
sg4
F68.866395470000001
sg5
F1
sg6
F5.5800000000000001
sg7
F-93.607129999999998
sg8
F200.62400000000002
sg9
F24.5
sg10
F45.200000000000003
sg11
F210.62472549999998
sg12
F42.028019999999998
sg13
F51
sg14
F17.891999999999999
sa(dp24
I1
F0
sg3
F1
sg4
F30.393229219999998
sg5
F3
sg6
F2.25
sg7
F-93.639040000000008
sg8
F191
sg9
F37.5
sg10
F96.299999999999997
sg11
F194.8708824
sg12
F42.061520000000002
sg13
F17
sg14
F89.286000000000001
sa(dp25
I1
F0
sg3
F1.6666666666666667
sg4
F62.482169499999998
sg5
F1.3333333333333333
sg6
F15.606666666666664
sg7
F-93.649230000000003
sg8
F215.57500000000002
sg9
F30.466666666666669
sg10
F89.766666666666666
sg11
F231.19520109999999
sg12
F42.02603666666667
sg13
F25.666666666666668
sg14
F40.723999999999997
sa(dp26
I1
F0
sg3
F1
sg4
F108.90260177499999
sg5
F2
sg6
F1.3200000000000001
sg7
F-93.649059999999992
sg8
F308.25
sg9
F42.299999999999997
sg10
F90.5
sg11
F325.78297025000001
sg12
F42.053785000000005
sg13
F59
sg14
F97.981000000000009
sa(dp27
I1
F0
sg3
F1
sg4
F9.3773145289999995
sg5
F5
sg6
F1.3100000000000001
sg7
F-93.62688
sg8
F146
sg9
F53.299999999999997
sg10
F99.099999999999994
sg11
F142.69444440000001
sg12
F42.049900000000001
sg13
F9
sg14
F77.400000000000006
sa(lp28
I10
aI6
aI5
aI0
aI11
aI7
aI9
aI1
aI3
aI0
aI5
aI6
aI2
aI12
aI13
aI12
aI3
aI8
aI1
aI3
aI3
aI4
aI6
aI11
aI11
aF14574.680946089611
(lp29
I0
aI0
aI0
aI0
aI0
aI0
aI0
aI0
aI0
aI0
aI0
aI0
aI0
aI0
aI0
aI0
aI0
aI0
aI0
aI0
aI0
aI0
aI0
aI0
aI0
a(lp30
I0
aI0
aI0
aI0
aI0
aI0
aI0
aI0
aI0
aI0
aI0
aI0
aI0
aI0
a(lp31
S'Blmngtn'
p32
aS'Blueste'
p33
aS'BrDale'
p34
aS'BrkSide'
p35
aS'ClearCr'
p36
aS'CollgCr'
p37
aS'Crawfor'
p38
aS'Edwards'
p39
aS'Gilbert'
p40
aS'IDOTRR'
p41
aS'MeadowV'
p42
aS'Mitchel'
p43
aS'NAmes'
p44
aS'NoRidge'
p45
aS'NPkVill'
p46
aS'NridgHt'
p47
aS'NWAmes'
p48
aS'OldTown'
p49
aS'Sawyer'
p50
aS'SawyerW'
p51
aS'Somerst'
p52
aS'StoneBr'
p53
aS'SWISU'
p54
aS'Timber'
p55
aS'Veenker'
p56
at.