((lp1
(dp2
I1
F0
sS'Bus_Lines'
p3
F2
sS'Std_Price'
p4
F18.910613050000002
sS'Num_Schools'
p5
F3
sS'Unemployement.'
p6
F3.3650000000000002
sS'Longitude'
p7
F-93.619245000000006
sS'Median_Price'
p8
F97
sS'Median.Age'
p9
F42.149999999999999
sS'White.'
p10
F90.25
sS'Mean_Price'
p11
F101.53511029500001
sS'Latitude'
p12
F42.030874999999995
sS'Num_Houses'
p13
F16.5
sS'Median_House_Income'
p14
F63.430000000000007
sa(dp15
I1
F0
sg3
F10
sg4
F51.403666440000002
sg5
F4
sg6
F10.199999999999999
sg7
F-93.649649999999994
sg8
F197.19999999999999
sg9
F21.399999999999999
sg10
F85.5
sg11
F197.9657733
sg12
F42.021419999999999
sg13
F150
sg14
F15.934000000000001
sa(dp16
I1
F0
sg3
F0.75
sg4
F39.801056060000001
sg5
F1.5
sg6
F3.0049999999999999
sg7
F-93.656714999999991
sg8
F183.69999999999999
sg9
F32.649999999999999
sg10
F85.300000000000011
sg11
F190.83281345
sg12
F42.061840000000004
sg13
F57
sg14
F72.436499999999995
sa(dp17
I1
F0
sg3
F1
sg4
F9.3773145289999995
sg5
F5
sg6
F1.3100000000000001
sg7
F-93.62688
sg8
F146
sg9
F53.299999999999997
sg10
F99.099999999999994
sg11
F142.69444440000001
sg12
F42.049900000000001
sg13
F9
sg14
F77.400000000000006
sa(dp18
I1
F0
sg3
F1
sg4
F56.177555890000001
sg5
F5
sg6
F1.3200000000000001
sg7
F-93.644970000000001
sg8
F225.5
sg9
F42.299999999999997
sg10
F90.5
sg11
F225.3798372
sg12
F42.052599999999998
sg13
F86
sg14
F97.981000000000009
sa(dp19
I1
F0
sg3
F2
sg4
F68.866395470000001
sg5
F1
sg6
F5.5800000000000001
sg7
F-93.607129999999998
sg8
F200.62400000000002
sg9
F24.5
sg10
F45.200000000000003
sg11
F210.62472549999998
sg12
F42.028019999999998
sg13
F51
sg14
F17.891999999999999
sa(dp20
I1
F0
sg3
F1
sg4
F117.19116759999999
sg5
F2
sg6
F1.7850000000000001
sg7
F-93.644154999999998
sg8
F289.75
sg9
F39.899999999999999
sg10
F93.400000000000006
sg11
F322.89715855000003
sg12
F42.058520000000001
sg13
F33
sg14
F93.633499999999998
sa(dp21
I1
F0
sg3
F2.6000000000000001
sg4
F38.385945637999995
sg5
F1.3999999999999999
sg6
F8.452
sg7
F-93.645699999999991
sg8
F120.60999999999999
sg9
F25.719999999999999
sg10
F65
sg11
F123.63919429999999
sg12
F42.025854000000002
sg13
F76.400000000000006
sg14
F35.257600000000004
sa(dp22
I1
F0
sg3
F1
sg4
F96.392544950000001
sg5
F3
sg6
F1.3200000000000001
sg7
F-93.648650000000004
sg8
F315
sg9
F42.299999999999997
sg10
F90.5
sg11
F316.27062339999998
sg12
F42.047800000000002
sg13
F77
sg14
F97.981000000000009
sa(dp23
I1
F0
sg3
F1.6666666666666667
sg4
F62.482169499999998
sg5
F1.3333333333333333
sg6
F15.606666666666664
sg7
F-93.649230000000003
sg8
F215.57500000000002
sg9
F30.466666666666669
sg10
F89.766666666666666
sg11
F231.19520109999999
sg12
F42.02603666666667
sg13
F25.666666666666668
sg14
F40.723999999999997
sa(dp24
I1
F0
sg3
F2
sg4
F33.07534545
sg5
F5
sg6
F9.0199999999999996
sg7
F-93.621790000000004
sg8
F140
sg9
F21
sg10
F53.799999999999997
sg11
F145.84708000000001
sg12
F42.040939999999999
sg13
F225
sg14
F14.026
sa(dp25
I1
F0
sg3
F1.6666666666666667
sg4
F29.400475366666669
sg5
F1.3333333333333333
sg6
F5.2733333333333334
sg7
F-93.642806666666672
sg8
F143.5
sg9
F30.466666666666669
sg10
F75.533333333333331
sg11
F145.45382746666667
sg12
F42.008429999999997
sg13
F25.333333333333332
sg14
F53.286666666666669
sa(lp26
I2
aI11
aI0
aI7
aI9
aI1
aI5
aI7
aI2
aI7
aI0
aI11
aI10
aI6
aI3
aI8
aI2
aI7
aI7
aI2
aI4
aI6
aI11
aI9
aI9
aF19602.71321554399
(lp27
I0
aI0
aI0
aI0
aI0
aI0
aI0
aI0
aI0
aI0
aI0
aI0
aI0
aI0
aI0
aI0
aI0
aI0
aI0
aI0
aI0
aI0
aI0
aI0
aI0
a(lp28
I0
aI0
aI0
aI0
aI0
aI0
aI0
aI0
aI0
aI0
aI0
aI0
at.