((lp1
(dp2
I1
F0
sS'Bus_Lines'
p3
F0.5
sS'Std_Price'
p4
F46.082167490000003
sS'Num_Schools'
p5
F3
sS'Unemployement.'
p6
F1.3200000000000001
sS'Longitude'
p7
F-93.647314999999992
sS'Median_Price'
p8
F203.25
sS'Median.Age'
p9
F38.149999999999999
sS'White.'
p10
F84
sS'Mean_Price'
p11
F209.11717175000001
sS'Latitude'
p12
F42.07976
sS'Num_Houses'
p13
F82.5
sS'Median_House_Income'
p14
F90.240499999999997
sa(dp15
I1
F0
sg3
F1.75
sg4
F64.078225992499995
sg5
F1.25
sg6
F13.100000000000001
sg7
F-93.638705000000002
sg8
F211.83725000000001
sg9
F28.975000000000001
sg10
F78.625
sg11
F226.05258220000002
sg12
F42.026532500000002
sg13
F32
sg14
F35.015999999999998
sa(dp16
I1
F0
sg3
F1
sg4
F110.25829338333331
sg5
F2.3333333333333335
sg6
F1.6300000000000001
sg7
F-93.645653333333328
sg8
F298.16666666666669
sg9
F40.699999999999996
sg10
F92.433333333333337
sg11
F320.68831349999999
sg12
F42.054946666666673
sg13
F47.666666666666664
sg14
F95.082666666666682
sa(dp17
I1
F0
sg3
F2
sg4
F19.09188309
sg5
F1
sg6
F5.2000000000000002
sg7
F-93.663780000000003
sg8
F137.5
sg9
F30.199999999999999
sg10
F72.599999999999994
sg11
F137.5
sg12
F42.023090000000003
sg13
F2
sg14
F55.200000000000003
sa(dp18
I1
F0
sg3
F1
sg4
F14.330176489999999
sg5
F5
sg6
F1.3100000000000001
sg7
F-93.630240000000001
sg8
F106
sg9
F53.299999999999997
sg10
F99.099999999999994
sg11
F104.49375000000001
sg12
F42.051049999999996
sg13
F16
sg14
F77.400000000000006
sa(dp19
I1
F0
sg3
F1.5
sg4
F34.554771505000005
sg5
F1.5
sg6
F5.3100000000000005
sg7
F-93.632319999999993
sg8
F146.5
sg9
F30.600000000000001
sg10
F77
sg11
F149.4307412
sg12
F42.001099999999994
sg13
F37
sg14
F52.329999999999998
sa(dp20
I1
F0
sg3
F1
sg4
F41.072481716666665
sg5
F1.6666666666666667
sg6
F3.5666666666666664
sg7
F-93.659066666666661
sg8
F184.59999999999999
sg9
F32.200000000000003
sg10
F87.899999999999991
sg11
F190.15891583333334
sg12
F42.046813333333333
sg13
F49.666666666666664
sg14
F69.081999999999994
sa(dp21
I1
F0
sg3
F2
sg4
F33.07534545
sg5
F5
sg6
F9.0199999999999996
sg7
F-93.621790000000004
sg8
F140
sg9
F21
sg10
F53.799999999999997
sg11
F145.84708000000001
sg12
F42.040939999999999
sg13
F225
sg14
F14.026
sa(dp22
I1
F0
sg3
F1
sg4
F9.3773145289999995
sg5
F5
sg6
F1.3100000000000001
sg7
F-93.62688
sg8
F146
sg9
F53.299999999999997
sg10
F99.099999999999994
sg11
F142.69444440000001
sg12
F42.049900000000001
sg13
F9
sg14
F77.400000000000006
sa(dp23
I1
F0
sg3
F2
sg4
F39.638254517500002
sg5
F1.5
sg6
F9.1699999999999999
sg7
F-93.651622500000002
sg8
F125.0125
sg9
F26.025000000000002
sg10
F69.949999999999989
sg11
F129.51804692499999
sg12
F42.026820000000001
sg13
F86.25
sg14
F39.599000000000004
sa(dp24
I1
F0
sg3
F10
sg4
F51.403666440000002
sg5
F4
sg6
F10.199999999999999
sg7
F-93.649649999999994
sg8
F197.19999999999999
sg9
F21.399999999999999
sg10
F85.5
sg11
F197.9657733
sg12
F42.021419999999999
sg13
F150
sg14
F15.934000000000001
sa(dp25
I1
F0
sg3
F4
sg4
F28.433879865000002
sg5
F1
sg6
F5.5
sg7
F-93.615129999999994
sg8
F95.5
sg9
F27.75
sg10
F63.300000000000004
sg11
F99.350127194999999
sg12
F42.016345000000001
sg13
F27
sg14
F33.676000000000002
sa(lp26
I6
aI3
aI4
aI9
aI1
aI10
aI1
aI9
aI0
aI11
aI11
aI5
aI7
aI2
aI8
aI2
aI6
aI9
aI9
aI6
aI0
aI2
aI5
aI1
aI1
aF21152.167366629932
(lp27
I0
aI0
aI0
aI0
aI0
aI0
aI0
aI0
aI0
aI0
aI0
aI0
aI0
aI0
aI0
aI0
aI0
aI0
aI0
aI0
aI0
aI0
aI0
aI0
aI0
a(lp28
I0
aI0
aI0
aI0
aI0
aI0
aI0
aI0
aI0
aI0
aI0
aI0
a(lp29
S'Blmngtn'
p30
aS'Blueste'
p31
aS'BrDale'
p32
aS'BrkSide'
p33
aS'ClearCr'
p34
aS'CollgCr'
p35
aS'Crawfor'
p36
aS'Edwards'
p37
aS'Gilbert'
p38
aS'IDOTRR'
p39
aS'MeadowV'
p40
aS'Mitchel'
p41
aS'NAmes'
p42
aS'NoRidge'
p43
aS'NPkVill'
p44
aS'NridgHt'
p45
aS'NWAmes'
p46
aS'OldTown'
p47
aS'Sawyer'
p48
aS'SawyerW'
p49
aS'Somerst'
p50
aS'StoneBr'
p51
aS'SWISU'
p52
aS'Timber'
p53
aS'Veenker'
p54
at.