((lp1
(dp2
I1
F0
sS'Bus_Lines'
p3
F1.75
sS'Std_Price'
p4
F64.078225992499995
sS'Num_Schools'
p5
F1.25
sS'Unemployement.'
p6
F13.100000000000001
sS'Longitude'
p7
F-93.638705000000002
sS'Median_Price'
p8
F211.83725000000001
sS'Median.Age'
p9
F28.975000000000001
sS'White.'
p10
F78.625
sS'Mean_Price'
p11
F226.05258220000002
sS'Latitude'
p12
F42.026532500000002
sS'Num_Houses'
p13
F32
sS'Median_House_Income'
p14
F35.015999999999998
sa(dp15
I1
F0
sg3
F1
sg4
F30.393229219999998
sg5
F3
sg6
F2.25
sg7
F-93.639040000000008
sg8
F191
sg9
F37.5
sg10
F96.299999999999997
sg11
F194.8708824
sg12
F42.061520000000002
sg13
F17
sg14
F89.286000000000001
sa(dp16
I1
F0
sg3
F2.6000000000000001
sg4
F47.278443469999999
sg5
F2.3999999999999999
sg6
F4.258
sg7
F-93.656487999999996
sg8
F193.30000000000001
sg9
F31.360000000000003
sg10
F84.179999999999993
sg11
F198.36119638
sg12
F42.051971999999999
sg13
F89.400000000000006
sg14
F62.875
sa(dp17
I1
F0
sg3
F4
sg4
F28.433879865000002
sg5
F1
sg6
F5.5
sg7
F-93.615129999999994
sg8
F95.5
sg9
F27.75
sg10
F63.300000000000004
sg11
F99.350127194999999
sg12
F42.016345000000001
sg13
F27
sg14
F33.676000000000002
sa(dp18
I1
F0
sg3
F1
sg4
F110.25829338333331
sg5
F2.3333333333333335
sg6
F1.6300000000000001
sg7
F-93.645653333333328
sg8
F298.16666666666669
sg9
F40.699999999999996
sg10
F92.433333333333337
sg11
F320.68831349999999
sg12
F42.054946666666673
sg13
F47.666666666666664
sg14
F95.082666666666682
sa(dp19
I1
F0
sg3
F2
sg4
F42.862964314999999
sg5
F3
sg6
F7.2999999999999998
sg7
F-93.618065000000001
sg8
F129.5
sg9
F22.75
sg10
F49.5
sg11
F137.03619044999999
sg12
F42.034990000000001
sg13
F169
sg14
F15.959
sa(dp20
I1
F0
sg3
F1.5
sg4
F18.85557294725
sg5
F3.25
sg6
F3.2549999999999999
sg7
F-93.64612249999999
sg8
F132.25
sg9
F41.75
sg10
F85.849999999999994
sg11
F131.81988860000001
sg12
F42.033985000000001
sg13
F13
sg14
F66.300000000000011
sa(dp21
I1
F0
sg3
F1.75
sg4
F35.597265055000001
sg5
F1.5
sg6
F9.1300000000000008
sg7
F-93.648299999999992
sg8
F133.63749999999999
sg9
F27.650000000000002
sg10
F79
sg11
F136.5292523
sg12
F42.017134999999996
sg13
F70.25
sg14
F47.491
sa(lp22
I1
aI6
aI6
aI7
aI0
aI2
aI0
aI7
aI2
aI3
aI3
aI7
aI5
aI4
aI6
aI4
aI2
aI5
aI7
aI2
aI2
aI4
aI6
aI0
aI0
aF38094.816896076904
(lp23
I0
aI0
aI0
aI0
aI0
aI0
aI0
aI0
aI0
aI0
aI0
aI0
aI0
aI0
aI0
aI0
aI0
aI0
aI0
aI0
aI0
aI0
aI0
aI0
aI0
a(lp24
I0
aI0
aI0
aI0
aI0
aI0
aI0
aI0
at.