((lp1
(dp2
I1
F0
sS'Bus_Lines'
p3
F1.6666666666666667
sS'Std_Price'
p4
F39.401442933333335
sS'Num_Schools'
p5
F1
sS'Unemployement.'
p6
F5.3266666666666671
sS'Longitude'
p7
F-93.658916666666656
sS'Median_Price'
p8
F125.25
sS'Median.Age'
p9
F28.300000000000001
sS'White.'
p10
F63.466666666666661
sS'Mean_Price'
p11
F131.07937866666666
sS'Latitude'
p12
F42.026113333333335
sS'Num_Houses'
p13
F95.666666666666671
sS'Median_House_Income'
p14
F42.764000000000003
sa(dp15
I1
F0
sg3
F6
sg4
F42.239505945000005
sg5
F4.5
sg6
F9.6099999999999994
sg7
F-93.635719999999992
sg8
F168.59999999999999
sg9
F21.199999999999999
sg10
F69.650000000000006
sg11
F171.90642665000001
sg12
F42.031179999999999
sg13
F187.5
sg14
F14.98
sa(dp16
I1
F0
sg3
F2.25
sg4
F26.140670764874997
sg5
F2.375
sg6
F6.267500000000001
sg7
F-93.630692500000009
sg8
F124.72499999999999
sg9
F34.087499999999999
sg10
F80.100000000000009
sg11
F125.88549786125002
sg12
F42.023483749999997
sg13
F26.625
sg14
F51.514500000000005
sa(dp17
I1
F0
sg3
F1.1666666666666667
sg4
F66.872463687500002
sg5
F1.9166666666666667
sg6
F5.8858333333333341
sg7
F-93.646967500000002
sg8
F225.17908333333332
sg9
F34.241666666666667
sg10
F85.291666666666657
sg11
F237.91553002500004
sg12
F42.047577500000003
sg13
F48.75
sg14
F67.753249999999994
sa(lp18
I3
aI2
aI2
aI2
aI3
aI1
aI3
aI0
aI3
aI2
aI2
aI2
aI1
aI3
aI2
aI3
aI3
aI0
aI0
aI3
aI3
aI3
aI2
aI3
aI3
aF113708.1171122049
(lp19
I0
aI0
aI0
aI0
aI0
aI0
aI0
aI0
aI0
aI0
aI0
aI0
aI0
aI0
aI0
aI0
aI0
aI0
aI0
aI0
aI0
aI0
aI0
aI0
aI0
a(lp20
I0
aI0
aI0
aI0
a(lp21
S'Blmngtn'
p22
aS'Blueste'
p23
aS'BrDale'
p24
aS'BrkSide'
p25
aS'ClearCr'
p26
aS'CollgCr'
p27
aS'Crawfor'
p28
aS'Edwards'
p29
aS'Gilbert'
p30
aS'IDOTRR'
p31
aS'MeadowV'
p32
aS'Mitchel'
p33
aS'NAmes'
p34
aS'NoRidge'
p35
aS'NPkVill'
p36
aS'NridgHt'
p37
aS'NWAmes'
p38
aS'OldTown'
p39
aS'Sawyer'
p40
aS'SawyerW'
p41
aS'Somerst'
p42
aS'StoneBr'
p43
aS'SWISU'
p44
aS'Timber'
p45
aS'Veenker'
p46
at.