((lp1
(dp2
I1
F0
sS'Bus_Lines'
p3
F1
sS'Std_Price'
p4
F64.845651549999999
sS'Num_Schools'
p5
F0
sS'Unemployement.'
p6
F5.4199999999999999
sS'Longitude'
p7
F-93.649740000000008
sS'Median_Price'
p8
F228.47499999999999
sS'Median.Age'
p9
F53
sS'White.'
p10
F90.5
sS'Mean_Price'
p11
F242.2474474
sS'Latitude'
p12
F42.000390000000003
sS'Num_Houses'
p13
F38
sS'Median_House_Income'
p14
F61.963999999999999
sa(dp15
I1
F0
sg3
F2
sg4
F68.866395470000001
sg5
F1
sg6
F5.5800000000000001
sg7
F-93.607129999999998
sg8
F200.62400000000002
sg9
F24.5
sg10
F45.200000000000003
sg11
F210.62472549999998
sg12
F42.028019999999998
sg13
F51
sg14
F17.891999999999999
sa(dp16
I1
F0
sg3
F2
sg4
F61.300428475000004
sg5
F2
sg6
F20.699999999999999
sg7
F-93.648975000000007
sg8
F209.125
sg9
F19.199999999999999
sg10
F89.400000000000006
sg11
F225.66907795
sg12
F42.03886
sg13
F19.5
sg14
F30.103999999999999
sa(dp17
I1
F0
sg3
F2
sg4
F42.978181696666667
sg5
F2.3333333333333335
sg6
F6.5999999999999988
sg7
F-93.640493333333325
sg8
F126.91666666666667
sg9
F25.233333333333334
sg10
F57.199999999999996
sg11
F134.09736029999999
sg12
F42.028460000000003
sg13
F146
sg14
F29.039333333333332
sa(dp18
I1
F0
sg3
F10
sg4
F51.403666440000002
sg5
F4
sg6
F10.199999999999999
sg7
F-93.649649999999994
sg8
F197.19999999999999
sg9
F21.399999999999999
sg10
F85.5
sg11
F197.9657733
sg12
F42.021419999999999
sg13
F150
sg14
F15.934000000000001
sa(dp19
I1
F0
sg3
F1
sg4
F110.25829338333331
sg5
F2.3333333333333335
sg6
F1.6300000000000001
sg7
F-93.645653333333328
sg8
F298.16666666666669
sg9
F40.699999999999996
sg10
F92.433333333333337
sg11
F320.68831349999999
sg12
F42.054946666666673
sg13
F47.666666666666664
sg14
F95.082666666666682
sa(dp20
I1
F0
sg3
F1.3999999999999999
sg4
F23.984773957800002
sg5
F2
sg6
F4.4660000000000002
sg7
F-93.646471999999989
sg8
F142.30000000000001
sg9
F34.979999999999997
sg10
F79.659999999999997
sg11
F143.16981238
sg12
F42.021818000000003
sg13
F31.800000000000001
sg14
F58.491999999999997
sa(dp21
I1
F0
sg3
F0.75
sg4
F46.247137727500004
sg5
F2
sg6
F2.7725
sg7
F-93.6581975
sg8
F192.32499999999999
sg9
F33.849999999999994
sg10
F83.849999999999994
sg11
F198.46005215
sg12
F42.059609999999999
sg13
F74.25
sg14
F74.610249999999994
sa(dp22
I1
F0
sg3
F3
sg4
F27.886656372499999
sg5
F2.5
sg6
F8.2524999999999995
sg7
F-93.622559999999993
sg8
F105.325
sg9
F32
sg10
F78.775000000000006
sg11
F107.0070140225
sg12
F42.028170000000003
sg13
F32
sg14
F43.713999999999999
sa(dp23
I1
F0
sg3
F1
sg4
F30.393229219999998
sg5
F3
sg6
F2.25
sg7
F-93.639040000000008
sg8
F191
sg9
F37.5
sg10
F96.299999999999997
sg11
F194.8708824
sg12
F42.061520000000002
sg13
F17
sg14
F89.286000000000001
sa(lp24
I9
aI6
aI8
aI8
aI2
aI4
aI1
aI3
aI7
aI8
aI8
aI6
aI3
aI5
aI6
aI5
aI7
aI3
aI6
aI7
aI7
aI5
aI6
aI0
aI2
aF33363.01481895116
(lp25
I0
aI0
aI0
aI0
aI0
aI0
aI0
aI0
aI0
aI0
aI0
aI0
aI0
aI0
aI0
aI0
aI0
aI0
aI0
aI0
aI0
aI0
aI0
aI0
aI0
a(lp26
I0
aI0
aI0
aI0
aI0
aI0
aI0
aI0
aI0
aI0
a(lp27
S'Blmngtn'
p28
aS'Blueste'
p29
aS'BrDale'
p30
aS'BrkSide'
p31
aS'ClearCr'
p32
aS'CollgCr'
p33
aS'Crawfor'
p34
aS'Edwards'
p35
aS'Gilbert'
p36
aS'IDOTRR'
p37
aS'MeadowV'
p38
aS'Mitchel'
p39
aS'NAmes'
p40
aS'NoRidge'
p41
aS'NPkVill'
p42
aS'NridgHt'
p43
aS'NWAmes'
p44
aS'OldTown'
p45
aS'Sawyer'
p46
aS'SawyerW'
p47
aS'Somerst'
p48
aS'StoneBr'
p49
aS'SWISU'
p50
aS'Timber'
p51
aS'Veenker'
p52
at.