((lp1
(dp2
I1
F0
sS'Bus_Lines'
p3
F2
sS'Std_Price'
p4
F42.978181696666667
sS'Num_Schools'
p5
F2.3333333333333335
sS'Unemployement.'
p6
F6.5999999999999988
sS'Longitude'
p7
F-93.640493333333325
sS'Median_Price'
p8
F126.91666666666667
sS'Median.Age'
p9
F25.233333333333334
sS'White.'
p10
F57.199999999999996
sS'Mean_Price'
p11
F134.09736029999999
sS'Latitude'
p12
F42.028460000000003
sS'Num_Houses'
p13
F146
sS'Median_House_Income'
p14
F29.039333333333332
sa(dp15
I1
F0
sg3
F2.1000000000000001
sg4
F52.309835054000004
sg5
F2
sg6
F7.5939999999999994
sg7
F-93.647630000000007
sg8
F200.48490000000001
sg9
F31.02
sg10
F83.169999999999987
sg11
F209.08871931000004
sg12
F42.042750999999996
sg13
F59.200000000000003
sg14
F54.372500000000002
sa(dp16
I1
F0
sg3
F1
sg4
F110.25829338333331
sg5
F2.3333333333333335
sg6
F1.6300000000000001
sg7
F-93.645653333333328
sg8
F298.16666666666669
sg9
F40.699999999999996
sg10
F92.433333333333337
sg11
F320.68831349999999
sg12
F42.054946666666673
sg13
F47.666666666666664
sg14
F95.082666666666682
sa(dp17
I1
F0
sg3
F2.1111111111111112
sg4
F25.718943919888886
sg5
F2.2222222222222223
sg6
F6.14888888888889
sg7
F-93.635844444444444
sg8
F125.86666666666666
sg9
F33.655555555555551
sg10
F79.26666666666668
sg11
F127.09745755444445
sg12
F42.024641111111109
sg13
F31.888888888888889
sg14
F51.924000000000007
sa(lp18
I1
aI3
aI3
aI3
aI1
aI1
aI1
aI0
aI1
aI3
aI3
aI3
aI0
aI2
aI3
aI2
aI1
aI0
aI3
aI1
aI1
aI2
aI3
aI1
aI1
aF69625.086317013236
(lp19
I0
aI0
aI0
aI0
aI0
aI0
aI0
aI0
aI0
aI0
aI0
aI0
aI0
aI0
aI0
aI0
aI0
aI0
aI0
aI0
aI0
aI0
aI0
aI0
aI0
a(lp20
I0
aI0
aI0
aI0
at.