((lp1
(dp2
I1
F0
sS'Bus_Lines'
p3
F0.80000000000000004
sS'Std_Price'
p4
F43.076356025999999
sS'Num_Schools'
p5
F2.2000000000000002
sS'Unemployement.'
p6
F2.6680000000000001
sS'Longitude'
p7
F-93.654365999999996
sS'Median_Price'
p8
F192.06
sS'Median.Age'
p9
F34.579999999999998
sS'White.'
p10
F86.340000000000003
sS'Mean_Price'
p11
F197.7422182
sS'Latitude'
p12
F42.059992000000001
sS'Num_Houses'
p13
F62.799999999999997
sS'Median_House_Income'
p14
F77.545400000000001
sa(dp15
I1
F0
sg3
F1.6666666666666667
sg4
F62.482169499999998
sg5
F1.3333333333333333
sg6
F15.606666666666664
sg7
F-93.649230000000003
sg8
F215.57500000000002
sg9
F30.466666666666669
sg10
F89.766666666666666
sg11
F231.19520109999999
sg12
F42.02603666666667
sg13
F25.666666666666668
sg14
F40.723999999999997
sa(dp16
I1
F0
sg3
F2.3333333333333335
sg4
F22.048341919833334
sg5
F2.5
sg6
F4.003333333333333
sg7
F-93.635791666666663
sg8
F120
sg9
F37.083333333333336
sg10
F78.333333333333329
sg11
F120.99663479833333
sg12
F42.028105000000004
sg13
F17.666666666666668
sg14
F55.425333333333334
sa(dp17
I1
F0
sg3
F1
sg4
F110.25829338333331
sg5
F2.3333333333333335
sg6
F1.6300000000000001
sg7
F-93.645653333333328
sg8
F298.16666666666669
sg9
F40.699999999999996
sg10
F92.433333333333337
sg11
F320.68831349999999
sg12
F42.054946666666673
sg13
F47.666666666666664
sg14
F95.082666666666682
sa(dp18
I1
F0
sg3
F2
sg4
F68.866395470000001
sg5
F1
sg6
F5.5800000000000001
sg7
F-93.607129999999998
sg8
F200.62400000000002
sg9
F24.5
sg10
F45.200000000000003
sg11
F210.62472549999998
sg12
F42.028019999999998
sg13
F51
sg14
F17.891999999999999
sa(dp19
I1
F0
sg3
F6
sg4
F42.239505945000005
sg5
F4.5
sg6
F9.6099999999999994
sg7
F-93.635719999999992
sg8
F168.59999999999999
sg9
F21.199999999999999
sg10
F69.650000000000006
sg11
F171.90642665000001
sg12
F42.031179999999999
sg13
F187.5
sg14
F14.98
sa(dp20
I1
F0
sg3
F2
sg4
F47.92959982
sg5
F1
sg6
F5.3900000000000006
sg7
F-93.649844999999999
sg8
F120.375
sg9
F27.350000000000001
sg10
F58.899999999999999
sg11
F128.22250044999998
sg12
F42.022220000000004
sg13
F106.5
sg14
F36.545999999999999
sa(dp21
I1
F0
sg3
F1.6666666666666667
sg4
F33.060147919999999
sg5
F1.6666666666666667
sg6
F10.44
sg7
F-93.635949999999994
sg8
F137.59999999999999
sg9
F26.800000000000001
sg10
F81.13333333333334
sg11
F139.29910306666667
sg12
F42.017713333333333
sg13
F60.333333333333336
sg14
F44.921333333333337
sa(lp22
I0
aI2
aI2
aI7
aI1
aI5
aI4
aI6
aI0
aI2
aI2
aI7
aI5
aI3
aI2
aI3
aI0
aI6
aI7
aI0
aI0
aI3
aI2
aI1
aI1
aF35728.446951522346
(lp23
I0
aI0
aI0
aI0
aI0
aI0
aI0
aI0
aI0
aI0
aI0
aI0
aI0
aI0
aI0
aI0
aI0
aI0
aI0
aI0
aI0
aI0
aI0
aI0
aI0
a(lp24
I0
aI0
aI0
aI0
aI0
aI0
aI0
aI0
a(lp25
S'Blmngtn'
p26
aS'Blueste'
p27
aS'BrDale'
p28
aS'BrkSide'
p29
aS'ClearCr'
p30
aS'CollgCr'
p31
aS'Crawfor'
p32
aS'Edwards'
p33
aS'Gilbert'
p34
aS'IDOTRR'
p35
aS'MeadowV'
p36
aS'Mitchel'
p37
aS'NAmes'
p38
aS'NoRidge'
p39
aS'NPkVill'
p40
aS'NridgHt'
p41
aS'NWAmes'
p42
aS'OldTown'
p43
aS'Sawyer'
p44
aS'SawyerW'
p45
aS'Somerst'
p46
aS'StoneBr'
p47
aS'SWISU'
p48
aS'Timber'
p49
aS'Veenker'
p50
at.